ARM GAS  /var/folders/z2/7_lhr9dn53s9tj4s0rwtyswm0000gn/T//ccRFfwbB.s 			page 1


   1              		.cpu cortex-m7
   2              		.arch armv7e-m
   3              		.fpu fpv5-d16
   4              		.eabi_attribute 28, 1
   5              		.eabi_attribute 20, 1
   6              		.eabi_attribute 21, 1
   7              		.eabi_attribute 23, 3
   8              		.eabi_attribute 24, 1
   9              		.eabi_attribute 25, 1
  10              		.eabi_attribute 26, 1
  11              		.eabi_attribute 30, 2
  12              		.eabi_attribute 34, 1
  13              		.eabi_attribute 18, 4
  14              		.file	"daisyfs.cpp"
  15              		.text
  16              	.Ltext0:
  17              		.cfi_sections	.debug_frame
  18              		.section	.text._ZN5daisy10DaisyPatchD2Ev,"axG",%progbits,_ZN5daisy10DaisyPatchD5Ev,comdat
  19              		.align	1
  20              		.p2align 2,,3
  21              		.weak	_ZN5daisy10DaisyPatchD2Ev
  22              		.syntax unified
  23              		.thumb
  24              		.thumb_func
  26              	_ZN5daisy10DaisyPatchD2Ev:
  27              	.LVL0:
  28              	.LFB2590:
  29              		.file 1 "libDaisy//src/daisy_patch.h"
   1:libDaisy//src/daisy_patch.h **** #pragma once
   2:libDaisy//src/daisy_patch.h **** #ifndef DSY_PATCH_BSP_H
   3:libDaisy//src/daisy_patch.h **** #define DSY_PATCH_BSP_H
   4:libDaisy//src/daisy_patch.h **** #include "daisy_seed.h"
   5:libDaisy//src/daisy_patch.h **** #include "dev/oled_ssd130x.h"
   6:libDaisy//src/daisy_patch.h **** 
   7:libDaisy//src/daisy_patch.h **** namespace daisy
   8:libDaisy//src/daisy_patch.h **** {
   9:libDaisy//src/daisy_patch.h **** /**
  10:libDaisy//src/daisy_patch.h ****     @brief Class that handles initializing all of the hardware specific to the Daisy Patch Board. \
  11:libDaisy//src/daisy_patch.h ****     Helper funtions are also in place to provide easy access to built-in controls and peripherals.
  12:libDaisy//src/daisy_patch.h ****     @author Stephen Hensley
  13:libDaisy//src/daisy_patch.h ****     @date November 2019
  14:libDaisy//src/daisy_patch.h ****     @ingroup boards
  15:libDaisy//src/daisy_patch.h **** */
  16:libDaisy//src/daisy_patch.h **** class DaisyPatch
  17:libDaisy//src/daisy_patch.h **** {
  18:libDaisy//src/daisy_patch.h ****   public:
  19:libDaisy//src/daisy_patch.h ****     /** Enum of Ctrls to represent the four CV/Knob combos on the Patch
  20:libDaisy//src/daisy_patch.h ****      */
  21:libDaisy//src/daisy_patch.h ****     enum Ctrl
  22:libDaisy//src/daisy_patch.h ****     {
  23:libDaisy//src/daisy_patch.h ****         CTRL_1,    /**< */
  24:libDaisy//src/daisy_patch.h ****         CTRL_2,    /**< */
  25:libDaisy//src/daisy_patch.h ****         CTRL_3,    /**< */
  26:libDaisy//src/daisy_patch.h ****         CTRL_4,    /**< */
  27:libDaisy//src/daisy_patch.h ****         CTRL_LAST, /**< */
  28:libDaisy//src/daisy_patch.h ****     };
  29:libDaisy//src/daisy_patch.h **** 
ARM GAS  /var/folders/z2/7_lhr9dn53s9tj4s0rwtyswm0000gn/T//ccRFfwbB.s 			page 2


  30:libDaisy//src/daisy_patch.h ****     /** Daisy patch gate inputs */
  31:libDaisy//src/daisy_patch.h ****     enum GateInput
  32:libDaisy//src/daisy_patch.h ****     {
  33:libDaisy//src/daisy_patch.h ****         GATE_IN_1,    /**< */
  34:libDaisy//src/daisy_patch.h ****         GATE_IN_2,    /** <*/
  35:libDaisy//src/daisy_patch.h ****         GATE_IN_LAST, /**< */
  36:libDaisy//src/daisy_patch.h ****     };
  37:libDaisy//src/daisy_patch.h **** 
  38:libDaisy//src/daisy_patch.h ****     /** Constructor */
  39:libDaisy//src/daisy_patch.h ****     DaisyPatch() {}
  40:libDaisy//src/daisy_patch.h ****     /** Destructor */
  41:libDaisy//src/daisy_patch.h ****     ~DaisyPatch() {}
  30              		.loc 1 41 5 view -0
  31              		.cfi_startproc
  32              		@ args = 0, pretend = 0, frame = 0
  33              		@ frame_needed = 0, uses_anonymous_args = 0
  34              		@ link register save eliminated.
  35              	.LBB404:
  36              	.LBI404:
  37              		.file 2 "libDaisy//src/hid/disp/oled_display.h"
   1:libDaisy//src/hid/disp/oled_display.h **** #pragma once
   2:libDaisy//src/hid/disp/oled_display.h **** #ifndef DSY_OLED_DISPLAY_H
   3:libDaisy//src/hid/disp/oled_display.h **** #define DSY_OLED_DISPLAY_H /**< Macro */
   4:libDaisy//src/hid/disp/oled_display.h **** 
   5:libDaisy//src/hid/disp/oled_display.h **** #include "display.h"
   6:libDaisy//src/hid/disp/oled_display.h **** 
   7:libDaisy//src/hid/disp/oled_display.h **** namespace daisy
   8:libDaisy//src/hid/disp/oled_display.h **** {
   9:libDaisy//src/hid/disp/oled_display.h **** /** 
  10:libDaisy//src/hid/disp/oled_display.h ****  * This class is for drawing to a monochrome OLED display. 
  11:libDaisy//src/hid/disp/oled_display.h ****  * @ingroup device
  12:libDaisy//src/hid/disp/oled_display.h **** */
  13:libDaisy//src/hid/disp/oled_display.h **** template <typename DisplayDriver>
  14:libDaisy//src/hid/disp/oled_display.h **** class OledDisplay : public OneBitGraphicsDisplayImpl<OledDisplay<DisplayDriver>>
  15:libDaisy//src/hid/disp/oled_display.h **** {
  16:libDaisy//src/hid/disp/oled_display.h ****   public:
  17:libDaisy//src/hid/disp/oled_display.h ****     OledDisplay() {}
  18:libDaisy//src/hid/disp/oled_display.h ****     virtual ~OledDisplay() {}
  38              		.loc 2 18 13 view .LVU1
  39              	.LBB405:
  40              	.LBI405:
  41              		.file 3 "libDaisy//src/hid/disp/display.h"
   1:libDaisy//src/hid/disp/display.h **** #pragma once
   2:libDaisy//src/hid/disp/display.h **** #ifndef DSY_DISPLAY_H
   3:libDaisy//src/hid/disp/display.h **** #define DSY_DISPLAY_H /**< Macro */
   4:libDaisy//src/hid/disp/display.h **** #include <cmath>
   5:libDaisy//src/hid/disp/display.h **** #include "util/oled_fonts.h"
   6:libDaisy//src/hid/disp/display.h **** #include "daisy_core.h"
   7:libDaisy//src/hid/disp/display.h **** #include "graphics_common.h"
   8:libDaisy//src/hid/disp/display.h **** 
   9:libDaisy//src/hid/disp/display.h **** #ifndef deg2rad
  10:libDaisy//src/hid/disp/display.h **** #define deg2rad(deg) ((deg)*3.141592 / 180.0)
  11:libDaisy//src/hid/disp/display.h **** #endif
  12:libDaisy//src/hid/disp/display.h **** 
  13:libDaisy//src/hid/disp/display.h **** namespace daisy
  14:libDaisy//src/hid/disp/display.h **** {
  15:libDaisy//src/hid/disp/display.h **** /** 
ARM GAS  /var/folders/z2/7_lhr9dn53s9tj4s0rwtyswm0000gn/T//ccRFfwbB.s 			page 3


  16:libDaisy//src/hid/disp/display.h ****  * This interface is used as a base class for all types of 1bit-per-pixel
  17:libDaisy//src/hid/disp/display.h ****  * graphics displays.
  18:libDaisy//src/hid/disp/display.h **** */
  19:libDaisy//src/hid/disp/display.h **** class OneBitGraphicsDisplay
  20:libDaisy//src/hid/disp/display.h **** {
  21:libDaisy//src/hid/disp/display.h ****   public:
  22:libDaisy//src/hid/disp/display.h ****     OneBitGraphicsDisplay() {}
  23:libDaisy//src/hid/disp/display.h ****     virtual ~OneBitGraphicsDisplay() {}
  24:libDaisy//src/hid/disp/display.h **** 
  25:libDaisy//src/hid/disp/display.h ****     virtual uint16_t Height() const = 0;
  26:libDaisy//src/hid/disp/display.h ****     virtual uint16_t Width() const  = 0;
  27:libDaisy//src/hid/disp/display.h **** 
  28:libDaisy//src/hid/disp/display.h ****     Rectangle GetBounds() const
  29:libDaisy//src/hid/disp/display.h ****     {
  30:libDaisy//src/hid/disp/display.h ****         return Rectangle(int16_t(Width()), int16_t(Height()));
  31:libDaisy//src/hid/disp/display.h ****     }
  32:libDaisy//src/hid/disp/display.h **** 
  33:libDaisy//src/hid/disp/display.h **** 
  34:libDaisy//src/hid/disp/display.h ****     size_t CurrentX() { return currentX_; };
  35:libDaisy//src/hid/disp/display.h ****     size_t CurrentY() { return currentY_; };
  36:libDaisy//src/hid/disp/display.h **** 
  37:libDaisy//src/hid/disp/display.h ****     /** 
  38:libDaisy//src/hid/disp/display.h ****     Fills the entire display with either on/off.
  39:libDaisy//src/hid/disp/display.h ****     \param on Sets on or off.
  40:libDaisy//src/hid/disp/display.h ****     */
  41:libDaisy//src/hid/disp/display.h ****     virtual void Fill(bool on) = 0;
  42:libDaisy//src/hid/disp/display.h **** 
  43:libDaisy//src/hid/disp/display.h ****     /**
  44:libDaisy//src/hid/disp/display.h ****     Sets the pixel at the specified coordinate to be on/off.
  45:libDaisy//src/hid/disp/display.h ****     \param x   x Coordinate
  46:libDaisy//src/hid/disp/display.h ****     \param y   y coordinate
  47:libDaisy//src/hid/disp/display.h ****     \param on  on or off
  48:libDaisy//src/hid/disp/display.h ****     */
  49:libDaisy//src/hid/disp/display.h ****     virtual void DrawPixel(uint_fast8_t x, uint_fast8_t y, bool on) = 0;
  50:libDaisy//src/hid/disp/display.h **** 
  51:libDaisy//src/hid/disp/display.h ****     /**
  52:libDaisy//src/hid/disp/display.h ****     Draws a line from (x1, y1) to (y1, y2)
  53:libDaisy//src/hid/disp/display.h ****     \param x1  x Coordinate of the starting point
  54:libDaisy//src/hid/disp/display.h ****     \param y1  y Coordinate of the starting point
  55:libDaisy//src/hid/disp/display.h ****     \param x2  x Coordinate of the ending point
  56:libDaisy//src/hid/disp/display.h ****     \param y2  y Coordinate of the ending point
  57:libDaisy//src/hid/disp/display.h ****     \param on  on or off
  58:libDaisy//src/hid/disp/display.h ****     */
  59:libDaisy//src/hid/disp/display.h ****     virtual void DrawLine(uint_fast8_t x1,
  60:libDaisy//src/hid/disp/display.h ****                           uint_fast8_t y1,
  61:libDaisy//src/hid/disp/display.h ****                           uint_fast8_t x2,
  62:libDaisy//src/hid/disp/display.h ****                           uint_fast8_t y2,
  63:libDaisy//src/hid/disp/display.h ****                           bool         on)
  64:libDaisy//src/hid/disp/display.h ****         = 0;
  65:libDaisy//src/hid/disp/display.h **** 
  66:libDaisy//src/hid/disp/display.h ****     /**
  67:libDaisy//src/hid/disp/display.h ****     Draws a rectangle based on two coordinates.
  68:libDaisy//src/hid/disp/display.h ****     \param x1 x Coordinate of the first point
  69:libDaisy//src/hid/disp/display.h ****     \param y1 y Coordinate of the first point
  70:libDaisy//src/hid/disp/display.h ****     \param x2 x Coordinate of the second point
  71:libDaisy//src/hid/disp/display.h ****     \param y2 y Coordinate of the second point
  72:libDaisy//src/hid/disp/display.h ****     \param on on or off
ARM GAS  /var/folders/z2/7_lhr9dn53s9tj4s0rwtyswm0000gn/T//ccRFfwbB.s 			page 4


  73:libDaisy//src/hid/disp/display.h ****     \param fill fill the rectangle or draw only the outline
  74:libDaisy//src/hid/disp/display.h ****     */
  75:libDaisy//src/hid/disp/display.h ****     virtual void DrawRect(uint_fast8_t x1,
  76:libDaisy//src/hid/disp/display.h ****                           uint_fast8_t y1,
  77:libDaisy//src/hid/disp/display.h ****                           uint_fast8_t x2,
  78:libDaisy//src/hid/disp/display.h ****                           uint_fast8_t y2,
  79:libDaisy//src/hid/disp/display.h ****                           bool         on,
  80:libDaisy//src/hid/disp/display.h ****                           bool         fill = false)
  81:libDaisy//src/hid/disp/display.h ****         = 0;
  82:libDaisy//src/hid/disp/display.h **** 
  83:libDaisy//src/hid/disp/display.h ****     /**
  84:libDaisy//src/hid/disp/display.h ****     Draws a rectangle.
  85:libDaisy//src/hid/disp/display.h ****     \param rect the rectangle
  86:libDaisy//src/hid/disp/display.h ****     \param on   on or off
  87:libDaisy//src/hid/disp/display.h ****     \param fill fill the rectangle or draw only the outline
  88:libDaisy//src/hid/disp/display.h ****     */
  89:libDaisy//src/hid/disp/display.h ****     void DrawRect(const Rectangle& rect, bool on, bool fill = false)
  90:libDaisy//src/hid/disp/display.h ****     {
  91:libDaisy//src/hid/disp/display.h ****         DrawRect(rect.GetX(),
  92:libDaisy//src/hid/disp/display.h ****                  rect.GetY(),
  93:libDaisy//src/hid/disp/display.h ****                  rect.GetRight(),
  94:libDaisy//src/hid/disp/display.h ****                  rect.GetBottom(),
  95:libDaisy//src/hid/disp/display.h ****                  on,
  96:libDaisy//src/hid/disp/display.h ****                  fill);
  97:libDaisy//src/hid/disp/display.h ****     }
  98:libDaisy//src/hid/disp/display.h **** 
  99:libDaisy//src/hid/disp/display.h ****     /**
 100:libDaisy//src/hid/disp/display.h ****     Draws an arc around the specified coordinate
 101:libDaisy//src/hid/disp/display.h ****     \param x           x Coordinate of the center of the arc
 102:libDaisy//src/hid/disp/display.h ****     \param y           y Coordinate of the center of the arc
 103:libDaisy//src/hid/disp/display.h ****     \param radius      radius of the arc
 104:libDaisy//src/hid/disp/display.h ****     \param start_angle angle where to start the arc
 105:libDaisy//src/hid/disp/display.h ****     \param sweep       total angle of the arc
 106:libDaisy//src/hid/disp/display.h ****     \param on  on or off
 107:libDaisy//src/hid/disp/display.h ****     */
 108:libDaisy//src/hid/disp/display.h ****     virtual void DrawArc(uint_fast8_t x,
 109:libDaisy//src/hid/disp/display.h ****                          uint_fast8_t y,
 110:libDaisy//src/hid/disp/display.h ****                          uint_fast8_t radius,
 111:libDaisy//src/hid/disp/display.h ****                          int_fast16_t start_angle,
 112:libDaisy//src/hid/disp/display.h ****                          int_fast16_t sweep,
 113:libDaisy//src/hid/disp/display.h ****                          bool         on)
 114:libDaisy//src/hid/disp/display.h ****         = 0;
 115:libDaisy//src/hid/disp/display.h **** 
 116:libDaisy//src/hid/disp/display.h ****     /**
 117:libDaisy//src/hid/disp/display.h ****     Draws a circle around the specified coordinate
 118:libDaisy//src/hid/disp/display.h ****     \param x           x Coordinate of the center of the circle
 119:libDaisy//src/hid/disp/display.h ****     \param y           y Coordinate of the center of the circle
 120:libDaisy//src/hid/disp/display.h ****     \param radius      radius of the circle
 121:libDaisy//src/hid/disp/display.h ****     \param on  on or off
 122:libDaisy//src/hid/disp/display.h ****     */
 123:libDaisy//src/hid/disp/display.h ****     void
 124:libDaisy//src/hid/disp/display.h ****     DrawCircle(uint_fast8_t x, uint_fast8_t y, uint_fast8_t radius, bool on)
 125:libDaisy//src/hid/disp/display.h ****     {
 126:libDaisy//src/hid/disp/display.h ****         DrawArc(x, y, radius, 0, 360, on);
 127:libDaisy//src/hid/disp/display.h ****     };
 128:libDaisy//src/hid/disp/display.h **** 
 129:libDaisy//src/hid/disp/display.h ****     /** 
ARM GAS  /var/folders/z2/7_lhr9dn53s9tj4s0rwtyswm0000gn/T//ccRFfwbB.s 			page 5


 130:libDaisy//src/hid/disp/display.h ****     Writes the character with the specific FontDef
 131:libDaisy//src/hid/disp/display.h ****     to the display buffer at the current Cursor position.
 132:libDaisy//src/hid/disp/display.h ****     \param ch character to be written
 133:libDaisy//src/hid/disp/display.h ****     \param font font to be written in
 134:libDaisy//src/hid/disp/display.h ****     \param on    on or off
 135:libDaisy//src/hid/disp/display.h ****     \return &
 136:libDaisy//src/hid/disp/display.h ****     */
 137:libDaisy//src/hid/disp/display.h ****     virtual char WriteChar(char ch, FontDef font, bool on) = 0;
 138:libDaisy//src/hid/disp/display.h **** 
 139:libDaisy//src/hid/disp/display.h ****     /** 
 140:libDaisy//src/hid/disp/display.h ****     Similar to WriteChar, except it will handle an entire String.
 141:libDaisy//src/hid/disp/display.h ****     Wrapping does not happen automatically, so the width
 142:libDaisy//src/hid/disp/display.h ****     of the string must be kept within the dimensions of the screen.
 143:libDaisy//src/hid/disp/display.h ****     \param str string to be written
 144:libDaisy//src/hid/disp/display.h ****     \param font font to use
 145:libDaisy//src/hid/disp/display.h ****     \param on  on or off
 146:libDaisy//src/hid/disp/display.h ****     \return &
 147:libDaisy//src/hid/disp/display.h ****     */
 148:libDaisy//src/hid/disp/display.h ****     virtual char WriteString(const char* str, FontDef font, bool on) = 0;
 149:libDaisy//src/hid/disp/display.h **** 
 150:libDaisy//src/hid/disp/display.h ****     /** 
 151:libDaisy//src/hid/disp/display.h ****     Similar to WriteString but justified within a bounding box.
 152:libDaisy//src/hid/disp/display.h ****     \param str          string to be written
 153:libDaisy//src/hid/disp/display.h ****     \param font         font to use
 154:libDaisy//src/hid/disp/display.h ****     \param boundingBox  the bounding box to draw the text in
 155:libDaisy//src/hid/disp/display.h ****     \param alignment    the alignment to use
 156:libDaisy//src/hid/disp/display.h ****     \param on           on or off
 157:libDaisy//src/hid/disp/display.h ****     \return The rectangle that was drawn to
 158:libDaisy//src/hid/disp/display.h ****     */
 159:libDaisy//src/hid/disp/display.h ****     virtual Rectangle WriteStringAligned(const char*    str,
 160:libDaisy//src/hid/disp/display.h ****                                          const FontDef& font,
 161:libDaisy//src/hid/disp/display.h ****                                          Rectangle      boundingBox,
 162:libDaisy//src/hid/disp/display.h ****                                          Alignment      alignment,
 163:libDaisy//src/hid/disp/display.h ****                                          bool           on)
 164:libDaisy//src/hid/disp/display.h ****         = 0;
 165:libDaisy//src/hid/disp/display.h **** 
 166:libDaisy//src/hid/disp/display.h ****     /** 
 167:libDaisy//src/hid/disp/display.h ****     Moves the 'Cursor' position used for WriteChar, and WriteStr to the specified coordinate.
 168:libDaisy//src/hid/disp/display.h ****     \param x x pos
 169:libDaisy//src/hid/disp/display.h ****     \param y y pos
 170:libDaisy//src/hid/disp/display.h ****     */
 171:libDaisy//src/hid/disp/display.h ****     void SetCursor(uint16_t x, uint16_t y)
 172:libDaisy//src/hid/disp/display.h ****     {
 173:libDaisy//src/hid/disp/display.h ****         currentX_ = (x >= Width()) ? Width() - 1 : x;
 174:libDaisy//src/hid/disp/display.h ****         currentY_ = (y >= Height()) ? Height() - 1 : y;
 175:libDaisy//src/hid/disp/display.h ****     }
 176:libDaisy//src/hid/disp/display.h **** 
 177:libDaisy//src/hid/disp/display.h ****     /** 
 178:libDaisy//src/hid/disp/display.h ****     Writes the current display buffer to the OLED device using SPI or I2C depending on 
 179:libDaisy//src/hid/disp/display.h ****     how the object was initialized.
 180:libDaisy//src/hid/disp/display.h ****     */
 181:libDaisy//src/hid/disp/display.h ****     virtual void Update() = 0;
 182:libDaisy//src/hid/disp/display.h **** 
 183:libDaisy//src/hid/disp/display.h ****   protected:
 184:libDaisy//src/hid/disp/display.h ****     uint16_t currentX_;
 185:libDaisy//src/hid/disp/display.h ****     uint16_t currentY_;
 186:libDaisy//src/hid/disp/display.h **** };
ARM GAS  /var/folders/z2/7_lhr9dn53s9tj4s0rwtyswm0000gn/T//ccRFfwbB.s 			page 6


 187:libDaisy//src/hid/disp/display.h **** 
 188:libDaisy//src/hid/disp/display.h **** /** This class is intended as a intermediary class for your actual implementation of the OneBitGrap
 189:libDaisy//src/hid/disp/display.h ****  *  interface. It uses the CRTP design pattern where the template argument is the child class. It p
 190:libDaisy//src/hid/disp/display.h ****  *  implementations for most of the functions, except DrawPixel(), Update() and Fill(), which you'l
 191:libDaisy//src/hid/disp/display.h ****  *  to provide in your child class.
 192:libDaisy//src/hid/disp/display.h ****  *  The main goal of this class is to provide common drawing functions without relying on massive a
 193:libDaisy//src/hid/disp/display.h ****  *  virtual function calls that would result in a performance loss. To achieve this, any drawing fu
 194:libDaisy//src/hid/disp/display.h ****  *  is implemented here and internally calls other drawing functions (e.g. DrawRect() which interna
 195:libDaisy//src/hid/disp/display.h ****  *  DrawPixel() and DrawLine()) makes these calls via the qualified name of these functions to expl
 196:libDaisy//src/hid/disp/display.h ****  *  suppress the virtual dispatch mechanism like this:
 197:libDaisy//src/hid/disp/display.h ****  * 
 198:libDaisy//src/hid/disp/display.h ****  *      ChildType::DrawPixel(...); // no virtual function call; direct call into the child class fu
 199:libDaisy//src/hid/disp/display.h ****  *  
 200:libDaisy//src/hid/disp/display.h ****  *  To create a custom OneBitGraphicsDisplay implementation, you can 
 201:libDaisy//src/hid/disp/display.h ****  *  A) inherit from OneBitGraphicsDisplay directly and provide all the drawing functions yourself
 202:libDaisy//src/hid/disp/display.h ****  *  B) Inherit from OneBitGraphicsDisplayImpl and only provide DrawPixel(), Fill() and Update()
 203:libDaisy//src/hid/disp/display.h ****  *     like this:
 204:libDaisy//src/hid/disp/display.h ****  *  
 205:libDaisy//src/hid/disp/display.h ****  *      class MyDisplayClass : public OneBitGraphicsDisplayImpl<MyDisplayClass> 
 206:libDaisy//src/hid/disp/display.h ****  *      {
 207:libDaisy//src/hid/disp/display.h ****  *      public:
 208:libDaisy//src/hid/disp/display.h ****  *          void Fill() override { ... };
 209:libDaisy//src/hid/disp/display.h ****  *          void DrawPixel(uint_fast8_t x, uint_fast8_t y, bool on) override { ... };
 210:libDaisy//src/hid/disp/display.h ****  *          void Update() override { ... }
 211:libDaisy//src/hid/disp/display.h ****  *      };
 212:libDaisy//src/hid/disp/display.h ****  *  
 213:libDaisy//src/hid/disp/display.h ****  */
 214:libDaisy//src/hid/disp/display.h **** template <class ChildType>
 215:libDaisy//src/hid/disp/display.h **** class OneBitGraphicsDisplayImpl : public OneBitGraphicsDisplay
 216:libDaisy//src/hid/disp/display.h **** {
 217:libDaisy//src/hid/disp/display.h ****   public:
 218:libDaisy//src/hid/disp/display.h ****     OneBitGraphicsDisplayImpl() {}
 219:libDaisy//src/hid/disp/display.h ****     virtual ~OneBitGraphicsDisplayImpl() {}
  42              		.loc 3 219 13 view .LVU2
  43              	.LBB406:
  44              	.LBI406:
  23:libDaisy//src/hid/disp/display.h **** 
  45              		.loc 3 23 13 view .LVU3
  23:libDaisy//src/hid/disp/display.h **** 
  46              		.loc 3 23 13 is_stmt 0 view .LVU4
  47              	.LBE406:
  48              	.LBE405:
  49              	.LBE404:
  50              	.LBB407:
  51              	.LBI407:
  52              		.file 4 "libDaisy//src/hid/midi.h"
   1:libDaisy//src/hid/midi.h **** #pragma once
   2:libDaisy//src/hid/midi.h **** #ifndef DSY_MIDI_H
   3:libDaisy//src/hid/midi.h **** #define DSY_MIDI_H
   4:libDaisy//src/hid/midi.h **** 
   5:libDaisy//src/hid/midi.h **** // TODO: make this adjustable
   6:libDaisy//src/hid/midi.h **** #define SYSEX_BUFFER_LEN 128
   7:libDaisy//src/hid/midi.h **** 
   8:libDaisy//src/hid/midi.h **** #include <stdint.h>
   9:libDaisy//src/hid/midi.h **** #include <stdlib.h>
  10:libDaisy//src/hid/midi.h **** #include "per/uart.h"
  11:libDaisy//src/hid/midi.h **** #include "util/ringbuffer.h"
ARM GAS  /var/folders/z2/7_lhr9dn53s9tj4s0rwtyswm0000gn/T//ccRFfwbB.s 			page 7


  12:libDaisy//src/hid/midi.h **** #include "hid/MidiEvent.h"
  13:libDaisy//src/hid/midi.h **** #include "hid/usb_midi.h"
  14:libDaisy//src/hid/midi.h **** #include "sys/system.h"
  15:libDaisy//src/hid/midi.h **** 
  16:libDaisy//src/hid/midi.h **** namespace daisy
  17:libDaisy//src/hid/midi.h **** {
  18:libDaisy//src/hid/midi.h **** /** @brief   Transport layer for sending and receiving MIDI data over UART 
  19:libDaisy//src/hid/midi.h ****  *  @details This is the mode of communication used for TRS and DIN MIDI
  20:libDaisy//src/hid/midi.h ****  *  @ingroup midi
  21:libDaisy//src/hid/midi.h **** */
  22:libDaisy//src/hid/midi.h **** class MidiUartTransport
  23:libDaisy//src/hid/midi.h **** {
  24:libDaisy//src/hid/midi.h ****   public:
  25:libDaisy//src/hid/midi.h ****     MidiUartTransport() {}
  26:libDaisy//src/hid/midi.h ****     ~MidiUartTransport() {}
  27:libDaisy//src/hid/midi.h **** 
  28:libDaisy//src/hid/midi.h ****     struct Config
  29:libDaisy//src/hid/midi.h ****     {
  30:libDaisy//src/hid/midi.h ****         UartHandler::Config::Peripheral periph;
  31:libDaisy//src/hid/midi.h ****         dsy_gpio_pin                    rx;
  32:libDaisy//src/hid/midi.h ****         dsy_gpio_pin                    tx;
  33:libDaisy//src/hid/midi.h **** 
  34:libDaisy//src/hid/midi.h ****         Config()
  35:libDaisy//src/hid/midi.h ****         {
  36:libDaisy//src/hid/midi.h ****             periph = UartHandler::Config::Peripheral::USART_1;
  37:libDaisy//src/hid/midi.h ****             rx     = {DSY_GPIOB, 7};
  38:libDaisy//src/hid/midi.h ****             tx     = {DSY_GPIOB, 6};
  39:libDaisy//src/hid/midi.h ****         }
  40:libDaisy//src/hid/midi.h ****     };
  41:libDaisy//src/hid/midi.h **** 
  42:libDaisy//src/hid/midi.h ****     inline void Init(Config config)
  43:libDaisy//src/hid/midi.h ****     {
  44:libDaisy//src/hid/midi.h ****         UartHandler::Config uart_config;
  45:libDaisy//src/hid/midi.h **** 
  46:libDaisy//src/hid/midi.h ****         //defaults
  47:libDaisy//src/hid/midi.h ****         uart_config.baudrate   = 31250;
  48:libDaisy//src/hid/midi.h ****         uart_config.stopbits   = UartHandler::Config::StopBits::BITS_1;
  49:libDaisy//src/hid/midi.h ****         uart_config.parity     = UartHandler::Config::Parity::NONE;
  50:libDaisy//src/hid/midi.h ****         uart_config.mode       = UartHandler::Config::Mode::TX_RX;
  51:libDaisy//src/hid/midi.h ****         uart_config.wordlength = UartHandler::Config::WordLength::BITS_8;
  52:libDaisy//src/hid/midi.h **** 
  53:libDaisy//src/hid/midi.h ****         //user settings
  54:libDaisy//src/hid/midi.h ****         uart_config.periph        = config.periph;
  55:libDaisy//src/hid/midi.h ****         uart_config.pin_config.rx = config.rx;
  56:libDaisy//src/hid/midi.h ****         uart_config.pin_config.tx = config.tx;
  57:libDaisy//src/hid/midi.h **** 
  58:libDaisy//src/hid/midi.h ****         uart_.Init(uart_config);
  59:libDaisy//src/hid/midi.h ****     }
  60:libDaisy//src/hid/midi.h **** 
  61:libDaisy//src/hid/midi.h ****     inline void    StartRx() { uart_.StartRx(); }
  62:libDaisy//src/hid/midi.h ****     inline size_t  Readable() { return uart_.Readable(); }
  63:libDaisy//src/hid/midi.h ****     inline uint8_t Rx() { return uart_.PopRx(); }
  64:libDaisy//src/hid/midi.h ****     inline bool    RxActive() { return uart_.RxActive(); }
  65:libDaisy//src/hid/midi.h ****     inline void    FlushRx() { uart_.FlushRx(); }
  66:libDaisy//src/hid/midi.h ****     inline void    Tx(uint8_t* buff, size_t size) { uart_.PollTx(buff, size); }
  67:libDaisy//src/hid/midi.h **** 
  68:libDaisy//src/hid/midi.h ****   private:
ARM GAS  /var/folders/z2/7_lhr9dn53s9tj4s0rwtyswm0000gn/T//ccRFfwbB.s 			page 8


  69:libDaisy//src/hid/midi.h ****     UartHandler uart_;
  70:libDaisy//src/hid/midi.h **** };
  71:libDaisy//src/hid/midi.h **** 
  72:libDaisy//src/hid/midi.h **** /** 
  73:libDaisy//src/hid/midi.h ****     @brief Simple MIDI Handler \n 
  74:libDaisy//src/hid/midi.h ****     Parses bytes from an input into valid MidiEvents. \n 
  75:libDaisy//src/hid/midi.h ****     The MidiEvents fill a FIFO queue that the user can pop messages from.
  76:libDaisy//src/hid/midi.h ****     @author shensley
  77:libDaisy//src/hid/midi.h ****     @date March 2020
  78:libDaisy//src/hid/midi.h ****     @ingroup midi
  79:libDaisy//src/hid/midi.h **** */
  80:libDaisy//src/hid/midi.h **** template <typename Transport>
  81:libDaisy//src/hid/midi.h **** class MidiHandler
  82:libDaisy//src/hid/midi.h **** {
  83:libDaisy//src/hid/midi.h ****   public:
  84:libDaisy//src/hid/midi.h ****     MidiHandler() {}
  85:libDaisy//src/hid/midi.h ****     ~MidiHandler() {}
  53              		.loc 4 85 5 is_stmt 1 view .LVU5
  54              	.LBB408:
  55              	.LBI408:
  26:libDaisy//src/hid/midi.h **** 
  56              		.loc 4 26 5 view .LVU6
  26:libDaisy//src/hid/midi.h **** 
  57              		.loc 4 26 5 is_stmt 0 view .LVU7
  58              	.LBE408:
  59              	.LBE407:
  60              	.LBB409:
  61              	.LBI409:
  62              		.file 5 "libDaisy//src/hid/encoder.h"
   1:libDaisy//src/hid/encoder.h **** #pragma once
   2:libDaisy//src/hid/encoder.h **** #ifndef DSY_ENCODER_H
   3:libDaisy//src/hid/encoder.h **** #define DSY_ENCODER_H
   4:libDaisy//src/hid/encoder.h **** #include "daisy_core.h"
   5:libDaisy//src/hid/encoder.h **** #include "per/gpio.h"
   6:libDaisy//src/hid/encoder.h **** #include "hid/switch.h"
   7:libDaisy//src/hid/encoder.h **** 
   8:libDaisy//src/hid/encoder.h **** namespace daisy
   9:libDaisy//src/hid/encoder.h **** {
  10:libDaisy//src/hid/encoder.h **** /** 
  11:libDaisy//src/hid/encoder.h ****     @brief Generic Class for handling Quadrature Encoders \n 
  12:libDaisy//src/hid/encoder.h ****     Inspired/influenced by Mutable Instruments (pichenettes) Encoder classes
  13:libDaisy//src/hid/encoder.h ****     @author Stephen Hensley
  14:libDaisy//src/hid/encoder.h ****     @date December 2019
  15:libDaisy//src/hid/encoder.h ****     @ingroup controls
  16:libDaisy//src/hid/encoder.h **** */
  17:libDaisy//src/hid/encoder.h **** class Encoder
  18:libDaisy//src/hid/encoder.h **** {
  19:libDaisy//src/hid/encoder.h ****   public:
  20:libDaisy//src/hid/encoder.h ****     Encoder() {}
  21:libDaisy//src/hid/encoder.h ****     ~Encoder() {}
  63              		.loc 5 21 5 is_stmt 1 view .LVU8
  64              	.LBB410:
  65              	.LBI410:
  66              		.file 6 "libDaisy//src/hid/switch.h"
   1:libDaisy//src/hid/switch.h **** #pragma once
   2:libDaisy//src/hid/switch.h **** #ifndef DSY_SWITCH_H
   3:libDaisy//src/hid/switch.h **** #define DSY_SWITCH_H
ARM GAS  /var/folders/z2/7_lhr9dn53s9tj4s0rwtyswm0000gn/T//ccRFfwbB.s 			page 9


   4:libDaisy//src/hid/switch.h **** #include "daisy_core.h"
   5:libDaisy//src/hid/switch.h **** #include "per/gpio.h"
   6:libDaisy//src/hid/switch.h **** #include "sys/system.h"
   7:libDaisy//src/hid/switch.h **** 
   8:libDaisy//src/hid/switch.h **** namespace daisy
   9:libDaisy//src/hid/switch.h **** {
  10:libDaisy//src/hid/switch.h **** /** 
  11:libDaisy//src/hid/switch.h ****     Generic Class for handling momentary/latching switches \n 
  12:libDaisy//src/hid/switch.h ****     Inspired/influenced by Mutable Instruments (pichenettes) Switch classes
  13:libDaisy//src/hid/switch.h ****     @author Stephen Hensley
  14:libDaisy//src/hid/switch.h ****     @date December 2019
  15:libDaisy//src/hid/switch.h ****     @ingroup controls
  16:libDaisy//src/hid/switch.h **** */
  17:libDaisy//src/hid/switch.h **** class Switch
  18:libDaisy//src/hid/switch.h **** {
  19:libDaisy//src/hid/switch.h ****   public:
  20:libDaisy//src/hid/switch.h ****     /** Specifies the expected behavior of the switch */
  21:libDaisy//src/hid/switch.h ****     enum Type
  22:libDaisy//src/hid/switch.h ****     {
  23:libDaisy//src/hid/switch.h ****         TYPE_TOGGLE,    /**< & */
  24:libDaisy//src/hid/switch.h ****         TYPE_MOMENTARY, /**< & */
  25:libDaisy//src/hid/switch.h ****     };
  26:libDaisy//src/hid/switch.h ****     /** Specifies whether the pressed is HIGH or LOW. */
  27:libDaisy//src/hid/switch.h ****     enum Polarity
  28:libDaisy//src/hid/switch.h ****     {
  29:libDaisy//src/hid/switch.h ****         POLARITY_NORMAL,   /**< & */
  30:libDaisy//src/hid/switch.h ****         POLARITY_INVERTED, /**< & */
  31:libDaisy//src/hid/switch.h ****     };
  32:libDaisy//src/hid/switch.h **** 
  33:libDaisy//src/hid/switch.h ****     /** Specifies whether to use built-in Pull Up/Down resistors to hold button at a given state wh
  34:libDaisy//src/hid/switch.h ****     enum Pull
  35:libDaisy//src/hid/switch.h ****     {
  36:libDaisy//src/hid/switch.h ****         PULL_UP,   /**< & */
  37:libDaisy//src/hid/switch.h ****         PULL_DOWN, /**< & */
  38:libDaisy//src/hid/switch.h ****         PULL_NONE, /**< & */
  39:libDaisy//src/hid/switch.h ****     };
  40:libDaisy//src/hid/switch.h **** 
  41:libDaisy//src/hid/switch.h ****     Switch() {}
  42:libDaisy//src/hid/switch.h ****     ~Switch() {}
  67              		.loc 6 42 5 view .LVU9
  68              		.loc 6 42 5 is_stmt 0 view .LVU10
  69              	.LBE410:
  70              	.LBE409:
  71              	.LBB411:
  72              	.LBI411:
  73              		.file 7 "libDaisy//src/daisy_seed.h"
   1:libDaisy//src/daisy_seed.h **** #pragma once
   2:libDaisy//src/daisy_seed.h **** #ifndef DSY_SEED_H
   3:libDaisy//src/daisy_seed.h **** #define DSY_SEED_H
   4:libDaisy//src/daisy_seed.h **** 
   5:libDaisy//src/daisy_seed.h **** #include "daisy.h"
   6:libDaisy//src/daisy_seed.h **** 
   7:libDaisy//src/daisy_seed.h **** //Uncomment this out if you're still using the rev2 hardware
   8:libDaisy//src/daisy_seed.h **** //#define SEED_REV2
   9:libDaisy//src/daisy_seed.h **** 
  10:libDaisy//src/daisy_seed.h **** namespace daisy
  11:libDaisy//src/daisy_seed.h **** {
ARM GAS  /var/folders/z2/7_lhr9dn53s9tj4s0rwtyswm0000gn/T//ccRFfwbB.s 			page 10


  12:libDaisy//src/daisy_seed.h **** /**
  13:libDaisy//src/daisy_seed.h ****    @brief This is the higher-level interface for the Daisy board. \n 
  14:libDaisy//src/daisy_seed.h ****     All basic peripheral configuration/initialization is setup here. \n
  15:libDaisy//src/daisy_seed.h **** 
  16:libDaisy//src/daisy_seed.h ****    @ingroup boards
  17:libDaisy//src/daisy_seed.h **** */
  18:libDaisy//src/daisy_seed.h **** class DaisySeed
  19:libDaisy//src/daisy_seed.h **** {
  20:libDaisy//src/daisy_seed.h ****   public:
  21:libDaisy//src/daisy_seed.h ****     DaisySeed() {}
  22:libDaisy//src/daisy_seed.h ****     ~DaisySeed() {}
  74              		.loc 7 22 5 is_stmt 1 view .LVU11
  75              	.LBB412:
  76              	.LBI412:
  77              		.file 8 "libDaisy//src/sys/system.h"
   1:libDaisy//src/sys/system.h **** #ifndef DSY_SYSTEM_H
   2:libDaisy//src/sys/system.h **** #define DSY_SYSTEM_H
   3:libDaisy//src/sys/system.h **** 
   4:libDaisy//src/sys/system.h **** #ifndef UNIT_TEST // for unit tests, a dummy implementation is provided below
   5:libDaisy//src/sys/system.h **** 
   6:libDaisy//src/sys/system.h **** #include <cstdint>
   7:libDaisy//src/sys/system.h **** #include "per/tim.h"
   8:libDaisy//src/sys/system.h **** 
   9:libDaisy//src/sys/system.h **** namespace daisy
  10:libDaisy//src/sys/system.h **** {
  11:libDaisy//src/sys/system.h **** /** A handle for interacting with the Core System. 
  12:libDaisy//src/sys/system.h ****  ** This includes the Clock tree, MPU, global DMA initialization,
  13:libDaisy//src/sys/system.h ****  ** cache handling, and any other necessary global initiailzation
  14:libDaisy//src/sys/system.h ****  **
  15:libDaisy//src/sys/system.h ****  ** @author shensley
  16:libDaisy//src/sys/system.h ****  ** @ingroup system
  17:libDaisy//src/sys/system.h ****  */
  18:libDaisy//src/sys/system.h **** class System
  19:libDaisy//src/sys/system.h **** {
  20:libDaisy//src/sys/system.h ****   public:
  21:libDaisy//src/sys/system.h ****     /** Contains settings for initializing the System */
  22:libDaisy//src/sys/system.h ****     struct Config
  23:libDaisy//src/sys/system.h ****     {
  24:libDaisy//src/sys/system.h ****         /** Specifies the system clock frequency that feeds APB/AHB clocks, etc. */
  25:libDaisy//src/sys/system.h ****         enum class SysClkFreq
  26:libDaisy//src/sys/system.h ****         {
  27:libDaisy//src/sys/system.h ****             FREQ_400MHZ,
  28:libDaisy//src/sys/system.h ****             FREQ_480MHZ,
  29:libDaisy//src/sys/system.h ****         };
  30:libDaisy//src/sys/system.h **** 
  31:libDaisy//src/sys/system.h ****         /** Method to call on the struct to set to defaults
  32:libDaisy//src/sys/system.h ****          ** CPU Freq set to 400MHz
  33:libDaisy//src/sys/system.h ****          ** Cache Enabled 
  34:libDaisy//src/sys/system.h ****          ** */
  35:libDaisy//src/sys/system.h ****         void Defaults()
  36:libDaisy//src/sys/system.h ****         {
  37:libDaisy//src/sys/system.h ****             cpu_freq    = SysClkFreq::FREQ_400MHZ;
  38:libDaisy//src/sys/system.h ****             use_dcache  = true;
  39:libDaisy//src/sys/system.h ****             use_icache  = true;
  40:libDaisy//src/sys/system.h ****             skip_clocks = false;
  41:libDaisy//src/sys/system.h ****         }
  42:libDaisy//src/sys/system.h **** 
ARM GAS  /var/folders/z2/7_lhr9dn53s9tj4s0rwtyswm0000gn/T//ccRFfwbB.s 			page 11


  43:libDaisy//src/sys/system.h ****         /** Method to call on the struct to set to boost mode:
  44:libDaisy//src/sys/system.h ****          ** CPU Freq set to 480MHz
  45:libDaisy//src/sys/system.h ****          ** Cache Enabled 
  46:libDaisy//src/sys/system.h ****          ** */
  47:libDaisy//src/sys/system.h ****         void Boost()
  48:libDaisy//src/sys/system.h ****         {
  49:libDaisy//src/sys/system.h ****             cpu_freq    = SysClkFreq::FREQ_480MHZ;
  50:libDaisy//src/sys/system.h ****             use_dcache  = true;
  51:libDaisy//src/sys/system.h ****             use_icache  = true;
  52:libDaisy//src/sys/system.h ****             skip_clocks = false;
  53:libDaisy//src/sys/system.h ****         }
  54:libDaisy//src/sys/system.h **** 
  55:libDaisy//src/sys/system.h ****         SysClkFreq cpu_freq;
  56:libDaisy//src/sys/system.h ****         bool       use_dcache;
  57:libDaisy//src/sys/system.h ****         bool       use_icache;
  58:libDaisy//src/sys/system.h ****         bool       skip_clocks;
  59:libDaisy//src/sys/system.h ****     };
  60:libDaisy//src/sys/system.h **** 
  61:libDaisy//src/sys/system.h ****     /** Describes the different regions of memory available to the Daisy
  62:libDaisy//src/sys/system.h ****      * 
  63:libDaisy//src/sys/system.h ****      */
  64:libDaisy//src/sys/system.h ****     enum MemoryRegion
  65:libDaisy//src/sys/system.h ****     {
  66:libDaisy//src/sys/system.h ****         INTERNAL_FLASH = 0,
  67:libDaisy//src/sys/system.h ****         ITCMRAM,
  68:libDaisy//src/sys/system.h ****         DTCMRAM,
  69:libDaisy//src/sys/system.h ****         SRAM_D1,
  70:libDaisy//src/sys/system.h ****         SRAM_D2,
  71:libDaisy//src/sys/system.h ****         SRAM_D3,
  72:libDaisy//src/sys/system.h ****         SDRAM,
  73:libDaisy//src/sys/system.h ****         QSPI,
  74:libDaisy//src/sys/system.h ****         INVALID_ADDRESS,
  75:libDaisy//src/sys/system.h ****     };
  76:libDaisy//src/sys/system.h **** 
  77:libDaisy//src/sys/system.h ****     System() {}
  78:libDaisy//src/sys/system.h ****     ~System() {}
  78              		.loc 8 78 5 view .LVU12
  79              		.loc 8 78 5 is_stmt 0 view .LVU13
  80              	.LBE412:
  81              	.LBB413:
  82              	.LBI413:
  83              		.file 9 "libDaisy//src/hid/usb.h"
   1:libDaisy//src/hid/usb.h **** #pragma once
   2:libDaisy//src/hid/usb.h **** #ifndef DSY_HID_USB_H
   3:libDaisy//src/hid/usb.h **** #define DSY_HID_USB_H
   4:libDaisy//src/hid/usb.h **** #include <stdint.h>
   5:libDaisy//src/hid/usb.h **** #include <stdlib.h>
   6:libDaisy//src/hid/usb.h **** 
   7:libDaisy//src/hid/usb.h **** namespace daisy
   8:libDaisy//src/hid/usb.h **** /** @addtogroup human_interface
   9:libDaisy//src/hid/usb.h ****     @{
  10:libDaisy//src/hid/usb.h **** */
  11:libDaisy//src/hid/usb.h **** 
  12:libDaisy//src/hid/usb.h **** {
  13:libDaisy//src/hid/usb.h **** /** 
  14:libDaisy//src/hid/usb.h ****     @brief Interface for initializing and using the USB Peripherals on the daisy
  15:libDaisy//src/hid/usb.h ****     @author Stephen Hensley
ARM GAS  /var/folders/z2/7_lhr9dn53s9tj4s0rwtyswm0000gn/T//ccRFfwbB.s 			page 12


  16:libDaisy//src/hid/usb.h ****     @date December 2019
  17:libDaisy//src/hid/usb.h **** */
  18:libDaisy//src/hid/usb.h **** class UsbHandle
  19:libDaisy//src/hid/usb.h **** {
  20:libDaisy//src/hid/usb.h ****   public:
  21:libDaisy//src/hid/usb.h ****     /** Return values for USBHandle Functions */
  22:libDaisy//src/hid/usb.h ****     enum class Result
  23:libDaisy//src/hid/usb.h ****     {
  24:libDaisy//src/hid/usb.h ****         OK,
  25:libDaisy//src/hid/usb.h ****         ERR,
  26:libDaisy//src/hid/usb.h ****     };
  27:libDaisy//src/hid/usb.h **** 
  28:libDaisy//src/hid/usb.h ****     /** Specified which of the two USB Peripherals to initialize. */
  29:libDaisy//src/hid/usb.h ****     enum UsbPeriph
  30:libDaisy//src/hid/usb.h ****     {
  31:libDaisy//src/hid/usb.h ****         FS_INTERNAL, /**< Internal pin */
  32:libDaisy//src/hid/usb.h ****         FS_EXTERNAL, /**< FS External D+ pin is Pin 38 (GPIO32). FS External D- pin is Pin 37 (GPIO
  33:libDaisy//src/hid/usb.h ****         FS_BOTH,     /**< Both */
  34:libDaisy//src/hid/usb.h ****     };
  35:libDaisy//src/hid/usb.h **** 
  36:libDaisy//src/hid/usb.h **** 
  37:libDaisy//src/hid/usb.h ****     /** Function called upon reception of a buffer */
  38:libDaisy//src/hid/usb.h ****     typedef void (*ReceiveCallback)(uint8_t* buff, uint32_t* len);
  39:libDaisy//src/hid/usb.h **** 
  40:libDaisy//src/hid/usb.h ****     UsbHandle() {}
  41:libDaisy//src/hid/usb.h **** 
  42:libDaisy//src/hid/usb.h ****     ~UsbHandle() {}
  84              		.loc 9 42 5 is_stmt 1 view .LVU14
  85              		.loc 9 42 5 is_stmt 0 view .LVU15
  86              	.LBE413:
  87              	.LBB414:
  88              	.LBI414:
  89              		.file 10 "libDaisy//src/per/adc.h"
   1:libDaisy//src/per/adc.h **** #pragma once
   2:libDaisy//src/per/adc.h **** #ifndef DSY_ADC_H
   3:libDaisy//src/per/adc.h **** #define DSY_ADC_H /**< Macro */
   4:libDaisy//src/per/adc.h **** #include <stdint.h>
   5:libDaisy//src/per/adc.h **** #include <stdlib.h>
   6:libDaisy//src/per/adc.h **** #include "daisy_core.h"
   7:libDaisy//src/per/adc.h **** #include "per/gpio.h"
   8:libDaisy//src/per/adc.h **** 
   9:libDaisy//src/per/adc.h **** #define DSY_ADC_MAX_CHANNELS 16 /**< Maximum number of ADC channels */
  10:libDaisy//src/per/adc.h **** 
  11:libDaisy//src/per/adc.h **** namespace daisy
  12:libDaisy//src/per/adc.h **** {
  13:libDaisy//src/per/adc.h **** /** @addtogroup per_analog
  14:libDaisy//src/per/adc.h ****     @{
  15:libDaisy//src/per/adc.h **** */
  16:libDaisy//src/per/adc.h **** 
  17:libDaisy//src/per/adc.h **** /* While there may not be many configuration options here,
  18:libDaisy//src/per/adc.h **** using a struct like this allows us to add more configuration
  19:libDaisy//src/per/adc.h **** later without breaking existing functionality.
  20:libDaisy//src/per/adc.h **** */
  21:libDaisy//src/per/adc.h **** 
  22:libDaisy//src/per/adc.h **** /** @brief   Configuration Structure for an ADC Channel 
  23:libDaisy//src/per/adc.h ****  *  @details This can be used to configure a a single input, 
  24:libDaisy//src/per/adc.h ****  *           or a multiplexed input, allowing up to 8 inputs on 
ARM GAS  /var/folders/z2/7_lhr9dn53s9tj4s0rwtyswm0000gn/T//ccRFfwbB.s 			page 13


  25:libDaisy//src/per/adc.h ****  *           one channel.
  26:libDaisy//src/per/adc.h ****  *  @note    Sharing data lines to multiple muxes _is_ possible, but
  27:libDaisy//src/per/adc.h ****  *           each channel sharing data lines must be set to the maximum
  28:libDaisy//src/per/adc.h ****  *           number of channels, even if some multiplexers have fewer
  29:libDaisy//src/per/adc.h ****  *           inputs connected.
  30:libDaisy//src/per/adc.h **** */
  31:libDaisy//src/per/adc.h **** struct AdcChannelConfig
  32:libDaisy//src/per/adc.h **** {
  33:libDaisy//src/per/adc.h ****     /** Which pin to use for multiplexing */
  34:libDaisy//src/per/adc.h ****     enum MuxPin
  35:libDaisy//src/per/adc.h ****     {
  36:libDaisy//src/per/adc.h ****         MUX_SEL_0,    /**< & */
  37:libDaisy//src/per/adc.h ****         MUX_SEL_1,    /**< & */
  38:libDaisy//src/per/adc.h ****         MUX_SEL_2,    /**< & */
  39:libDaisy//src/per/adc.h ****         MUX_SEL_LAST, /**< & */
  40:libDaisy//src/per/adc.h ****     };
  41:libDaisy//src/per/adc.h **** 
  42:libDaisy//src/per/adc.h ****     /** Initializes a single ADC pin as an ADC. 
  43:libDaisy//src/per/adc.h ****     \param pin Pin to init.
  44:libDaisy//src/per/adc.h ****      */
  45:libDaisy//src/per/adc.h ****     void InitSingle(dsy_gpio_pin pin);
  46:libDaisy//src/per/adc.h **** 
  47:libDaisy//src/per/adc.h ****     /** 
  48:libDaisy//src/per/adc.h ****     Initializes a single ADC pin as a Multiplexed ADC.
  49:libDaisy//src/per/adc.h ****     Requires a CD405X Multiplexer connected to the pin.
  50:libDaisy//src/per/adc.h ****     You only need to supply the mux pins that are required,
  51:libDaisy//src/per/adc.h ****     e.g. a 4052 mux would only require mux_0 and mux_1.
  52:libDaisy//src/per/adc.h ****     Internal Callbacks handle the pin addressing.
  53:libDaisy//src/per/adc.h ****     \param mux_channels must be 1-8
  54:libDaisy//src/per/adc.h ****     \param mux_0 First mux pin
  55:libDaisy//src/per/adc.h ****     \param mux_1 Second mux pin
  56:libDaisy//src/per/adc.h ****     \param mux_2 Third mux pin
  57:libDaisy//src/per/adc.h ****     \param adc_pin &
  58:libDaisy//src/per/adc.h ****     */
  59:libDaisy//src/per/adc.h ****     void InitMux(dsy_gpio_pin adc_pin,
  60:libDaisy//src/per/adc.h ****                  size_t       mux_channels,
  61:libDaisy//src/per/adc.h ****                  dsy_gpio_pin mux_0,
  62:libDaisy//src/per/adc.h ****                  dsy_gpio_pin mux_1 = {DSY_GPIOX, 0},
  63:libDaisy//src/per/adc.h ****                  dsy_gpio_pin mux_2 = {DSY_GPIOX, 0});
  64:libDaisy//src/per/adc.h **** 
  65:libDaisy//src/per/adc.h ****     dsy_gpio pin_;                   /**< & */
  66:libDaisy//src/per/adc.h ****     dsy_gpio mux_pin_[MUX_SEL_LAST]; /**< & */
  67:libDaisy//src/per/adc.h ****     uint8_t  mux_channels_;          /**< & */
  68:libDaisy//src/per/adc.h **** };
  69:libDaisy//src/per/adc.h **** 
  70:libDaisy//src/per/adc.h **** /**
  71:libDaisy//src/per/adc.h ****    @brief Handler for analog to digital conversion
  72:libDaisy//src/per/adc.h **** */
  73:libDaisy//src/per/adc.h **** class AdcHandle
  74:libDaisy//src/per/adc.h **** {
  75:libDaisy//src/per/adc.h ****   public:
  76:libDaisy//src/per/adc.h ****     /** Supported oversampling amounts */
  77:libDaisy//src/per/adc.h ****     enum OverSampling
  78:libDaisy//src/per/adc.h ****     {
  79:libDaisy//src/per/adc.h ****         OVS_NONE, /**< & */
  80:libDaisy//src/per/adc.h ****         OVS_4,    /**< & */
  81:libDaisy//src/per/adc.h ****         OVS_8,    /**< & */
ARM GAS  /var/folders/z2/7_lhr9dn53s9tj4s0rwtyswm0000gn/T//ccRFfwbB.s 			page 14


  82:libDaisy//src/per/adc.h ****         OVS_16,   /**< & */
  83:libDaisy//src/per/adc.h ****         OVS_32,   /**< & */
  84:libDaisy//src/per/adc.h ****         OVS_64,   /**< & */
  85:libDaisy//src/per/adc.h ****         OVS_128,  /**< & */
  86:libDaisy//src/per/adc.h ****         OVS_256,  /**< & */
  87:libDaisy//src/per/adc.h ****         OVS_512,  /**< & */
  88:libDaisy//src/per/adc.h ****         OVS_1024, /**< & */
  89:libDaisy//src/per/adc.h ****         OVS_LAST, /**< & */
  90:libDaisy//src/per/adc.h ****     };
  91:libDaisy//src/per/adc.h **** 
  92:libDaisy//src/per/adc.h ****     AdcHandle() {}
  93:libDaisy//src/per/adc.h ****     ~AdcHandle() {}
  90              		.loc 10 93 5 is_stmt 1 view .LVU16
  91              		.loc 10 93 5 is_stmt 0 view .LVU17
  92              	.LBE414:
  93              	.LBB415:
  94              	.LBI415:
  95              		.file 11 "libDaisy//src/hid/audio.h"
   1:libDaisy//src/hid/audio.h **** #ifndef DSY_AUDIO_H
   2:libDaisy//src/hid/audio.h **** #define DSY_AUDIO_H /**< & */
   3:libDaisy//src/hid/audio.h **** 
   4:libDaisy//src/hid/audio.h **** #include "per/sai.h"
   5:libDaisy//src/hid/audio.h **** 
   6:libDaisy//src/hid/audio.h **** namespace daisy
   7:libDaisy//src/hid/audio.h **** {
   8:libDaisy//src/hid/audio.h **** /** @brief Audio Engine Handle
   9:libDaisy//src/hid/audio.h ****  *  @ingroup audio 
  10:libDaisy//src/hid/audio.h ****  *  @details This class allows for higher level access to an audio engine.
  11:libDaisy//src/hid/audio.h ****  *           If you're using a SOM like the DaisySeed or DaisyPatchSM (or any 
  12:libDaisy//src/hid/audio.h ****  *            board that includes one of those objects) then the intialization
  13:libDaisy//src/hid/audio.h ****  *            is already taken  care of.
  14:libDaisy//src/hid/audio.h ****  *           If you're setting up your own custom hardware, or need to make changes
  15:libDaisy//src/hid/audio.h ****  *           you will have to take the following steps:
  16:libDaisy//src/hid/audio.h ****  *             1. Create and Initialize an SaiHandle or two depending on your requirements
  17:libDaisy//src/hid/audio.h ****  *             2. Initialize the Audio Handle with the desired settings and the Initialized SaiHand
  18:libDaisy//src/hid/audio.h ****  *             3. If the connected codec requires special configuration or initialization, do so
  19:libDaisy//src/hid/audio.h ****  *             4. Write a callback method using either the AudioCallback or the InterleavingAudioCa
  20:libDaisy//src/hid/audio.h ****  *             5. Start the Audio using one of the StartAudio function
  21:libDaisy//src/hid/audio.h ****  */
  22:libDaisy//src/hid/audio.h **** class AudioHandle
  23:libDaisy//src/hid/audio.h **** {
  24:libDaisy//src/hid/audio.h ****   public:
  25:libDaisy//src/hid/audio.h ****     /** Manually configurable details about the Audio Engine */
  26:libDaisy//src/hid/audio.h ****     /** TODO: Figure out how to get samplerate in here. */
  27:libDaisy//src/hid/audio.h ****     struct Config
  28:libDaisy//src/hid/audio.h ****     {
  29:libDaisy//src/hid/audio.h ****         /** number of samples to process per callback */
  30:libDaisy//src/hid/audio.h ****         size_t blocksize;
  31:libDaisy//src/hid/audio.h **** 
  32:libDaisy//src/hid/audio.h ****         /**< Sample rate of audio */
  33:libDaisy//src/hid/audio.h ****         SaiHandle::Config::SampleRate samplerate;
  34:libDaisy//src/hid/audio.h **** 
  35:libDaisy//src/hid/audio.h ****         /** factor for adjustment before and after callback for hardware that may have extra headro
  36:libDaisy//src/hid/audio.h ****         float postgain;
  37:libDaisy//src/hid/audio.h **** 
  38:libDaisy//src/hid/audio.h ****         /** factor for additional one-sided compensation to audio path for hardware that may
  39:libDaisy//src/hid/audio.h ****          *  have unequal input/output ranges
ARM GAS  /var/folders/z2/7_lhr9dn53s9tj4s0rwtyswm0000gn/T//ccRFfwbB.s 			page 15


  40:libDaisy//src/hid/audio.h ****          */
  41:libDaisy//src/hid/audio.h ****         float output_compensation;
  42:libDaisy//src/hid/audio.h **** 
  43:libDaisy//src/hid/audio.h ****         /** Sets default values for config struct */
  44:libDaisy//src/hid/audio.h ****         Config()
  45:libDaisy//src/hid/audio.h ****         : blocksize(48),
  46:libDaisy//src/hid/audio.h ****           samplerate(SaiHandle::Config::SampleRate::SAI_48KHZ),
  47:libDaisy//src/hid/audio.h ****           postgain(1.f),
  48:libDaisy//src/hid/audio.h ****           output_compensation(1.f)
  49:libDaisy//src/hid/audio.h ****         {
  50:libDaisy//src/hid/audio.h ****         }
  51:libDaisy//src/hid/audio.h ****     };
  52:libDaisy//src/hid/audio.h **** 
  53:libDaisy//src/hid/audio.h ****     enum class Result
  54:libDaisy//src/hid/audio.h ****     {
  55:libDaisy//src/hid/audio.h ****         OK,
  56:libDaisy//src/hid/audio.h ****         ERR,
  57:libDaisy//src/hid/audio.h ****     };
  58:libDaisy//src/hid/audio.h **** 
  59:libDaisy//src/hid/audio.h ****     /** Non-Interleaving input buffer
  60:libDaisy//src/hid/audio.h ****      * Buffer arranged by float[chn][sample] 
  61:libDaisy//src/hid/audio.h ****      * const so that the user can't modify the input
  62:libDaisy//src/hid/audio.h ****      */
  63:libDaisy//src/hid/audio.h ****     typedef const float* const* InputBuffer;
  64:libDaisy//src/hid/audio.h **** 
  65:libDaisy//src/hid/audio.h ****     /** Non-Interleaving output buffer
  66:libDaisy//src/hid/audio.h ****      * Arranged by float[chn][sample] 
  67:libDaisy//src/hid/audio.h ****      */
  68:libDaisy//src/hid/audio.h ****     typedef float** OutputBuffer;
  69:libDaisy//src/hid/audio.h **** 
  70:libDaisy//src/hid/audio.h ****     /** Type for a Non-Interleaving audio callback 
  71:libDaisy//src/hid/audio.h ****      * Non-Interleaving audio callbacks in daisy will be of this type
  72:libDaisy//src/hid/audio.h ****      */
  73:libDaisy//src/hid/audio.h ****     typedef void (*AudioCallback)(InputBuffer  in,
  74:libDaisy//src/hid/audio.h ****                                   OutputBuffer out,
  75:libDaisy//src/hid/audio.h ****                                   size_t       size);
  76:libDaisy//src/hid/audio.h **** 
  77:libDaisy//src/hid/audio.h ****     /** Interleaving Input buffer
  78:libDaisy//src/hid/audio.h ****      ** audio is prepared as { L0, R0, L1, R1, . . . LN, RN }]
  79:libDaisy//src/hid/audio.h ****      ** this is const, as the user shouldn't modify it
  80:libDaisy//src/hid/audio.h ****     */
  81:libDaisy//src/hid/audio.h ****     typedef const float* InterleavingInputBuffer;
  82:libDaisy//src/hid/audio.h **** 
  83:libDaisy//src/hid/audio.h ****     /** Interleaving Output buffer 
  84:libDaisy//src/hid/audio.h ****      ** audio is prepared as { L0, R0, L1, R1, . . . LN, RN }
  85:libDaisy//src/hid/audio.h ****     */
  86:libDaisy//src/hid/audio.h ****     typedef float* InterleavingOutputBuffer;
  87:libDaisy//src/hid/audio.h **** 
  88:libDaisy//src/hid/audio.h ****     /** Interleaving Audio Callback 
  89:libDaisy//src/hid/audio.h ****      * Interleaving audio callbacks in daisy must be of this type
  90:libDaisy//src/hid/audio.h ****      */
  91:libDaisy//src/hid/audio.h ****     typedef void (*InterleavingAudioCallback)(InterleavingInputBuffer  in,
  92:libDaisy//src/hid/audio.h ****                                               InterleavingOutputBuffer out,
  93:libDaisy//src/hid/audio.h ****                                               size_t                   size);
  94:libDaisy//src/hid/audio.h **** 
  95:libDaisy//src/hid/audio.h ****     AudioHandle() : pimpl_(nullptr) {}
  96:libDaisy//src/hid/audio.h ****     ~AudioHandle() {}
ARM GAS  /var/folders/z2/7_lhr9dn53s9tj4s0rwtyswm0000gn/T//ccRFfwbB.s 			page 16


  96              		.loc 11 96 5 is_stmt 1 view .LVU18
  97              		.loc 11 96 5 is_stmt 0 view .LVU19
  98              	.LBE415:
  99              	.LBE411:
 100              		.loc 1 41 20 view .LVU20
 101 0000 7047     		bx	lr
 102              		.cfi_endproc
 103              	.LFE2590:
 105              		.weak	_ZN5daisy10DaisyPatchD1Ev
 106              		.thumb_set _ZN5daisy10DaisyPatchD1Ev,_ZN5daisy10DaisyPatchD2Ev
 107 0002 00BF     		.section	.text._ZN5daisy11OledDisplayINS_13SSD130xDriverILj128ELj64ENS_24SSD130x4WireSpiTransportE
 108              		.align	1
 109              		.p2align 2,,3
 110              		.weak	_ZN5daisy11OledDisplayINS_13SSD130xDriverILj128ELj64ENS_24SSD130x4WireSpiTransportEEEED2Ev
 111              		.syntax unified
 112              		.thumb
 113              		.thumb_func
 115              	_ZN5daisy11OledDisplayINS_13SSD130xDriverILj128ELj64ENS_24SSD130x4WireSpiTransportEEEED2Ev:
 116              	.LVL1:
 117              	.LFB4881:
 118              		.loc 2 18 13 is_stmt 1 view -0
 119              		.cfi_startproc
 120              		@ args = 0, pretend = 0, frame = 0
 121              		@ frame_needed = 0, uses_anonymous_args = 0
 122              		@ link register save eliminated.
 123              	.LBB416:
 124              	.LBI416:
 125              		.loc 3 219 13 view .LVU22
 126              	.LBB417:
 127              	.LBI417:
  23:libDaisy//src/hid/disp/display.h **** 
 128              		.loc 3 23 13 view .LVU23
  23:libDaisy//src/hid/disp/display.h **** 
 129              		.loc 3 23 13 is_stmt 0 view .LVU24
 130              	.LBE417:
 131              	.LBE416:
 132              		.loc 2 18 29 view .LVU25
 133 0000 7047     		bx	lr
 134              		.cfi_endproc
 135              	.LFE4881:
 137              		.weak	_ZN5daisy11OledDisplayINS_13SSD130xDriverILj128ELj64ENS_24SSD130x4WireSpiTransportEEEED1Ev
 138              		.thumb_set _ZN5daisy11OledDisplayINS_13SSD130xDriverILj128ELj64ENS_24SSD130x4WireSpiTransportEEEED
 139 0002 00BF     		.section	.text._ZNK5daisy11OledDisplayINS_13SSD130xDriverILj128ELj64ENS_24SSD130x4WireSpiTransport
 140              		.align	1
 141              		.p2align 2,,3
 142              		.weak	_ZNK5daisy11OledDisplayINS_13SSD130xDriverILj128ELj64ENS_24SSD130x4WireSpiTransportEEEE6Heig
 143              		.syntax unified
 144              		.thumb
 145              		.thumb_func
 147              	_ZNK5daisy11OledDisplayINS_13SSD130xDriverILj128ELj64ENS_24SSD130x4WireSpiTransportEEEE6HeightEv:
 148              	.LVL2:
 149              	.LFB5444:
  19:libDaisy//src/hid/disp/oled_display.h **** 
  20:libDaisy//src/hid/disp/oled_display.h ****     struct Config
  21:libDaisy//src/hid/disp/oled_display.h ****     {
  22:libDaisy//src/hid/disp/oled_display.h ****         typename DisplayDriver::Config driver_config;
  23:libDaisy//src/hid/disp/oled_display.h ****     };
ARM GAS  /var/folders/z2/7_lhr9dn53s9tj4s0rwtyswm0000gn/T//ccRFfwbB.s 			page 17


  24:libDaisy//src/hid/disp/oled_display.h **** 
  25:libDaisy//src/hid/disp/oled_display.h ****     void Init(Config config) { driver_.Init(config.driver_config); }
  26:libDaisy//src/hid/disp/oled_display.h **** 
  27:libDaisy//src/hid/disp/oled_display.h ****     uint16_t Height() const override { return driver_.Height(); }
 150              		.loc 2 27 14 is_stmt 1 view -0
 151              		.cfi_startproc
 152              		@ args = 0, pretend = 0, frame = 0
 153              		@ frame_needed = 0, uses_anonymous_args = 0
 154              		@ link register save eliminated.
 155              		.loc 2 27 65 is_stmt 0 view .LVU27
 156 0000 4020     		movs	r0, #64
 157              	.LVL3:
 158              		.loc 2 27 65 view .LVU28
 159 0002 7047     		bx	lr
 160              		.cfi_endproc
 161              	.LFE5444:
 163              		.section	.text._ZNK5daisy11OledDisplayINS_13SSD130xDriverILj128ELj64ENS_24SSD130x4WireSpiTransport
 164              		.align	1
 165              		.p2align 2,,3
 166              		.weak	_ZNK5daisy11OledDisplayINS_13SSD130xDriverILj128ELj64ENS_24SSD130x4WireSpiTransportEEEE5Widt
 167              		.syntax unified
 168              		.thumb
 169              		.thumb_func
 171              	_ZNK5daisy11OledDisplayINS_13SSD130xDriverILj128ELj64ENS_24SSD130x4WireSpiTransportEEEE5WidthEv:
 172              	.LVL4:
 173              	.LFB5445:
  28:libDaisy//src/hid/disp/oled_display.h ****     uint16_t Width() const override { return driver_.Width(); }
 174              		.loc 2 28 14 is_stmt 1 view -0
 175              		.cfi_startproc
 176              		@ args = 0, pretend = 0, frame = 0
 177              		@ frame_needed = 0, uses_anonymous_args = 0
 178              		@ link register save eliminated.
 179              		.loc 2 28 63 is_stmt 0 view .LVU30
 180 0000 8020     		movs	r0, #128
 181              	.LVL5:
 182              		.loc 2 28 63 view .LVU31
 183 0002 7047     		bx	lr
 184              		.cfi_endproc
 185              	.LFE5445:
 187              		.section	.text._ZN5daisy11OledDisplayINS_13SSD130xDriverILj128ELj64ENS_24SSD130x4WireSpiTransportE
 188              		.align	1
 189              		.p2align 2,,3
 190              		.weak	_ZN5daisy11OledDisplayINS_13SSD130xDriverILj128ELj64ENS_24SSD130x4WireSpiTransportEEEE4FillE
 191              		.syntax unified
 192              		.thumb
 193              		.thumb_func
 195              	_ZN5daisy11OledDisplayINS_13SSD130xDriverILj128ELj64ENS_24SSD130x4WireSpiTransportEEEE4FillEb:
 196              	.LVL6:
 197              	.LFB5446:
  29:libDaisy//src/hid/disp/oled_display.h **** 
  30:libDaisy//src/hid/disp/oled_display.h ****     /** 
  31:libDaisy//src/hid/disp/oled_display.h ****     Fills the entire display with either on/off.
  32:libDaisy//src/hid/disp/oled_display.h ****     \param on Sets on or off.
  33:libDaisy//src/hid/disp/oled_display.h ****     */
  34:libDaisy//src/hid/disp/oled_display.h ****     void Fill(bool on) override { driver_.Fill(on); }
 198              		.loc 2 34 10 is_stmt 1 view -0
 199              		.cfi_startproc
ARM GAS  /var/folders/z2/7_lhr9dn53s9tj4s0rwtyswm0000gn/T//ccRFfwbB.s 			page 18


 200              		@ args = 0, pretend = 0, frame = 0
 201              		@ frame_needed = 0, uses_anonymous_args = 0
 202              		@ link register save eliminated.
 203              	.LBB418:
 204              	.LBI418:
 205              		.file 12 "libDaisy//src/dev/oled_ssd130x.h"
   1:libDaisy//src/dev/oled_ssd130x.h **** #pragma once
   2:libDaisy//src/dev/oled_ssd130x.h **** #ifndef SA_OLED_SSD130X_H
   3:libDaisy//src/dev/oled_ssd130x.h **** #define SA_OLED_SSD130X_H /**< & */
   4:libDaisy//src/dev/oled_ssd130x.h **** 
   5:libDaisy//src/dev/oled_ssd130x.h **** #include "per/i2c.h"
   6:libDaisy//src/dev/oled_ssd130x.h **** #include "per/spi.h"
   7:libDaisy//src/dev/oled_ssd130x.h **** #include "per/gpio.h"
   8:libDaisy//src/dev/oled_ssd130x.h **** #include "sys/system.h"
   9:libDaisy//src/dev/oled_ssd130x.h **** 
  10:libDaisy//src/dev/oled_ssd130x.h **** namespace daisy
  11:libDaisy//src/dev/oled_ssd130x.h **** {
  12:libDaisy//src/dev/oled_ssd130x.h **** /**
  13:libDaisy//src/dev/oled_ssd130x.h ****  * I2C Transport for SSD1306 / SSD1309 OLED display devices
  14:libDaisy//src/dev/oled_ssd130x.h ****  */
  15:libDaisy//src/dev/oled_ssd130x.h **** class SSD130xI2CTransport
  16:libDaisy//src/dev/oled_ssd130x.h **** {
  17:libDaisy//src/dev/oled_ssd130x.h ****   public:
  18:libDaisy//src/dev/oled_ssd130x.h ****     struct Config
  19:libDaisy//src/dev/oled_ssd130x.h ****     {
  20:libDaisy//src/dev/oled_ssd130x.h ****         Config()
  21:libDaisy//src/dev/oled_ssd130x.h ****         {
  22:libDaisy//src/dev/oled_ssd130x.h ****             // Intialize using defaults
  23:libDaisy//src/dev/oled_ssd130x.h ****             Defaults();
  24:libDaisy//src/dev/oled_ssd130x.h ****         }
  25:libDaisy//src/dev/oled_ssd130x.h ****         I2CHandle::Config i2c_config;
  26:libDaisy//src/dev/oled_ssd130x.h ****         uint8_t           i2c_address;
  27:libDaisy//src/dev/oled_ssd130x.h ****         void              Defaults()
  28:libDaisy//src/dev/oled_ssd130x.h ****         {
  29:libDaisy//src/dev/oled_ssd130x.h ****             i2c_config.periph         = I2CHandle::Config::Peripheral::I2C_1;
  30:libDaisy//src/dev/oled_ssd130x.h ****             i2c_config.speed          = I2CHandle::Config::Speed::I2C_1MHZ;
  31:libDaisy//src/dev/oled_ssd130x.h ****             i2c_config.mode           = I2CHandle::Config::Mode::I2C_MASTER;
  32:libDaisy//src/dev/oled_ssd130x.h ****             i2c_config.pin_config.scl = {DSY_GPIOB, 8};
  33:libDaisy//src/dev/oled_ssd130x.h ****             i2c_config.pin_config.sda = {DSY_GPIOB, 9};
  34:libDaisy//src/dev/oled_ssd130x.h ****             i2c_address               = 0x3C;
  35:libDaisy//src/dev/oled_ssd130x.h ****         }
  36:libDaisy//src/dev/oled_ssd130x.h ****     };
  37:libDaisy//src/dev/oled_ssd130x.h ****     void Init(const Config& config)
  38:libDaisy//src/dev/oled_ssd130x.h ****     {
  39:libDaisy//src/dev/oled_ssd130x.h ****         i2c_address_ = config.i2c_address;
  40:libDaisy//src/dev/oled_ssd130x.h ****         i2c_.Init(config.i2c_config);
  41:libDaisy//src/dev/oled_ssd130x.h ****     };
  42:libDaisy//src/dev/oled_ssd130x.h ****     void SendCommand(uint8_t cmd)
  43:libDaisy//src/dev/oled_ssd130x.h ****     {
  44:libDaisy//src/dev/oled_ssd130x.h ****         uint8_t buf[2] = {0X00, cmd};
  45:libDaisy//src/dev/oled_ssd130x.h ****         i2c_.TransmitBlocking(i2c_address_, buf, 2, 1000);
  46:libDaisy//src/dev/oled_ssd130x.h ****     };
  47:libDaisy//src/dev/oled_ssd130x.h **** 
  48:libDaisy//src/dev/oled_ssd130x.h ****     void SendData(uint8_t* buff, size_t size)
  49:libDaisy//src/dev/oled_ssd130x.h ****     {
  50:libDaisy//src/dev/oled_ssd130x.h ****         for(size_t i = 0; i < size; i++)
  51:libDaisy//src/dev/oled_ssd130x.h ****         {
ARM GAS  /var/folders/z2/7_lhr9dn53s9tj4s0rwtyswm0000gn/T//ccRFfwbB.s 			page 19


  52:libDaisy//src/dev/oled_ssd130x.h ****             uint8_t buf[2] = {0X40, buff[i]};
  53:libDaisy//src/dev/oled_ssd130x.h ****             i2c_.TransmitBlocking(i2c_address_, buf, 2, 1000);
  54:libDaisy//src/dev/oled_ssd130x.h ****         }
  55:libDaisy//src/dev/oled_ssd130x.h ****     };
  56:libDaisy//src/dev/oled_ssd130x.h **** 
  57:libDaisy//src/dev/oled_ssd130x.h ****   private:
  58:libDaisy//src/dev/oled_ssd130x.h ****     daisy::I2CHandle i2c_;
  59:libDaisy//src/dev/oled_ssd130x.h ****     uint8_t          i2c_address_;
  60:libDaisy//src/dev/oled_ssd130x.h **** };
  61:libDaisy//src/dev/oled_ssd130x.h **** 
  62:libDaisy//src/dev/oled_ssd130x.h **** /**
  63:libDaisy//src/dev/oled_ssd130x.h ****  * 4 Wire SPI Transport for SSD1306 / SSD1309 OLED display devices
  64:libDaisy//src/dev/oled_ssd130x.h ****  */
  65:libDaisy//src/dev/oled_ssd130x.h **** class SSD130x4WireSpiTransport
  66:libDaisy//src/dev/oled_ssd130x.h **** {
  67:libDaisy//src/dev/oled_ssd130x.h ****   public:
  68:libDaisy//src/dev/oled_ssd130x.h ****     struct Config
  69:libDaisy//src/dev/oled_ssd130x.h ****     {
  70:libDaisy//src/dev/oled_ssd130x.h ****         Config()
  71:libDaisy//src/dev/oled_ssd130x.h ****         {
  72:libDaisy//src/dev/oled_ssd130x.h ****             // Initialize using defaults
  73:libDaisy//src/dev/oled_ssd130x.h ****             Defaults();
  74:libDaisy//src/dev/oled_ssd130x.h ****         }
  75:libDaisy//src/dev/oled_ssd130x.h ****         SpiHandle::Config spi_config;
  76:libDaisy//src/dev/oled_ssd130x.h ****         struct
  77:libDaisy//src/dev/oled_ssd130x.h ****         {
  78:libDaisy//src/dev/oled_ssd130x.h ****             dsy_gpio_pin dc;    /**< & */
  79:libDaisy//src/dev/oled_ssd130x.h ****             dsy_gpio_pin reset; /**< & */
  80:libDaisy//src/dev/oled_ssd130x.h ****         } pin_config;
  81:libDaisy//src/dev/oled_ssd130x.h ****         void Defaults()
  82:libDaisy//src/dev/oled_ssd130x.h ****         {
  83:libDaisy//src/dev/oled_ssd130x.h ****             // SPI peripheral config
  84:libDaisy//src/dev/oled_ssd130x.h ****             spi_config.periph = SpiHandle::Config::Peripheral::SPI_1;
  85:libDaisy//src/dev/oled_ssd130x.h ****             spi_config.mode   = SpiHandle::Config::Mode::MASTER;
  86:libDaisy//src/dev/oled_ssd130x.h ****             spi_config.direction
  87:libDaisy//src/dev/oled_ssd130x.h ****                 = SpiHandle::Config::Direction::TWO_LINES_TX_ONLY;
  88:libDaisy//src/dev/oled_ssd130x.h ****             spi_config.datasize       = 8;
  89:libDaisy//src/dev/oled_ssd130x.h ****             spi_config.clock_polarity = SpiHandle::Config::ClockPolarity::LOW;
  90:libDaisy//src/dev/oled_ssd130x.h ****             spi_config.clock_phase    = SpiHandle::Config::ClockPhase::ONE_EDGE;
  91:libDaisy//src/dev/oled_ssd130x.h ****             spi_config.nss            = SpiHandle::Config::NSS::HARD_OUTPUT;
  92:libDaisy//src/dev/oled_ssd130x.h ****             spi_config.baud_prescaler = SpiHandle::Config::BaudPrescaler::PS_8;
  93:libDaisy//src/dev/oled_ssd130x.h ****             // SPI pin config
  94:libDaisy//src/dev/oled_ssd130x.h ****             spi_config.pin_config.sclk = {DSY_GPIOG, 11};
  95:libDaisy//src/dev/oled_ssd130x.h ****             spi_config.pin_config.miso = {DSY_GPIOX, 0};
  96:libDaisy//src/dev/oled_ssd130x.h ****             spi_config.pin_config.mosi = {DSY_GPIOB, 5};
  97:libDaisy//src/dev/oled_ssd130x.h ****             spi_config.pin_config.nss  = {DSY_GPIOG, 10};
  98:libDaisy//src/dev/oled_ssd130x.h ****             // SSD130x control pin config
  99:libDaisy//src/dev/oled_ssd130x.h ****             pin_config.dc    = {DSY_GPIOB, 4};
 100:libDaisy//src/dev/oled_ssd130x.h ****             pin_config.reset = {DSY_GPIOB, 15};
 101:libDaisy//src/dev/oled_ssd130x.h ****         }
 102:libDaisy//src/dev/oled_ssd130x.h ****     };
 103:libDaisy//src/dev/oled_ssd130x.h ****     void Init(const Config& config)
 104:libDaisy//src/dev/oled_ssd130x.h ****     {
 105:libDaisy//src/dev/oled_ssd130x.h ****         // Initialize both GPIO
 106:libDaisy//src/dev/oled_ssd130x.h ****         pin_dc_.mode = DSY_GPIO_MODE_OUTPUT_PP;
 107:libDaisy//src/dev/oled_ssd130x.h ****         pin_dc_.pin  = config.pin_config.dc;
 108:libDaisy//src/dev/oled_ssd130x.h ****         dsy_gpio_init(&pin_dc_);
ARM GAS  /var/folders/z2/7_lhr9dn53s9tj4s0rwtyswm0000gn/T//ccRFfwbB.s 			page 20


 109:libDaisy//src/dev/oled_ssd130x.h ****         pin_reset_.mode = DSY_GPIO_MODE_OUTPUT_PP;
 110:libDaisy//src/dev/oled_ssd130x.h ****         pin_reset_.pin  = config.pin_config.reset;
 111:libDaisy//src/dev/oled_ssd130x.h ****         dsy_gpio_init(&pin_reset_);
 112:libDaisy//src/dev/oled_ssd130x.h **** 
 113:libDaisy//src/dev/oled_ssd130x.h ****         // Initialize SPI
 114:libDaisy//src/dev/oled_ssd130x.h ****         spi_.Init(config.spi_config);
 115:libDaisy//src/dev/oled_ssd130x.h **** 
 116:libDaisy//src/dev/oled_ssd130x.h ****         // Reset and Configure OLED.
 117:libDaisy//src/dev/oled_ssd130x.h ****         dsy_gpio_write(&pin_reset_, 0);
 118:libDaisy//src/dev/oled_ssd130x.h ****         System::Delay(10);
 119:libDaisy//src/dev/oled_ssd130x.h ****         dsy_gpio_write(&pin_reset_, 1);
 120:libDaisy//src/dev/oled_ssd130x.h ****         System::Delay(10);
 121:libDaisy//src/dev/oled_ssd130x.h ****     };
 122:libDaisy//src/dev/oled_ssd130x.h ****     void SendCommand(uint8_t cmd)
 123:libDaisy//src/dev/oled_ssd130x.h ****     {
 124:libDaisy//src/dev/oled_ssd130x.h ****         dsy_gpio_write(&pin_dc_, 0);
 125:libDaisy//src/dev/oled_ssd130x.h ****         spi_.BlockingTransmit(&cmd, 1);
 126:libDaisy//src/dev/oled_ssd130x.h ****     };
 127:libDaisy//src/dev/oled_ssd130x.h **** 
 128:libDaisy//src/dev/oled_ssd130x.h ****     void SendData(uint8_t* buff, size_t size)
 129:libDaisy//src/dev/oled_ssd130x.h ****     {
 130:libDaisy//src/dev/oled_ssd130x.h ****         dsy_gpio_write(&pin_dc_, 1);
 131:libDaisy//src/dev/oled_ssd130x.h ****         spi_.BlockingTransmit(buff, size);
 132:libDaisy//src/dev/oled_ssd130x.h ****     };
 133:libDaisy//src/dev/oled_ssd130x.h **** 
 134:libDaisy//src/dev/oled_ssd130x.h ****   private:
 135:libDaisy//src/dev/oled_ssd130x.h ****     SpiHandle spi_;
 136:libDaisy//src/dev/oled_ssd130x.h ****     dsy_gpio  pin_reset_;
 137:libDaisy//src/dev/oled_ssd130x.h ****     dsy_gpio  pin_dc_;
 138:libDaisy//src/dev/oled_ssd130x.h **** };
 139:libDaisy//src/dev/oled_ssd130x.h **** 
 140:libDaisy//src/dev/oled_ssd130x.h **** /**
 141:libDaisy//src/dev/oled_ssd130x.h ****  * Soft SPI Transport for SSD1306 / SSD1309 OLED display devices
 142:libDaisy//src/dev/oled_ssd130x.h ****  */
 143:libDaisy//src/dev/oled_ssd130x.h **** class SSD130x4WireSoftSpiTransport
 144:libDaisy//src/dev/oled_ssd130x.h **** {
 145:libDaisy//src/dev/oled_ssd130x.h ****   public:
 146:libDaisy//src/dev/oled_ssd130x.h ****     struct Config
 147:libDaisy//src/dev/oled_ssd130x.h ****     {
 148:libDaisy//src/dev/oled_ssd130x.h ****         Config()
 149:libDaisy//src/dev/oled_ssd130x.h ****         {
 150:libDaisy//src/dev/oled_ssd130x.h ****             // Initialize using defaults
 151:libDaisy//src/dev/oled_ssd130x.h ****             Defaults();
 152:libDaisy//src/dev/oled_ssd130x.h ****         }
 153:libDaisy//src/dev/oled_ssd130x.h ****         struct
 154:libDaisy//src/dev/oled_ssd130x.h ****         {
 155:libDaisy//src/dev/oled_ssd130x.h ****             uint32_t     sclk_delay;
 156:libDaisy//src/dev/oled_ssd130x.h ****             dsy_gpio_pin sclk;
 157:libDaisy//src/dev/oled_ssd130x.h ****             dsy_gpio_pin mosi;
 158:libDaisy//src/dev/oled_ssd130x.h ****             dsy_gpio_pin dc;
 159:libDaisy//src/dev/oled_ssd130x.h ****             dsy_gpio_pin reset;
 160:libDaisy//src/dev/oled_ssd130x.h ****         } pin_config;
 161:libDaisy//src/dev/oled_ssd130x.h ****         void Defaults()
 162:libDaisy//src/dev/oled_ssd130x.h ****         {
 163:libDaisy//src/dev/oled_ssd130x.h ****             pin_config.sclk_delay = 0; // fast as possible?!
 164:libDaisy//src/dev/oled_ssd130x.h ****             // SPI peripheral config
 165:libDaisy//src/dev/oled_ssd130x.h ****             pin_config.sclk = {DSY_GPIOD, 3}; /**< D10 - SPI2 SCK  */
ARM GAS  /var/folders/z2/7_lhr9dn53s9tj4s0rwtyswm0000gn/T//ccRFfwbB.s 			page 21


 166:libDaisy//src/dev/oled_ssd130x.h ****             pin_config.mosi = {DSY_GPIOC, 3}; /**< D9  - SPI2 MOSI */
 167:libDaisy//src/dev/oled_ssd130x.h ****             // SSD130x control pin config
 168:libDaisy//src/dev/oled_ssd130x.h ****             pin_config.dc    = {DSY_GPIOC, 11}; //D2
 169:libDaisy//src/dev/oled_ssd130x.h ****             pin_config.reset = {DSY_GPIOC, 10}; //D3
 170:libDaisy//src/dev/oled_ssd130x.h ****         }
 171:libDaisy//src/dev/oled_ssd130x.h ****     };
 172:libDaisy//src/dev/oled_ssd130x.h ****     void Init(const Config& config)
 173:libDaisy//src/dev/oled_ssd130x.h ****     {
 174:libDaisy//src/dev/oled_ssd130x.h ****         // Initialize both GPIO
 175:libDaisy//src/dev/oled_ssd130x.h ****         pin_sclk_.mode = DSY_GPIO_MODE_OUTPUT_PP;
 176:libDaisy//src/dev/oled_ssd130x.h ****         pin_sclk_.pin  = config.pin_config.sclk;
 177:libDaisy//src/dev/oled_ssd130x.h ****         dsy_gpio_init(&pin_sclk_);
 178:libDaisy//src/dev/oled_ssd130x.h ****         dsy_gpio_write(&pin_sclk_, 1); //ClockPolarity::LOW
 179:libDaisy//src/dev/oled_ssd130x.h ****         clk_delay      = config.pin_config.sclk_delay;
 180:libDaisy//src/dev/oled_ssd130x.h ****         pin_mosi_.mode = DSY_GPIO_MODE_OUTPUT_PP;
 181:libDaisy//src/dev/oled_ssd130x.h ****         pin_mosi_.pin  = config.pin_config.mosi;
 182:libDaisy//src/dev/oled_ssd130x.h ****         dsy_gpio_init(&pin_mosi_);
 183:libDaisy//src/dev/oled_ssd130x.h ****         dsy_gpio_write(&pin_mosi_, 0);
 184:libDaisy//src/dev/oled_ssd130x.h **** 
 185:libDaisy//src/dev/oled_ssd130x.h ****         pin_dc_.mode = DSY_GPIO_MODE_OUTPUT_PP;
 186:libDaisy//src/dev/oled_ssd130x.h ****         pin_dc_.pin  = config.pin_config.dc;
 187:libDaisy//src/dev/oled_ssd130x.h ****         dsy_gpio_init(&pin_dc_);
 188:libDaisy//src/dev/oled_ssd130x.h ****         pin_reset_.mode = DSY_GPIO_MODE_OUTPUT_PP;
 189:libDaisy//src/dev/oled_ssd130x.h ****         pin_reset_.pin  = config.pin_config.reset;
 190:libDaisy//src/dev/oled_ssd130x.h ****         dsy_gpio_init(&pin_reset_);
 191:libDaisy//src/dev/oled_ssd130x.h **** 
 192:libDaisy//src/dev/oled_ssd130x.h ****         // Reset and Configure OLED.
 193:libDaisy//src/dev/oled_ssd130x.h ****         dsy_gpio_write(&pin_reset_, 0);
 194:libDaisy//src/dev/oled_ssd130x.h ****         System::Delay(10);
 195:libDaisy//src/dev/oled_ssd130x.h ****         dsy_gpio_write(&pin_reset_, 1);
 196:libDaisy//src/dev/oled_ssd130x.h ****         System::Delay(10);
 197:libDaisy//src/dev/oled_ssd130x.h ****     };
 198:libDaisy//src/dev/oled_ssd130x.h ****     void SendCommand(uint8_t cmd)
 199:libDaisy//src/dev/oled_ssd130x.h ****     {
 200:libDaisy//src/dev/oled_ssd130x.h ****         dsy_gpio_write(&pin_dc_, 0);
 201:libDaisy//src/dev/oled_ssd130x.h ****         SoftSpiTransmit(cmd);
 202:libDaisy//src/dev/oled_ssd130x.h ****     };
 203:libDaisy//src/dev/oled_ssd130x.h **** 
 204:libDaisy//src/dev/oled_ssd130x.h ****     void SendData(uint8_t* buff, size_t size)
 205:libDaisy//src/dev/oled_ssd130x.h ****     {
 206:libDaisy//src/dev/oled_ssd130x.h ****         dsy_gpio_write(&pin_dc_, 1);
 207:libDaisy//src/dev/oled_ssd130x.h ****         for(size_t i = 0; i < size; i++)
 208:libDaisy//src/dev/oled_ssd130x.h ****             SoftSpiTransmit(buff[i]);
 209:libDaisy//src/dev/oled_ssd130x.h ****     };
 210:libDaisy//src/dev/oled_ssd130x.h **** 
 211:libDaisy//src/dev/oled_ssd130x.h ****   private:
 212:libDaisy//src/dev/oled_ssd130x.h ****     void SoftSpiTransmit(uint8_t val)
 213:libDaisy//src/dev/oled_ssd130x.h ****     {
 214:libDaisy//src/dev/oled_ssd130x.h ****         // bit flip
 215:libDaisy//src/dev/oled_ssd130x.h ****         val = ((val & 0x01) << 7) | ((val & 0x02) << 5) | ((val & 0x04) << 3)
 216:libDaisy//src/dev/oled_ssd130x.h ****               | ((val & 0x08) << 1) | ((val & 0x10) >> 1) | ((val & 0x20) >> 3)
 217:libDaisy//src/dev/oled_ssd130x.h ****               | ((val & 0x40) >> 5) | ((val & 0x80) >> 7);
 218:libDaisy//src/dev/oled_ssd130x.h **** 
 219:libDaisy//src/dev/oled_ssd130x.h ****         for(uint8_t bit = 0u; bit < 8u; bit++)
 220:libDaisy//src/dev/oled_ssd130x.h ****         {
 221:libDaisy//src/dev/oled_ssd130x.h ****             dsy_gpio_write(&pin_mosi_, ((val & (1 << bit)) ? 1 : 0));
 222:libDaisy//src/dev/oled_ssd130x.h **** 
ARM GAS  /var/folders/z2/7_lhr9dn53s9tj4s0rwtyswm0000gn/T//ccRFfwbB.s 			page 22


 223:libDaisy//src/dev/oled_ssd130x.h ****             System::DelayTicks(clk_delay);
 224:libDaisy//src/dev/oled_ssd130x.h **** 
 225:libDaisy//src/dev/oled_ssd130x.h ****             dsy_gpio_toggle(&pin_sclk_);
 226:libDaisy//src/dev/oled_ssd130x.h **** 
 227:libDaisy//src/dev/oled_ssd130x.h ****             System::DelayTicks(clk_delay);
 228:libDaisy//src/dev/oled_ssd130x.h **** 
 229:libDaisy//src/dev/oled_ssd130x.h ****             dsy_gpio_toggle(&pin_sclk_);
 230:libDaisy//src/dev/oled_ssd130x.h ****         }
 231:libDaisy//src/dev/oled_ssd130x.h ****     }
 232:libDaisy//src/dev/oled_ssd130x.h **** 
 233:libDaisy//src/dev/oled_ssd130x.h ****     uint32_t clk_delay;
 234:libDaisy//src/dev/oled_ssd130x.h ****     dsy_gpio pin_sclk_;
 235:libDaisy//src/dev/oled_ssd130x.h ****     dsy_gpio pin_mosi_;
 236:libDaisy//src/dev/oled_ssd130x.h ****     dsy_gpio pin_reset_;
 237:libDaisy//src/dev/oled_ssd130x.h ****     dsy_gpio pin_dc_;
 238:libDaisy//src/dev/oled_ssd130x.h **** };
 239:libDaisy//src/dev/oled_ssd130x.h **** 
 240:libDaisy//src/dev/oled_ssd130x.h **** 
 241:libDaisy//src/dev/oled_ssd130x.h **** /**
 242:libDaisy//src/dev/oled_ssd130x.h ****  * A driver implementation for the SSD1306/SSD1309
 243:libDaisy//src/dev/oled_ssd130x.h ****  */
 244:libDaisy//src/dev/oled_ssd130x.h **** template <size_t width, size_t height, typename Transport>
 245:libDaisy//src/dev/oled_ssd130x.h **** class SSD130xDriver
 246:libDaisy//src/dev/oled_ssd130x.h **** {
 247:libDaisy//src/dev/oled_ssd130x.h ****   public:
 248:libDaisy//src/dev/oled_ssd130x.h ****     struct Config
 249:libDaisy//src/dev/oled_ssd130x.h ****     {
 250:libDaisy//src/dev/oled_ssd130x.h ****         typename Transport::Config transport_config;
 251:libDaisy//src/dev/oled_ssd130x.h ****     };
 252:libDaisy//src/dev/oled_ssd130x.h **** 
 253:libDaisy//src/dev/oled_ssd130x.h ****     void Init(Config config)
 254:libDaisy//src/dev/oled_ssd130x.h ****     {
 255:libDaisy//src/dev/oled_ssd130x.h ****         transport_.Init(config.transport_config);
 256:libDaisy//src/dev/oled_ssd130x.h **** 
 257:libDaisy//src/dev/oled_ssd130x.h ****         // Init routine...
 258:libDaisy//src/dev/oled_ssd130x.h **** 
 259:libDaisy//src/dev/oled_ssd130x.h ****         // Display Off
 260:libDaisy//src/dev/oled_ssd130x.h ****         transport_.SendCommand(0xaE);
 261:libDaisy//src/dev/oled_ssd130x.h ****         // Dimension dependent commands...
 262:libDaisy//src/dev/oled_ssd130x.h ****         switch(height)
 263:libDaisy//src/dev/oled_ssd130x.h ****         {
 264:libDaisy//src/dev/oled_ssd130x.h ****             case 16:
 265:libDaisy//src/dev/oled_ssd130x.h ****                 // Display Clock Divide Ratio
 266:libDaisy//src/dev/oled_ssd130x.h ****                 transport_.SendCommand(0xD5);
 267:libDaisy//src/dev/oled_ssd130x.h ****                 transport_.SendCommand(0x60);
 268:libDaisy//src/dev/oled_ssd130x.h ****                 // Multiplex Ratio
 269:libDaisy//src/dev/oled_ssd130x.h ****                 transport_.SendCommand(0xA8);
 270:libDaisy//src/dev/oled_ssd130x.h ****                 transport_.SendCommand(0x0F);
 271:libDaisy//src/dev/oled_ssd130x.h ****                 // COM Pins
 272:libDaisy//src/dev/oled_ssd130x.h ****                 transport_.SendCommand(0xDA);
 273:libDaisy//src/dev/oled_ssd130x.h ****                 transport_.SendCommand(0x02);
 274:libDaisy//src/dev/oled_ssd130x.h ****                 break;
 275:libDaisy//src/dev/oled_ssd130x.h ****             case 32:
 276:libDaisy//src/dev/oled_ssd130x.h ****                 // Display Clock Divide Ratio
 277:libDaisy//src/dev/oled_ssd130x.h ****                 transport_.SendCommand(0xD5);
 278:libDaisy//src/dev/oled_ssd130x.h ****                 transport_.SendCommand(0x80);
 279:libDaisy//src/dev/oled_ssd130x.h ****                 // Multiplex Ratio
ARM GAS  /var/folders/z2/7_lhr9dn53s9tj4s0rwtyswm0000gn/T//ccRFfwbB.s 			page 23


 280:libDaisy//src/dev/oled_ssd130x.h ****                 transport_.SendCommand(0xA8);
 281:libDaisy//src/dev/oled_ssd130x.h ****                 transport_.SendCommand(0x1F);
 282:libDaisy//src/dev/oled_ssd130x.h ****                 // COM Pins
 283:libDaisy//src/dev/oled_ssd130x.h ****                 transport_.SendCommand(0xDA);
 284:libDaisy//src/dev/oled_ssd130x.h ****                 if(width == 64)
 285:libDaisy//src/dev/oled_ssd130x.h ****                 {
 286:libDaisy//src/dev/oled_ssd130x.h ****                     transport_.SendCommand(0x12);
 287:libDaisy//src/dev/oled_ssd130x.h ****                 }
 288:libDaisy//src/dev/oled_ssd130x.h ****                 else
 289:libDaisy//src/dev/oled_ssd130x.h ****                 {
 290:libDaisy//src/dev/oled_ssd130x.h ****                     transport_.SendCommand(0x02);
 291:libDaisy//src/dev/oled_ssd130x.h ****                 }
 292:libDaisy//src/dev/oled_ssd130x.h **** 
 293:libDaisy//src/dev/oled_ssd130x.h ****                 break;
 294:libDaisy//src/dev/oled_ssd130x.h ****             case 48:
 295:libDaisy//src/dev/oled_ssd130x.h ****                 // Display Clock Divide Ratio
 296:libDaisy//src/dev/oled_ssd130x.h ****                 transport_.SendCommand(0xD5);
 297:libDaisy//src/dev/oled_ssd130x.h ****                 transport_.SendCommand(0x80);
 298:libDaisy//src/dev/oled_ssd130x.h ****                 // Multiplex Ratio
 299:libDaisy//src/dev/oled_ssd130x.h ****                 transport_.SendCommand(0xA8);
 300:libDaisy//src/dev/oled_ssd130x.h ****                 transport_.SendCommand(0x2F);
 301:libDaisy//src/dev/oled_ssd130x.h ****                 // COM Pins
 302:libDaisy//src/dev/oled_ssd130x.h ****                 transport_.SendCommand(0xDA);
 303:libDaisy//src/dev/oled_ssd130x.h ****                 transport_.SendCommand(0x12);
 304:libDaisy//src/dev/oled_ssd130x.h ****                 break;
 305:libDaisy//src/dev/oled_ssd130x.h ****             default: // 128
 306:libDaisy//src/dev/oled_ssd130x.h ****                 // Display Clock Divide Ratio
 307:libDaisy//src/dev/oled_ssd130x.h ****                 transport_.SendCommand(0xD5);
 308:libDaisy//src/dev/oled_ssd130x.h ****                 transport_.SendCommand(0x80);
 309:libDaisy//src/dev/oled_ssd130x.h ****                 // Multiplex Ratio
 310:libDaisy//src/dev/oled_ssd130x.h ****                 transport_.SendCommand(0xA8);
 311:libDaisy//src/dev/oled_ssd130x.h ****                 transport_.SendCommand(0x3F);
 312:libDaisy//src/dev/oled_ssd130x.h ****                 // COM Pins
 313:libDaisy//src/dev/oled_ssd130x.h ****                 transport_.SendCommand(0xDA);
 314:libDaisy//src/dev/oled_ssd130x.h ****                 transport_.SendCommand(0x12);
 315:libDaisy//src/dev/oled_ssd130x.h ****                 break;
 316:libDaisy//src/dev/oled_ssd130x.h ****         }
 317:libDaisy//src/dev/oled_ssd130x.h **** 
 318:libDaisy//src/dev/oled_ssd130x.h ****         // Display Offset
 319:libDaisy//src/dev/oled_ssd130x.h ****         transport_.SendCommand(0xD3);
 320:libDaisy//src/dev/oled_ssd130x.h ****         transport_.SendCommand(0x00);
 321:libDaisy//src/dev/oled_ssd130x.h ****         // Start Line Address
 322:libDaisy//src/dev/oled_ssd130x.h ****         transport_.SendCommand(0x40);
 323:libDaisy//src/dev/oled_ssd130x.h ****         // Normal Display
 324:libDaisy//src/dev/oled_ssd130x.h ****         transport_.SendCommand(0xA6);
 325:libDaisy//src/dev/oled_ssd130x.h ****         // All On Resume
 326:libDaisy//src/dev/oled_ssd130x.h ****         transport_.SendCommand(0xA4);
 327:libDaisy//src/dev/oled_ssd130x.h ****         // Charge Pump
 328:libDaisy//src/dev/oled_ssd130x.h ****         transport_.SendCommand(0x8D);
 329:libDaisy//src/dev/oled_ssd130x.h ****         transport_.SendCommand(0x14);
 330:libDaisy//src/dev/oled_ssd130x.h ****         // Set Segment Remap
 331:libDaisy//src/dev/oled_ssd130x.h ****         transport_.SendCommand(0xA1);
 332:libDaisy//src/dev/oled_ssd130x.h ****         // COM Output Scan Direction
 333:libDaisy//src/dev/oled_ssd130x.h ****         transport_.SendCommand(0xC8);
 334:libDaisy//src/dev/oled_ssd130x.h ****         // Contrast Control
 335:libDaisy//src/dev/oled_ssd130x.h ****         transport_.SendCommand(0x81);
 336:libDaisy//src/dev/oled_ssd130x.h ****         transport_.SendCommand(0x8F);
ARM GAS  /var/folders/z2/7_lhr9dn53s9tj4s0rwtyswm0000gn/T//ccRFfwbB.s 			page 24


 337:libDaisy//src/dev/oled_ssd130x.h ****         // Pre Charge
 338:libDaisy//src/dev/oled_ssd130x.h ****         transport_.SendCommand(0xD9);
 339:libDaisy//src/dev/oled_ssd130x.h ****         transport_.SendCommand(0x25);
 340:libDaisy//src/dev/oled_ssd130x.h ****         // VCOM Detect
 341:libDaisy//src/dev/oled_ssd130x.h ****         transport_.SendCommand(0xDB);
 342:libDaisy//src/dev/oled_ssd130x.h ****         transport_.SendCommand(0x34);
 343:libDaisy//src/dev/oled_ssd130x.h **** 
 344:libDaisy//src/dev/oled_ssd130x.h **** 
 345:libDaisy//src/dev/oled_ssd130x.h ****         // Display On
 346:libDaisy//src/dev/oled_ssd130x.h ****         transport_.SendCommand(0xAF); //--turn on oled panel
 347:libDaisy//src/dev/oled_ssd130x.h ****     };
 348:libDaisy//src/dev/oled_ssd130x.h **** 
 349:libDaisy//src/dev/oled_ssd130x.h ****     size_t Width() const { return width; };
 350:libDaisy//src/dev/oled_ssd130x.h ****     size_t Height() const { return height; };
 351:libDaisy//src/dev/oled_ssd130x.h **** 
 352:libDaisy//src/dev/oled_ssd130x.h ****     void DrawPixel(uint_fast8_t x, uint_fast8_t y, bool on)
 353:libDaisy//src/dev/oled_ssd130x.h ****     {
 354:libDaisy//src/dev/oled_ssd130x.h ****         if(x >= width || y >= height)
 355:libDaisy//src/dev/oled_ssd130x.h ****             return;
 356:libDaisy//src/dev/oled_ssd130x.h ****         if(on)
 357:libDaisy//src/dev/oled_ssd130x.h ****             buffer_[x + (y / 8) * width] |= (1 << (y % 8));
 358:libDaisy//src/dev/oled_ssd130x.h ****         else
 359:libDaisy//src/dev/oled_ssd130x.h ****             buffer_[x + (y / 8) * width] &= ~(1 << (y % 8));
 360:libDaisy//src/dev/oled_ssd130x.h ****     }
 361:libDaisy//src/dev/oled_ssd130x.h **** 
 362:libDaisy//src/dev/oled_ssd130x.h ****     void Fill(bool on)
 206              		.loc 12 362 10 view .LVU33
 207              	.LBB419:
 363:libDaisy//src/dev/oled_ssd130x.h ****     {
 364:libDaisy//src/dev/oled_ssd130x.h ****         for(size_t i = 0; i < sizeof(buffer_); i++)
 208              		.loc 12 364 29 view .LVU34
 365:libDaisy//src/dev/oled_ssd130x.h ****         {
 366:libDaisy//src/dev/oled_ssd130x.h ****             buffer_[i] = on ? 0xff : 0x00;
 209              		.loc 12 366 24 is_stmt 0 view .LVU35
 210 0000 4942     		rsbs	r1, r1, #0
 211              	.LVL7:
 212              		.loc 12 366 24 view .LVU36
 213 0002 4FF48062 		mov	r2, #1024
 214 0006 1430     		adds	r0, r0, #20
 215              	.LVL8:
 216              		.loc 12 366 24 view .LVU37
 217 0008 C9B2     		uxtb	r1, r1
 218 000a FFF7FEBF 		b	memset
 219              	.LVL9:
 220              		.loc 12 366 24 view .LVU38
 221              	.LBE419:
 222              	.LBE418:
 223              		.cfi_endproc
 224              	.LFE5446:
 226 000e 00BF     		.section	.text._Z13AudioCallbackPKPKfPPfj,"ax",%progbits
 227              		.align	1
 228              		.p2align 2,,3
 229              		.global	_Z13AudioCallbackPKPKfPPfj
 230              		.syntax unified
 231              		.thumb
 232              		.thumb_func
 234              	_Z13AudioCallbackPKPKfPPfj:
ARM GAS  /var/folders/z2/7_lhr9dn53s9tj4s0rwtyswm0000gn/T//ccRFfwbB.s 			page 25


 235              	.LVL10:
 236              	.LFB4851:
 237              		.file 13 "daisyfs.cpp"
   1:daisyfs.cpp   **** #include "daisy_patch.h"
   2:daisyfs.cpp   **** #include "daisysp.h"
   3:daisyfs.cpp   **** 
   4:daisyfs.cpp   **** using namespace daisy;
   5:daisyfs.cpp   **** using namespace daisysp;
   6:daisyfs.cpp   **** 
   7:daisyfs.cpp   **** DaisyPatch hw;
   8:daisyfs.cpp   **** 
   9:daisyfs.cpp   **** void AudioCallback(AudioHandle::InputBuffer in, AudioHandle::OutputBuffer out, size_t size)
  10:daisyfs.cpp   **** {
 238              		.loc 13 10 1 is_stmt 1 view -0
 239              		.cfi_startproc
 240              		@ args = 0, pretend = 0, frame = 0
 241              		@ frame_needed = 0, uses_anonymous_args = 0
  11:daisyfs.cpp   **** 	hw.ProcessAllControls();
 242              		.loc 13 11 2 view .LVU40
 243              	.LBB420:
 244              	.LBI420:
  42:libDaisy//src/daisy_patch.h **** 
  43:libDaisy//src/daisy_patch.h ****     /** Initializes the daisy seed, and patch hardware.*/
  44:libDaisy//src/daisy_patch.h ****     void Init(bool boost = false);
  45:libDaisy//src/daisy_patch.h **** 
  46:libDaisy//src/daisy_patch.h ****     /** 
  47:libDaisy//src/daisy_patch.h ****     Wait some ms before going on.
  48:libDaisy//src/daisy_patch.h ****     \param del Delay time in ms.
  49:libDaisy//src/daisy_patch.h ****     */
  50:libDaisy//src/daisy_patch.h ****     void DelayMs(size_t del);
  51:libDaisy//src/daisy_patch.h **** 
  52:libDaisy//src/daisy_patch.h **** 
  53:libDaisy//src/daisy_patch.h ****     /** Starts the callback
  54:libDaisy//src/daisy_patch.h ****     \param cb multichannel callback function
  55:libDaisy//src/daisy_patch.h ****     */
  56:libDaisy//src/daisy_patch.h ****     void StartAudio(AudioHandle::AudioCallback cb);
  57:libDaisy//src/daisy_patch.h **** 
  58:libDaisy//src/daisy_patch.h ****     /**
  59:libDaisy//src/daisy_patch.h ****        Switch callback functions
  60:libDaisy//src/daisy_patch.h ****        \param cb New multichannel callback function.
  61:libDaisy//src/daisy_patch.h ****     */
  62:libDaisy//src/daisy_patch.h ****     void ChangeAudioCallback(AudioHandle::AudioCallback cb);
  63:libDaisy//src/daisy_patch.h **** 
  64:libDaisy//src/daisy_patch.h ****     /** Stops the audio */
  65:libDaisy//src/daisy_patch.h ****     void StopAudio();
  66:libDaisy//src/daisy_patch.h **** 
  67:libDaisy//src/daisy_patch.h ****     /** Set the sample rate for the audio */
  68:libDaisy//src/daisy_patch.h ****     void SetAudioSampleRate(SaiHandle::Config::SampleRate samplerate);
  69:libDaisy//src/daisy_patch.h **** 
  70:libDaisy//src/daisy_patch.h ****     /** Get sample rate */
  71:libDaisy//src/daisy_patch.h ****     float AudioSampleRate();
  72:libDaisy//src/daisy_patch.h **** 
  73:libDaisy//src/daisy_patch.h ****     /** Audio Block size defaults to 48.
  74:libDaisy//src/daisy_patch.h ****     Change it using this function before StartingAudio
  75:libDaisy//src/daisy_patch.h ****     \param size Audio block size.
  76:libDaisy//src/daisy_patch.h ****     */
  77:libDaisy//src/daisy_patch.h ****     void SetAudioBlockSize(size_t size);
ARM GAS  /var/folders/z2/7_lhr9dn53s9tj4s0rwtyswm0000gn/T//ccRFfwbB.s 			page 26


  78:libDaisy//src/daisy_patch.h **** 
  79:libDaisy//src/daisy_patch.h ****     /** Returns the number of samples per channel in a block of audio. */
  80:libDaisy//src/daisy_patch.h ****     size_t AudioBlockSize();
  81:libDaisy//src/daisy_patch.h **** 
  82:libDaisy//src/daisy_patch.h ****     /** Returns the rate in Hz that the Audio callback is called */
  83:libDaisy//src/daisy_patch.h ****     float AudioCallbackRate();
  84:libDaisy//src/daisy_patch.h **** 
  85:libDaisy//src/daisy_patch.h ****     /** Start analog to digital conversion.*/
  86:libDaisy//src/daisy_patch.h ****     void StartAdc();
  87:libDaisy//src/daisy_patch.h **** 
  88:libDaisy//src/daisy_patch.h ****     /** Stops Transfering data from the ADC */
  89:libDaisy//src/daisy_patch.h ****     void StopAdc();
  90:libDaisy//src/daisy_patch.h **** 
  91:libDaisy//src/daisy_patch.h **** 
  92:libDaisy//src/daisy_patch.h ****     /** Call at same rate as reading controls for good reads. */
  93:libDaisy//src/daisy_patch.h ****     void ProcessAnalogControls();
  94:libDaisy//src/daisy_patch.h **** 
  95:libDaisy//src/daisy_patch.h ****     /** Process Analog and Digital Controls */
  96:libDaisy//src/daisy_patch.h ****     inline void ProcessAllControls()
 245              		.loc 1 96 17 view .LVU41
 246              	.LBB421:
  97:libDaisy//src/daisy_patch.h ****     {
  98:libDaisy//src/daisy_patch.h ****         ProcessAnalogControls();
 247              		.loc 1 98 9 view .LVU42
 248              	.LBE421:
 249              	.LBE420:
  10:daisyfs.cpp   **** 	hw.ProcessAllControls();
 250              		.loc 13 10 1 is_stmt 0 view .LVU43
 251 0000 2DE9F041 		push	{r4, r5, r6, r7, r8, lr}
 252              		.cfi_def_cfa_offset 24
 253              		.cfi_offset 4, -24
 254              		.cfi_offset 5, -20
 255              		.cfi_offset 6, -16
 256              		.cfi_offset 7, -12
 257              		.cfi_offset 8, -8
 258              		.cfi_offset 14, -4
  10:daisyfs.cpp   **** 	hw.ProcessAllControls();
 259              		.loc 13 10 1 view .LVU44
 260 0004 1546     		mov	r5, r2
 261 0006 0446     		mov	r4, r0
 262              	.LBB424:
 263              	.LBB422:
 264              		.loc 1 98 30 view .LVU45
 265 0008 1348     		ldr	r0, .L15
 266              	.LVL11:
 267              		.loc 1 98 30 view .LVU46
 268              	.LBE422:
 269              	.LBE424:
  10:daisyfs.cpp   **** 	hw.ProcessAllControls();
 270              		.loc 13 10 1 view .LVU47
 271 000a 8846     		mov	r8, r1
 272              	.LBB425:
 273              	.LBB423:
 274              		.loc 1 98 30 view .LVU48
 275 000c FFF7FEFF 		bl	_ZN5daisy10DaisyPatch21ProcessAnalogControlsEv
 276              	.LVL12:
  99:libDaisy//src/daisy_patch.h ****         ProcessDigitalControls();
ARM GAS  /var/folders/z2/7_lhr9dn53s9tj4s0rwtyswm0000gn/T//ccRFfwbB.s 			page 27


 277              		.loc 1 99 9 is_stmt 1 view .LVU49
 278              		.loc 1 99 31 is_stmt 0 view .LVU50
 279 0010 1148     		ldr	r0, .L15
 280 0012 FFF7FEFF 		bl	_ZN5daisy10DaisyPatch22ProcessDigitalControlsEv
 281              	.LVL13:
 282              		.loc 1 99 31 view .LVU51
 283              	.LBE423:
 284              	.LBE425:
  12:daisyfs.cpp   **** 	for (size_t i = 0; i < size; i++)
 285              		.loc 13 12 2 is_stmt 1 view .LVU52
 286              	.LBB426:
 287              		.loc 13 12 23 view .LVU53
 288 0016 EDB1     		cbz	r5, .L7
 289 0018 2368     		ldr	r3, [r4]
 290 001a 6768     		ldr	r7, [r4, #4]
 291 001c 03EB850E 		add	lr, r3, r5, lsl #2
 292 0020 D8F800C0 		ldr	ip, [r8]
 293 0024 D8F80460 		ldr	r6, [r8, #4]
 294 0028 D4E90254 		ldrd	r5, r4, [r4, #8]
 295              	.LVL14:
 296              		.loc 13 12 23 is_stmt 0 view .LVU54
 297 002c D8E90202 		ldrd	r0, r2, [r8, #8]
 298              	.LVL15:
 299              	.L9:
  13:daisyfs.cpp   **** 	{
  14:daisyfs.cpp   **** 		out[0][i] = in[0][i];
 300              		.loc 13 14 3 is_stmt 1 discriminator 2 view .LVU55
 301              		.loc 13 14 22 is_stmt 0 discriminator 2 view .LVU56
 302 0030 53F8041B 		ldr	r1, [r3], #4	@ float
 303              		.loc 13 14 13 discriminator 2 view .LVU57
 304 0034 4CF8041B 		str	r1, [ip], #4	@ float
  15:daisyfs.cpp   **** 		out[1][i] = in[1][i];
 305              		.loc 13 15 3 is_stmt 1 discriminator 2 view .LVU58
  12:daisyfs.cpp   **** 	for (size_t i = 0; i < size; i++)
 306              		.loc 13 12 23 is_stmt 0 discriminator 2 view .LVU59
 307 0038 7345     		cmp	r3, lr
 308              		.loc 13 15 22 discriminator 2 view .LVU60
 309 003a 57F8041B 		ldr	r1, [r7], #4	@ float
 310              		.loc 13 15 13 discriminator 2 view .LVU61
 311 003e 46F8041B 		str	r1, [r6], #4	@ float
  16:daisyfs.cpp   **** 		out[2][i] = in[2][i];
 312              		.loc 13 16 3 is_stmt 1 discriminator 2 view .LVU62
 313              		.loc 13 16 22 is_stmt 0 discriminator 2 view .LVU63
 314 0042 55F8041B 		ldr	r1, [r5], #4	@ float
 315              		.loc 13 16 13 discriminator 2 view .LVU64
 316 0046 40F8041B 		str	r1, [r0], #4	@ float
  17:daisyfs.cpp   **** 		out[3][i] = in[3][i];
 317              		.loc 13 17 3 is_stmt 1 discriminator 2 view .LVU65
 318              		.loc 13 17 22 is_stmt 0 discriminator 2 view .LVU66
 319 004a 54F8041B 		ldr	r1, [r4], #4	@ float
 320              		.loc 13 17 13 discriminator 2 view .LVU67
 321 004e 42F8041B 		str	r1, [r2], #4	@ float
  12:daisyfs.cpp   **** 	{
 322              		.loc 13 12 2 is_stmt 1 discriminator 2 view .LVU68
  12:daisyfs.cpp   **** 	{
 323              		.loc 13 12 23 discriminator 2 view .LVU69
 324 0052 EDD1     		bne	.L9
ARM GAS  /var/folders/z2/7_lhr9dn53s9tj4s0rwtyswm0000gn/T//ccRFfwbB.s 			page 28


 325              	.L7:
 326              	.LBE426:
  18:daisyfs.cpp   **** 	}
  19:daisyfs.cpp   **** }
 327              		.loc 13 19 1 is_stmt 0 view .LVU70
 328 0054 BDE8F081 		pop	{r4, r5, r6, r7, r8, pc}
 329              	.LVL16:
 330              	.L16:
 331              		.loc 13 19 1 view .LVU71
 332              		.align	2
 333              	.L15:
 334 0058 00000000 		.word	hw
 335              		.cfi_endproc
 336              	.LFE4851:
 338              		.section	.text._ZN5daisy11OledDisplayINS_13SSD130xDriverILj128ELj64ENS_24SSD130x4WireSpiTransportE
 339              		.align	1
 340              		.p2align 2,,3
 341              		.weak	_ZN5daisy11OledDisplayINS_13SSD130xDriverILj128ELj64ENS_24SSD130x4WireSpiTransportEEEED0Ev
 342              		.syntax unified
 343              		.thumb
 344              		.thumb_func
 346              	_ZN5daisy11OledDisplayINS_13SSD130xDriverILj128ELj64ENS_24SSD130x4WireSpiTransportEEEED0Ev:
 347              	.LVL17:
 348              	.LFB4883:
  18:libDaisy//src/hid/disp/oled_display.h **** 
 349              		.loc 2 18 13 is_stmt 1 view -0
 350              		.cfi_startproc
 351              		@ args = 0, pretend = 0, frame = 0
 352              		@ frame_needed = 0, uses_anonymous_args = 0
  18:libDaisy//src/hid/disp/oled_display.h **** 
 353              		.loc 2 18 13 is_stmt 0 view .LVU73
 354 0000 10B5     		push	{r4, lr}
 355              		.cfi_def_cfa_offset 8
 356              		.cfi_offset 4, -8
 357              		.cfi_offset 14, -4
  18:libDaisy//src/hid/disp/oled_display.h **** 
 358              		.loc 2 18 13 view .LVU74
 359 0002 0446     		mov	r4, r0
 360              	.LVL18:
 361              	.LBB427:
 362              	.LBI427:
  18:libDaisy//src/hid/disp/oled_display.h **** 
 363              		.loc 2 18 13 is_stmt 1 view .LVU75
 364              	.LBB428:
 365              	.LBI428:
 366              		.loc 3 219 13 view .LVU76
 367              	.LBB429:
 368              	.LBI429:
  23:libDaisy//src/hid/disp/display.h **** 
 369              		.loc 3 23 13 view .LVU77
  23:libDaisy//src/hid/disp/display.h **** 
 370              		.loc 3 23 13 is_stmt 0 view .LVU78
 371              	.LBE429:
 372              	.LBE428:
 373              	.LBE427:
  18:libDaisy//src/hid/disp/oled_display.h **** 
 374              		.loc 2 18 29 view .LVU79
ARM GAS  /var/folders/z2/7_lhr9dn53s9tj4s0rwtyswm0000gn/T//ccRFfwbB.s 			page 29


 375 0004 40F21441 		movw	r1, #1044
 376 0008 FFF7FEFF 		bl	_ZdlPvj
 377              	.LVL19:
  18:libDaisy//src/hid/disp/oled_display.h **** 
 378              		.loc 2 18 29 view .LVU80
 379 000c 2046     		mov	r0, r4
 380 000e 10BD     		pop	{r4, pc}
  18:libDaisy//src/hid/disp/oled_display.h **** 
 381              		.loc 2 18 29 view .LVU81
 382              		.cfi_endproc
 383              	.LFE4883:
 385              		.section	.text._ZN5daisy11OledDisplayINS_13SSD130xDriverILj128ELj64ENS_24SSD130x4WireSpiTransportE
 386              		.align	1
 387              		.p2align 2,,3
 388              		.weak	_ZN5daisy11OledDisplayINS_13SSD130xDriverILj128ELj64ENS_24SSD130x4WireSpiTransportEEEE6Updat
 389              		.syntax unified
 390              		.thumb
 391              		.thumb_func
 393              	_ZN5daisy11OledDisplayINS_13SSD130xDriverILj128ELj64ENS_24SSD130x4WireSpiTransportEEEE6UpdateEv:
 394              	.LVL20:
 395              	.LFB5454:
  35:libDaisy//src/hid/disp/oled_display.h **** 
  36:libDaisy//src/hid/disp/oled_display.h ****     /**
  37:libDaisy//src/hid/disp/oled_display.h ****     Sets the pixel at the specified coordinate to be on/off.
  38:libDaisy//src/hid/disp/oled_display.h ****     \param x   x Coordinate
  39:libDaisy//src/hid/disp/oled_display.h ****     \param y   y coordinate
  40:libDaisy//src/hid/disp/oled_display.h ****     \param on  on or off
  41:libDaisy//src/hid/disp/oled_display.h ****     */
  42:libDaisy//src/hid/disp/oled_display.h ****     void DrawPixel(uint_fast8_t x, uint_fast8_t y, bool on) override
  43:libDaisy//src/hid/disp/oled_display.h ****     {
  44:libDaisy//src/hid/disp/oled_display.h ****         driver_.DrawPixel(x, y, on);
  45:libDaisy//src/hid/disp/oled_display.h ****     }
  46:libDaisy//src/hid/disp/oled_display.h **** 
  47:libDaisy//src/hid/disp/oled_display.h ****     /** 
  48:libDaisy//src/hid/disp/oled_display.h ****     Writes the current display buffer to the OLED device using SPI or I2C depending on 
  49:libDaisy//src/hid/disp/oled_display.h ****     how the object was initialized.
  50:libDaisy//src/hid/disp/oled_display.h ****     */
  51:libDaisy//src/hid/disp/oled_display.h ****     void Update() override { driver_.Update(); }
 396              		.loc 2 51 10 is_stmt 1 view -0
 397              		.cfi_startproc
 398              		@ args = 0, pretend = 0, frame = 8
 399              		@ frame_needed = 0, uses_anonymous_args = 0
 400              	.LBB440:
 401              	.LBI440:
 367:libDaisy//src/dev/oled_ssd130x.h ****         }
 368:libDaisy//src/dev/oled_ssd130x.h ****     };
 369:libDaisy//src/dev/oled_ssd130x.h **** 
 370:libDaisy//src/dev/oled_ssd130x.h ****     /**
 371:libDaisy//src/dev/oled_ssd130x.h ****      * Update the display 
 372:libDaisy//src/dev/oled_ssd130x.h ****     */
 373:libDaisy//src/dev/oled_ssd130x.h ****     void Update()
 402              		.loc 12 373 10 view .LVU83
 403              	.LBB441:
 374:libDaisy//src/dev/oled_ssd130x.h ****     {
 375:libDaisy//src/dev/oled_ssd130x.h ****         uint8_t i;
 376:libDaisy//src/dev/oled_ssd130x.h ****         uint8_t high_column_addr;
 377:libDaisy//src/dev/oled_ssd130x.h ****         switch(height)
ARM GAS  /var/folders/z2/7_lhr9dn53s9tj4s0rwtyswm0000gn/T//ccRFfwbB.s 			page 30


 378:libDaisy//src/dev/oled_ssd130x.h ****         {
 379:libDaisy//src/dev/oled_ssd130x.h ****             case 32: high_column_addr = 0x12; break;
 380:libDaisy//src/dev/oled_ssd130x.h **** 
 381:libDaisy//src/dev/oled_ssd130x.h ****             default: high_column_addr = 0x10; break;
 382:libDaisy//src/dev/oled_ssd130x.h ****         }
 383:libDaisy//src/dev/oled_ssd130x.h ****         for(i = 0; i < (height / 8); i++)
 404              		.loc 12 383 22 view .LVU84
 405              	.LBE441:
 406              	.LBE440:
 407              		.loc 2 51 10 is_stmt 0 view .LVU85
 408 0000 2DE9F041 		push	{r4, r5, r6, r7, r8, lr}
 409              		.cfi_def_cfa_offset 24
 410              		.cfi_offset 4, -24
 411              		.cfi_offset 5, -20
 412              		.cfi_offset 6, -16
 413              		.cfi_offset 7, -12
 414              		.cfi_offset 8, -8
 415              		.cfi_offset 14, -4
 416              	.LBB463:
 417              	.LBB461:
 418              	.LBB442:
 419              	.LBB443:
 125:libDaisy//src/dev/oled_ssd130x.h ****     };
 420              		.loc 12 125 30 view .LVU86
 421 0004 B024     		movs	r4, #176
 422              	.LBE443:
 423              	.LBE442:
 424              	.LBE461:
 425              	.LBE463:
 426              		.loc 2 51 10 view .LVU87
 427 0006 82B0     		sub	sp, sp, #8
 428              		.cfi_def_cfa_offset 32
 429              	.LBB464:
 430              	.LBB462:
 431              	.LBB448:
 432              	.LBB444:
 124:libDaisy//src/dev/oled_ssd130x.h ****         spi_.BlockingTransmit(&cmd, 1);
 433              		.loc 12 124 24 view .LVU88
 434 0008 00F10806 		add	r6, r0, #8
 435 000c 00F11005 		add	r5, r0, #16
 436 0010 00F11408 		add	r8, r0, #20
 437              	.LVL21:
 438              	.L20:
 124:libDaisy//src/dev/oled_ssd130x.h ****         spi_.BlockingTransmit(&cmd, 1);
 439              		.loc 12 124 24 view .LVU89
 440 0014 0027     		movs	r7, #0
 124:libDaisy//src/dev/oled_ssd130x.h ****         spi_.BlockingTransmit(&cmd, 1);
 441              		.loc 12 124 23 view .LVU90
 442 0016 2846     		mov	r0, r5
 443 0018 8DF80740 		strb	r4, [sp, #7]
 444              	.LVL22:
 124:libDaisy//src/dev/oled_ssd130x.h ****         spi_.BlockingTransmit(&cmd, 1);
 445              		.loc 12 124 23 view .LVU91
 446              	.LBE444:
 447              	.LBI442:
 122:libDaisy//src/dev/oled_ssd130x.h ****     {
 448              		.loc 12 122 10 is_stmt 1 view .LVU92
ARM GAS  /var/folders/z2/7_lhr9dn53s9tj4s0rwtyswm0000gn/T//ccRFfwbB.s 			page 31


 449              	.LBB445:
 124:libDaisy//src/dev/oled_ssd130x.h ****         spi_.BlockingTransmit(&cmd, 1);
 450              		.loc 12 124 9 view .LVU93
 451              	.LBE445:
 452              	.LBE448:
 453              		.loc 12 383 22 is_stmt 0 view .LVU94
 454 001c 0134     		adds	r4, r4, #1
 455              	.LVL23:
 456              	.LBB449:
 457              	.LBB446:
 124:libDaisy//src/dev/oled_ssd130x.h ****         spi_.BlockingTransmit(&cmd, 1);
 458              		.loc 12 124 23 view .LVU95
 459 001e 3946     		mov	r1, r7
 460 0020 FFF7FEFF 		bl	dsy_gpio_write
 461              	.LVL24:
 125:libDaisy//src/dev/oled_ssd130x.h ****     };
 462              		.loc 12 125 9 is_stmt 1 view .LVU96
 125:libDaisy//src/dev/oled_ssd130x.h ****     };
 463              		.loc 12 125 30 is_stmt 0 view .LVU97
 464 0024 6423     		movs	r3, #100
 465 0026 0122     		movs	r2, #1
 466 0028 0DF10701 		add	r1, sp, #7
 467 002c 3046     		mov	r0, r6
 468              	.LBE446:
 469              	.LBE449:
 470              		.loc 12 383 22 view .LVU98
 471 002e E4B2     		uxtb	r4, r4
 472              	.LBB450:
 473              	.LBB447:
 125:libDaisy//src/dev/oled_ssd130x.h ****     };
 474              		.loc 12 125 30 view .LVU99
 475 0030 FFF7FEFF 		bl	_ZN5daisy9SpiHandle16BlockingTransmitEPhjm
 476              	.LVL25:
 125:libDaisy//src/dev/oled_ssd130x.h ****     };
 477              		.loc 12 125 30 view .LVU100
 478              	.LBE447:
 479              	.LBE450:
 480              	.LBB451:
 481              	.LBB452:
 124:libDaisy//src/dev/oled_ssd130x.h ****         spi_.BlockingTransmit(&cmd, 1);
 482              		.loc 12 124 23 view .LVU101
 483 0034 3946     		mov	r1, r7
 484 0036 2846     		mov	r0, r5
 485 0038 8DF80770 		strb	r7, [sp, #7]
 486              	.LVL26:
 124:libDaisy//src/dev/oled_ssd130x.h ****         spi_.BlockingTransmit(&cmd, 1);
 487              		.loc 12 124 23 view .LVU102
 488              	.LBE452:
 489              	.LBI451:
 122:libDaisy//src/dev/oled_ssd130x.h ****     {
 490              		.loc 12 122 10 is_stmt 1 view .LVU103
 491              	.LBB453:
 124:libDaisy//src/dev/oled_ssd130x.h ****         spi_.BlockingTransmit(&cmd, 1);
 492              		.loc 12 124 9 view .LVU104
 124:libDaisy//src/dev/oled_ssd130x.h ****         spi_.BlockingTransmit(&cmd, 1);
 493              		.loc 12 124 23 is_stmt 0 view .LVU105
 494 003c FFF7FEFF 		bl	dsy_gpio_write
ARM GAS  /var/folders/z2/7_lhr9dn53s9tj4s0rwtyswm0000gn/T//ccRFfwbB.s 			page 32


 495              	.LVL27:
 125:libDaisy//src/dev/oled_ssd130x.h ****     };
 496              		.loc 12 125 9 is_stmt 1 view .LVU106
 125:libDaisy//src/dev/oled_ssd130x.h ****     };
 497              		.loc 12 125 30 is_stmt 0 view .LVU107
 498 0040 0122     		movs	r2, #1
 499 0042 6423     		movs	r3, #100
 500 0044 0DF10701 		add	r1, sp, #7
 501 0048 3046     		mov	r0, r6
 502 004a FFF7FEFF 		bl	_ZN5daisy9SpiHandle16BlockingTransmitEPhjm
 503              	.LVL28:
 125:libDaisy//src/dev/oled_ssd130x.h ****     };
 504              		.loc 12 125 30 view .LVU108
 505 004e 1023     		movs	r3, #16
 506              	.LBE453:
 507              	.LBE451:
 508              	.LBB454:
 509              	.LBB455:
 124:libDaisy//src/dev/oled_ssd130x.h ****         spi_.BlockingTransmit(&cmd, 1);
 510              		.loc 12 124 23 view .LVU109
 511 0050 3946     		mov	r1, r7
 512 0052 2846     		mov	r0, r5
 513 0054 8DF80730 		strb	r3, [sp, #7]
 514              	.LVL29:
 124:libDaisy//src/dev/oled_ssd130x.h ****         spi_.BlockingTransmit(&cmd, 1);
 515              		.loc 12 124 23 view .LVU110
 516              	.LBE455:
 517              	.LBI454:
 122:libDaisy//src/dev/oled_ssd130x.h ****     {
 518              		.loc 12 122 10 is_stmt 1 view .LVU111
 519              	.LBB456:
 124:libDaisy//src/dev/oled_ssd130x.h ****         spi_.BlockingTransmit(&cmd, 1);
 520              		.loc 12 124 9 view .LVU112
 124:libDaisy//src/dev/oled_ssd130x.h ****         spi_.BlockingTransmit(&cmd, 1);
 521              		.loc 12 124 23 is_stmt 0 view .LVU113
 522 0058 FFF7FEFF 		bl	dsy_gpio_write
 523              	.LVL30:
 125:libDaisy//src/dev/oled_ssd130x.h ****     };
 524              		.loc 12 125 9 is_stmt 1 view .LVU114
 125:libDaisy//src/dev/oled_ssd130x.h ****     };
 525              		.loc 12 125 30 is_stmt 0 view .LVU115
 526 005c 6423     		movs	r3, #100
 527 005e 0122     		movs	r2, #1
 528 0060 0DF10701 		add	r1, sp, #7
 529 0064 3046     		mov	r0, r6
 530 0066 FFF7FEFF 		bl	_ZN5daisy9SpiHandle16BlockingTransmitEPhjm
 531              	.LVL31:
 125:libDaisy//src/dev/oled_ssd130x.h ****     };
 532              		.loc 12 125 30 view .LVU116
 533              	.LBE456:
 534              	.LBE454:
 535              	.LBB457:
 536              	.LBI457:
 128:libDaisy//src/dev/oled_ssd130x.h ****     {
 537              		.loc 12 128 10 is_stmt 1 view .LVU117
 538              	.LBB458:
 130:libDaisy//src/dev/oled_ssd130x.h ****         spi_.BlockingTransmit(buff, size);
ARM GAS  /var/folders/z2/7_lhr9dn53s9tj4s0rwtyswm0000gn/T//ccRFfwbB.s 			page 33


 539              		.loc 12 130 9 view .LVU118
 130:libDaisy//src/dev/oled_ssd130x.h ****         spi_.BlockingTransmit(buff, size);
 540              		.loc 12 130 23 is_stmt 0 view .LVU119
 541 006a 0121     		movs	r1, #1
 542 006c 2846     		mov	r0, r5
 543 006e FFF7FEFF 		bl	dsy_gpio_write
 544              	.LVL32:
 131:libDaisy//src/dev/oled_ssd130x.h ****     };
 545              		.loc 12 131 9 is_stmt 1 view .LVU120
 131:libDaisy//src/dev/oled_ssd130x.h ****     };
 546              		.loc 12 131 30 is_stmt 0 view .LVU121
 547 0072 8022     		movs	r2, #128
 548 0074 4146     		mov	r1, r8
 549 0076 6423     		movs	r3, #100
 550 0078 3046     		mov	r0, r6
 551              	.LBE458:
 552              	.LBE457:
 553              		.loc 12 383 22 view .LVU122
 554 007a 9044     		add	r8, r8, r2
 555              	.LVL33:
 556              	.LBB460:
 557              	.LBB459:
 131:libDaisy//src/dev/oled_ssd130x.h ****     };
 558              		.loc 12 131 30 view .LVU123
 559 007c FFF7FEFF 		bl	_ZN5daisy9SpiHandle16BlockingTransmitEPhjm
 560              	.LVL34:
 131:libDaisy//src/dev/oled_ssd130x.h ****     };
 561              		.loc 12 131 30 view .LVU124
 562              	.LBE459:
 563              	.LBE460:
 564              		.loc 12 383 9 is_stmt 1 view .LVU125
 565              		.loc 12 383 22 view .LVU126
 566 0080 B82C     		cmp	r4, #184
 567 0082 C7D1     		bne	.L20
 568              	.LBE462:
 569              	.LBE464:
 570              		.loc 2 51 48 is_stmt 0 view .LVU127
 571 0084 02B0     		add	sp, sp, #8
 572              		.cfi_def_cfa_offset 24
 573              		@ sp needed
 574 0086 BDE8F081 		pop	{r4, r5, r6, r7, r8, pc}
 575              		.loc 2 51 48 view .LVU128
 576              		.cfi_endproc
 577              	.LFE5454:
 579 008a 00BF     		.section	.text._ZN5daisy25OneBitGraphicsDisplayImplINS_11OledDisplayINS_13SSD130xDriverILj128ELj64
 580              		.align	1
 581              		.p2align 2,,3
 582              		.weak	_ZN5daisy25OneBitGraphicsDisplayImplINS_11OledDisplayINS_13SSD130xDriverILj128ELj64ENS_24SSD
 583              		.syntax unified
 584              		.thumb
 585              		.thumb_func
 587              	_ZN5daisy25OneBitGraphicsDisplayImplINS_11OledDisplayINS_13SSD130xDriverILj128ELj64ENS_24SSD130x4Wi
 588              	.LVL35:
 589              	.LFB5452:
 220:libDaisy//src/hid/disp/display.h **** 
 221:libDaisy//src/hid/disp/display.h ****     void DrawLine(uint_fast8_t x1,
 222:libDaisy//src/hid/disp/display.h ****                   uint_fast8_t y1,
ARM GAS  /var/folders/z2/7_lhr9dn53s9tj4s0rwtyswm0000gn/T//ccRFfwbB.s 			page 34


 223:libDaisy//src/hid/disp/display.h ****                   uint_fast8_t x2,
 224:libDaisy//src/hid/disp/display.h ****                   uint_fast8_t y2,
 225:libDaisy//src/hid/disp/display.h ****                   bool         on) override
 226:libDaisy//src/hid/disp/display.h ****     {
 227:libDaisy//src/hid/disp/display.h ****         int_fast16_t deltaX = abs((int_fast16_t)x2 - (int_fast16_t)x1);
 228:libDaisy//src/hid/disp/display.h ****         int_fast16_t deltaY = abs((int_fast16_t)y2 - (int_fast16_t)y1);
 229:libDaisy//src/hid/disp/display.h ****         int_fast16_t signX  = ((x1 < x2) ? 1 : -1);
 230:libDaisy//src/hid/disp/display.h ****         int_fast16_t signY  = ((y1 < y2) ? 1 : -1);
 231:libDaisy//src/hid/disp/display.h ****         int_fast16_t error  = deltaX - deltaY;
 232:libDaisy//src/hid/disp/display.h ****         int_fast16_t error2;
 233:libDaisy//src/hid/disp/display.h **** 
 234:libDaisy//src/hid/disp/display.h ****         // If we write "ChildType::DrawPixel(x2, y2, on);", we end up with
 235:libDaisy//src/hid/disp/display.h ****         // all sorts of weird compiler errors when the Child class is a template
 236:libDaisy//src/hid/disp/display.h ****         // class. The only way around this is to use this very verbose syntax:
 237:libDaisy//src/hid/disp/display.h ****         ((ChildType*)(this))->ChildType::DrawPixel(x2, y2, on);
 238:libDaisy//src/hid/disp/display.h **** 
 239:libDaisy//src/hid/disp/display.h ****         while((x1 != x2) || (y1 != y2))
 240:libDaisy//src/hid/disp/display.h ****         {
 241:libDaisy//src/hid/disp/display.h ****             ((ChildType*)(this))->ChildType::DrawPixel(x1, y1, on);
 242:libDaisy//src/hid/disp/display.h ****             error2 = error * 2;
 243:libDaisy//src/hid/disp/display.h ****             if(error2 > -deltaY)
 244:libDaisy//src/hid/disp/display.h ****             {
 245:libDaisy//src/hid/disp/display.h ****                 error -= deltaY;
 246:libDaisy//src/hid/disp/display.h ****                 x1 += signX;
 247:libDaisy//src/hid/disp/display.h ****             }
 248:libDaisy//src/hid/disp/display.h **** 
 249:libDaisy//src/hid/disp/display.h ****             if(error2 < deltaX)
 250:libDaisy//src/hid/disp/display.h ****             {
 251:libDaisy//src/hid/disp/display.h ****                 error += deltaX;
 252:libDaisy//src/hid/disp/display.h ****                 y1 += signY;
 253:libDaisy//src/hid/disp/display.h ****             }
 254:libDaisy//src/hid/disp/display.h ****         }
 255:libDaisy//src/hid/disp/display.h ****     }
 256:libDaisy//src/hid/disp/display.h **** 
 257:libDaisy//src/hid/disp/display.h ****     void DrawRect(uint_fast8_t x1,
 258:libDaisy//src/hid/disp/display.h ****                   uint_fast8_t y1,
 259:libDaisy//src/hid/disp/display.h ****                   uint_fast8_t x2,
 260:libDaisy//src/hid/disp/display.h ****                   uint_fast8_t y2,
 261:libDaisy//src/hid/disp/display.h ****                   bool         on,
 262:libDaisy//src/hid/disp/display.h ****                   bool         fill = false) override
 263:libDaisy//src/hid/disp/display.h ****     {
 264:libDaisy//src/hid/disp/display.h ****         if(fill)
 265:libDaisy//src/hid/disp/display.h ****         {
 266:libDaisy//src/hid/disp/display.h ****             for(uint_fast8_t x = x1; x <= x2; x++)
 267:libDaisy//src/hid/disp/display.h ****             {
 268:libDaisy//src/hid/disp/display.h ****                 for(uint_fast8_t y = y1; y <= y2; y++)
 269:libDaisy//src/hid/disp/display.h ****                 {
 270:libDaisy//src/hid/disp/display.h ****                     ((ChildType*)(this))->ChildType::DrawPixel(x, y, on);
 271:libDaisy//src/hid/disp/display.h ****                 }
 272:libDaisy//src/hid/disp/display.h ****             }
 273:libDaisy//src/hid/disp/display.h ****         }
 274:libDaisy//src/hid/disp/display.h ****         else
 275:libDaisy//src/hid/disp/display.h ****         {
 276:libDaisy//src/hid/disp/display.h ****             ((ChildType*)(this))->ChildType::DrawLine(x1, y1, x2, y1, on);
 277:libDaisy//src/hid/disp/display.h ****             ((ChildType*)(this))->ChildType::DrawLine(x2, y1, x2, y2, on);
 278:libDaisy//src/hid/disp/display.h ****             ((ChildType*)(this))->ChildType::DrawLine(x2, y2, x1, y2, on);
 279:libDaisy//src/hid/disp/display.h ****             ((ChildType*)(this))->ChildType::DrawLine(x1, y2, x1, y1, on);
ARM GAS  /var/folders/z2/7_lhr9dn53s9tj4s0rwtyswm0000gn/T//ccRFfwbB.s 			page 35


 280:libDaisy//src/hid/disp/display.h ****         }
 281:libDaisy//src/hid/disp/display.h ****     }
 282:libDaisy//src/hid/disp/display.h **** 
 283:libDaisy//src/hid/disp/display.h ****     void DrawArc(uint_fast8_t x,
 284:libDaisy//src/hid/disp/display.h ****                  uint_fast8_t y,
 285:libDaisy//src/hid/disp/display.h ****                  uint_fast8_t radius,
 286:libDaisy//src/hid/disp/display.h ****                  int_fast16_t start_angle,
 287:libDaisy//src/hid/disp/display.h ****                  int_fast16_t sweep,
 288:libDaisy//src/hid/disp/display.h ****                  bool         on) override
 289:libDaisy//src/hid/disp/display.h ****     {
 290:libDaisy//src/hid/disp/display.h ****         // Values to calculate the circle
 291:libDaisy//src/hid/disp/display.h ****         int_fast16_t t_x, t_y, err, e2;
 292:libDaisy//src/hid/disp/display.h **** 
 293:libDaisy//src/hid/disp/display.h ****         // Temporary values to speed up comparisons
 294:libDaisy//src/hid/disp/display.h ****         float t_sxy, t_syx, t_sxny, t_synx;
 295:libDaisy//src/hid/disp/display.h ****         float t_exy, t_eyx, t_exny, t_eynx;
 296:libDaisy//src/hid/disp/display.h **** 
 297:libDaisy//src/hid/disp/display.h ****         float start_angle_rad, end_angle_rad;
 298:libDaisy//src/hid/disp/display.h ****         float start_x, start_y, end_x, end_y;
 299:libDaisy//src/hid/disp/display.h **** 
 300:libDaisy//src/hid/disp/display.h ****         bool d1, d2, d3, d4;
 301:libDaisy//src/hid/disp/display.h **** 
 302:libDaisy//src/hid/disp/display.h ****         d1 = d2 = d3 = d4 = true;
 303:libDaisy//src/hid/disp/display.h **** 
 304:libDaisy//src/hid/disp/display.h ****         bool circle = false;
 305:libDaisy//src/hid/disp/display.h **** 
 306:libDaisy//src/hid/disp/display.h ****         if(sweep < 0)
 307:libDaisy//src/hid/disp/display.h ****         {
 308:libDaisy//src/hid/disp/display.h ****             start_angle += sweep;
 309:libDaisy//src/hid/disp/display.h ****             sweep = -sweep;
 310:libDaisy//src/hid/disp/display.h ****         }
 311:libDaisy//src/hid/disp/display.h **** 
 312:libDaisy//src/hid/disp/display.h ****         start_angle_rad = deg2rad(start_angle);
 313:libDaisy//src/hid/disp/display.h ****         end_angle_rad   = deg2rad(start_angle + sweep);
 314:libDaisy//src/hid/disp/display.h **** 
 315:libDaisy//src/hid/disp/display.h ****         start_x = cos(start_angle_rad) * radius;
 316:libDaisy//src/hid/disp/display.h ****         start_y = -sin(start_angle_rad) * radius;
 317:libDaisy//src/hid/disp/display.h ****         end_x   = cos(end_angle_rad) * radius;
 318:libDaisy//src/hid/disp/display.h ****         end_y   = -sin(end_angle_rad) * radius;
 319:libDaisy//src/hid/disp/display.h **** 
 320:libDaisy//src/hid/disp/display.h ****         // Check if start and endpoint are very near
 321:libDaisy//src/hid/disp/display.h ****         if((end_x - start_x) * (end_x - start_x)
 322:libDaisy//src/hid/disp/display.h ****                + (end_y - start_y) * (end_y - start_y)
 323:libDaisy//src/hid/disp/display.h ****            < 2.0f)
 324:libDaisy//src/hid/disp/display.h ****         {
 325:libDaisy//src/hid/disp/display.h ****             if(sweep > 180)
 326:libDaisy//src/hid/disp/display.h ****                 circle = true;
 327:libDaisy//src/hid/disp/display.h ****             else
 328:libDaisy//src/hid/disp/display.h ****                 // Nothing to draw
 329:libDaisy//src/hid/disp/display.h ****                 return;
 330:libDaisy//src/hid/disp/display.h ****         }
 331:libDaisy//src/hid/disp/display.h **** 
 332:libDaisy//src/hid/disp/display.h ****         t_x = -radius;
 333:libDaisy//src/hid/disp/display.h ****         t_y = 0;
 334:libDaisy//src/hid/disp/display.h ****         err = 2 - 2 * radius;
 335:libDaisy//src/hid/disp/display.h **** 
 336:libDaisy//src/hid/disp/display.h ****         do
ARM GAS  /var/folders/z2/7_lhr9dn53s9tj4s0rwtyswm0000gn/T//ccRFfwbB.s 			page 36


 337:libDaisy//src/hid/disp/display.h ****         {
 338:libDaisy//src/hid/disp/display.h ****             if(!circle)
 339:libDaisy//src/hid/disp/display.h ****             {
 340:libDaisy//src/hid/disp/display.h ****                 t_sxy  = start_x * t_y;
 341:libDaisy//src/hid/disp/display.h ****                 t_syx  = start_y * t_x;
 342:libDaisy//src/hid/disp/display.h ****                 t_sxny = start_x * -t_y;
 343:libDaisy//src/hid/disp/display.h ****                 t_synx = start_y * -t_x;
 344:libDaisy//src/hid/disp/display.h ****                 t_exy  = end_x * t_y;
 345:libDaisy//src/hid/disp/display.h ****                 t_eyx  = end_y * t_x;
 346:libDaisy//src/hid/disp/display.h ****                 t_exny = end_x * -t_y;
 347:libDaisy//src/hid/disp/display.h ****                 t_eynx = end_y * -t_x;
 348:libDaisy//src/hid/disp/display.h **** 
 349:libDaisy//src/hid/disp/display.h ****                 if(sweep > 180)
 350:libDaisy//src/hid/disp/display.h ****                 {
 351:libDaisy//src/hid/disp/display.h ****                     d1 = (t_sxy - t_synx < 0 || t_exy - t_eynx > 0);
 352:libDaisy//src/hid/disp/display.h ****                     d2 = (t_sxy - t_syx < 0 || t_exy - t_eyx > 0);
 353:libDaisy//src/hid/disp/display.h ****                     d3 = (t_sxny - t_syx < 0 || t_exny - t_eyx > 0);
 354:libDaisy//src/hid/disp/display.h ****                     d4 = (t_sxny - t_synx < 0 || t_exny - t_eynx > 0);
 355:libDaisy//src/hid/disp/display.h ****                 }
 356:libDaisy//src/hid/disp/display.h ****                 else
 357:libDaisy//src/hid/disp/display.h ****                 {
 358:libDaisy//src/hid/disp/display.h ****                     d1 = (t_sxy - t_synx < 0 && t_exy - t_eynx > 0);
 359:libDaisy//src/hid/disp/display.h ****                     d2 = (t_sxy - t_syx < 0 && t_exy - t_eyx > 0);
 360:libDaisy//src/hid/disp/display.h ****                     d3 = (t_sxny - t_syx < 0 && t_exny - t_eyx > 0);
 361:libDaisy//src/hid/disp/display.h ****                     d4 = (t_sxny - t_synx < 0 && t_exny - t_eynx > 0);
 362:libDaisy//src/hid/disp/display.h ****                 }
 363:libDaisy//src/hid/disp/display.h ****             }
 364:libDaisy//src/hid/disp/display.h **** 
 365:libDaisy//src/hid/disp/display.h ****             if(d1)
 366:libDaisy//src/hid/disp/display.h ****                 ((ChildType*)(this))
 367:libDaisy//src/hid/disp/display.h ****                     ->ChildType::DrawPixel(x - t_x, y + t_y, on);
 368:libDaisy//src/hid/disp/display.h ****             if(d2)
 369:libDaisy//src/hid/disp/display.h ****                 ((ChildType*)(this))
 370:libDaisy//src/hid/disp/display.h ****                     ->ChildType::DrawPixel(x + t_x, y + t_y, on);
 371:libDaisy//src/hid/disp/display.h ****             if(d3)
 372:libDaisy//src/hid/disp/display.h ****                 ((ChildType*)(this))
 373:libDaisy//src/hid/disp/display.h ****                     ->ChildType::DrawPixel(x + t_x, y - t_y, on);
 374:libDaisy//src/hid/disp/display.h ****             if(d4)
 375:libDaisy//src/hid/disp/display.h ****                 ((ChildType*)(this))
 376:libDaisy//src/hid/disp/display.h ****                     ->ChildType::DrawPixel(x - t_x, y - t_y, on);
 377:libDaisy//src/hid/disp/display.h **** 
 378:libDaisy//src/hid/disp/display.h ****             e2 = err;
 379:libDaisy//src/hid/disp/display.h ****             if(e2 <= t_y)
 380:libDaisy//src/hid/disp/display.h ****             {
 381:libDaisy//src/hid/disp/display.h ****                 t_y++;
 382:libDaisy//src/hid/disp/display.h ****                 err = err + (t_y * 2 + 1);
 383:libDaisy//src/hid/disp/display.h ****                 if(-t_x == t_y && e2 <= t_x)
 384:libDaisy//src/hid/disp/display.h ****                 {
 385:libDaisy//src/hid/disp/display.h ****                     e2 = 0;
 386:libDaisy//src/hid/disp/display.h ****                 }
 387:libDaisy//src/hid/disp/display.h ****             }
 388:libDaisy//src/hid/disp/display.h ****             if(e2 > t_x)
 389:libDaisy//src/hid/disp/display.h ****             {
 390:libDaisy//src/hid/disp/display.h ****                 t_x++;
 391:libDaisy//src/hid/disp/display.h ****                 err = err + (t_x * 2 + 1);
 392:libDaisy//src/hid/disp/display.h ****             }
 393:libDaisy//src/hid/disp/display.h ****         } while(t_x <= 0);
ARM GAS  /var/folders/z2/7_lhr9dn53s9tj4s0rwtyswm0000gn/T//ccRFfwbB.s 			page 37


 394:libDaisy//src/hid/disp/display.h ****     }
 395:libDaisy//src/hid/disp/display.h **** 
 396:libDaisy//src/hid/disp/display.h ****     char WriteChar(char ch, FontDef font, bool on) override
 397:libDaisy//src/hid/disp/display.h ****     {
 398:libDaisy//src/hid/disp/display.h ****         uint32_t i, b, j;
 399:libDaisy//src/hid/disp/display.h **** 
 400:libDaisy//src/hid/disp/display.h ****         // Check if character is valid
 401:libDaisy//src/hid/disp/display.h ****         if(ch < 32 || ch > 126)
 402:libDaisy//src/hid/disp/display.h ****             return 0;
 403:libDaisy//src/hid/disp/display.h **** 
 404:libDaisy//src/hid/disp/display.h ****         // Check remaining space on current line
 405:libDaisy//src/hid/disp/display.h ****         if(Width() < (currentX_ + font.FontWidth)
 406:libDaisy//src/hid/disp/display.h ****            || Height() < (currentY_ + font.FontHeight))
 407:libDaisy//src/hid/disp/display.h ****         {
 408:libDaisy//src/hid/disp/display.h ****             // Not enough space on current line
 409:libDaisy//src/hid/disp/display.h ****             return 0;
 410:libDaisy//src/hid/disp/display.h ****         }
 411:libDaisy//src/hid/disp/display.h **** 
 412:libDaisy//src/hid/disp/display.h ****         // Use the font to write
 413:libDaisy//src/hid/disp/display.h ****         for(i = 0; i < font.FontHeight; i++)
 414:libDaisy//src/hid/disp/display.h ****         {
 415:libDaisy//src/hid/disp/display.h ****             b = font.data[(ch - 32) * font.FontHeight + i];
 416:libDaisy//src/hid/disp/display.h ****             for(j = 0; j < font.FontWidth; j++)
 417:libDaisy//src/hid/disp/display.h ****             {
 418:libDaisy//src/hid/disp/display.h ****                 if((b << j) & 0x8000)
 419:libDaisy//src/hid/disp/display.h ****                 {
 420:libDaisy//src/hid/disp/display.h ****                     ((ChildType*)(this))
 421:libDaisy//src/hid/disp/display.h ****                         ->ChildType::DrawPixel(
 422:libDaisy//src/hid/disp/display.h ****                             currentX_ + j, (currentY_ + i), on);
 423:libDaisy//src/hid/disp/display.h ****                 }
 424:libDaisy//src/hid/disp/display.h ****                 else
 425:libDaisy//src/hid/disp/display.h ****                 {
 426:libDaisy//src/hid/disp/display.h ****                     ((ChildType*)(this))
 427:libDaisy//src/hid/disp/display.h ****                         ->ChildType::DrawPixel(
 428:libDaisy//src/hid/disp/display.h ****                             currentX_ + j, (currentY_ + i), !on);
 429:libDaisy//src/hid/disp/display.h ****                 }
 430:libDaisy//src/hid/disp/display.h ****             }
 431:libDaisy//src/hid/disp/display.h ****         }
 432:libDaisy//src/hid/disp/display.h **** 
 433:libDaisy//src/hid/disp/display.h ****         // The current space is now taken
 434:libDaisy//src/hid/disp/display.h ****         SetCursor(currentX_ + font.FontWidth, currentY_);
 435:libDaisy//src/hid/disp/display.h **** 
 436:libDaisy//src/hid/disp/display.h ****         // Return written char for validation
 437:libDaisy//src/hid/disp/display.h ****         return ch;
 438:libDaisy//src/hid/disp/display.h ****     }
 439:libDaisy//src/hid/disp/display.h **** 
 440:libDaisy//src/hid/disp/display.h ****     char WriteString(const char* str, FontDef font, bool on) override
 590              		.loc 3 440 10 is_stmt 1 view -0
 591              		.cfi_startproc
 592              		@ args = 4, pretend = 0, frame = 32
 593              		@ frame_needed = 0, uses_anonymous_args = 0
 594              		.loc 3 440 10 is_stmt 0 view .LVU130
 595 0000 2DE9F04F 		push	{r4, r5, r6, r7, r8, r9, r10, fp, lr}
 596              		.cfi_def_cfa_offset 36
 597              		.cfi_offset 4, -36
 598              		.cfi_offset 5, -32
 599              		.cfi_offset 6, -28
ARM GAS  /var/folders/z2/7_lhr9dn53s9tj4s0rwtyswm0000gn/T//ccRFfwbB.s 			page 38


 600              		.cfi_offset 7, -24
 601              		.cfi_offset 8, -20
 602              		.cfi_offset 9, -16
 603              		.cfi_offset 10, -12
 604              		.cfi_offset 11, -8
 605              		.cfi_offset 14, -4
 606 0004 89B0     		sub	sp, sp, #36
 607              		.cfi_def_cfa_offset 72
 608              		.loc 3 440 10 view .LVU131
 609 0006 08AC     		add	r4, sp, #32
 610 0008 9DF84870 		ldrb	r7, [sp, #72]	@ zero_extendqisi2
 611 000c 0191     		str	r1, [sp, #4]
 612 000e 04E90C00 		stmdb	r4, {r2, r3}
 441:libDaisy//src/hid/disp/display.h ****     {
 442:libDaisy//src/hid/disp/display.h ****         // Write until null-byte
 443:libDaisy//src/hid/disp/display.h ****         while(*str)
 613              		.loc 3 443 9 is_stmt 1 view .LVU132
 614 0012 0B78     		ldrb	r3, [r1]	@ zero_extendqisi2
 615 0014 002B     		cmp	r3, #0
 616 0016 00F0AB80 		beq	.L47
 617 001a 1A46     		mov	r2, r3
 618 001c 9DF81880 		ldrb	r8, [sp, #24]	@ zero_extendqisi2
 619 0020 9DF81930 		ldrb	r3, [sp, #25]	@ zero_extendqisi2
 620 0024 0646     		mov	r6, r0
 621 0026 4546     		mov	r5, r8
 622 0028 9046     		mov	r8, r2
 623 002a 0393     		str	r3, [sp, #12]
 624 002c 079B     		ldr	r3, [sp, #28]
 625 002e 0593     		str	r3, [sp, #20]
 626              	.LVL36:
 627              	.L48:
 628              	.LBB493:
 629              	.LBI493:
 396:libDaisy//src/hid/disp/display.h ****     {
 630              		.loc 3 396 10 view .LVU133
 631              	.LBB494:
 401:libDaisy//src/hid/disp/display.h ****             return 0;
 632              		.loc 3 401 20 is_stmt 0 view .LVU134
 633 0030 A8F12004 		sub	r4, r8, #32
 401:libDaisy//src/hid/disp/display.h ****             return 0;
 634              		.loc 3 401 9 view .LVU135
 635 0034 E3B2     		uxtb	r3, r4
 636 0036 5E2B     		cmp	r3, #94
 637 0038 00F29E80 		bhi	.L29
 405:libDaisy//src/hid/disp/display.h ****            || Height() < (currentY_ + font.FontHeight))
 638              		.loc 3 405 17 view .LVU136
 639 003c 3368     		ldr	r3, [r6]
 640 003e 5E4A     		ldr	r2, .L69
 641 0040 DB68     		ldr	r3, [r3, #12]
 642 0042 9342     		cmp	r3, r2
 643 0044 40F09B80 		bne	.L62
 644 0048 8020     		movs	r0, #128
 645              	.L28:
 405:libDaisy//src/hid/disp/display.h ****            || Height() < (currentY_ + font.FontHeight))
 646              		.loc 3 405 23 view .LVU137
 647 004a B388     		ldrh	r3, [r6, #4]
 405:libDaisy//src/hid/disp/display.h ****            || Height() < (currentY_ + font.FontHeight))
ARM GAS  /var/folders/z2/7_lhr9dn53s9tj4s0rwtyswm0000gn/T//ccRFfwbB.s 			page 39


 648              		.loc 3 405 33 view .LVU138
 649 004c 2B44     		add	r3, r3, r5
 406:libDaisy//src/hid/disp/display.h ****         {
 650              		.loc 3 406 12 view .LVU139
 651 004e 8342     		cmp	r3, r0
 652 0050 00F39280 		bgt	.L29
 406:libDaisy//src/hid/disp/display.h ****         {
 653              		.loc 3 406 21 view .LVU140
 654 0054 3368     		ldr	r3, [r6]
 655 0056 594A     		ldr	r2, .L69+4
 656 0058 9B68     		ldr	r3, [r3, #8]
 657 005a 9342     		cmp	r3, r2
 658 005c 40F09280 		bne	.L63
 659 0060 4020     		movs	r0, #64
 660              	.L30:
 406:libDaisy//src/hid/disp/display.h ****         {
 661              		.loc 3 406 27 view .LVU141
 662 0062 F188     		ldrh	r1, [r6, #6]
 406:libDaisy//src/hid/disp/display.h ****         {
 663              		.loc 3 406 37 view .LVU142
 664 0064 039A     		ldr	r2, [sp, #12]
 406:libDaisy//src/hid/disp/display.h ****         {
 665              		.loc 3 406 27 view .LVU143
 666 0066 0291     		str	r1, [sp, #8]
 406:libDaisy//src/hid/disp/display.h ****         {
 667              		.loc 3 406 37 view .LVU144
 668 0068 8B18     		adds	r3, r1, r2
 406:libDaisy//src/hid/disp/display.h ****         {
 669              		.loc 3 406 12 view .LVU145
 670 006a 8342     		cmp	r3, r0
 671 006c 00F38480 		bgt	.L29
 672              	.LVL37:
 413:libDaisy//src/hid/disp/display.h ****         {
 673              		.loc 3 413 22 is_stmt 1 view .LVU146
 674 0070 002A     		cmp	r2, #0
 675 0072 00F09180 		beq	.L31
 415:libDaisy//src/hid/disp/display.h ****             for(j = 0; j < font.FontWidth; j++)
 676              		.loc 3 415 37 is_stmt 0 view .LVU147
 677 0076 02FB04F4 		mul	r4, r2, r4
 678 007a 6FF00049 		mvn	r9, #-2147483648
 679 007e 059B     		ldr	r3, [sp, #20]
 680 0080 A144     		add	r9, r9, r4
 681 0082 1444     		add	r4, r4, r2
 434:libDaisy//src/hid/disp/display.h **** 
 682              		.loc 3 434 19 view .LVU148
 683 0084 B6F804B0 		ldrh	fp, [r6, #4]
 684 0088 03EB4909 		add	r9, r3, r9, lsl #1
 685 008c 023B     		subs	r3, r3, #2
 686 008e CDF81080 		str	r8, [sp, #16]
 687 0092 03EB4403 		add	r3, r3, r4, lsl #1
 688 0096 0C46     		mov	r4, r1
 689 0098 9A46     		mov	r10, r3
 690              	.LVL38:
 691              	.L34:
 415:libDaisy//src/hid/disp/display.h ****             for(j = 0; j < font.FontWidth; j++)
 692              		.loc 3 415 15 view .LVU149
 693 009a 39F802CF 		ldrh	ip, [r9, #2]!
ARM GAS  /var/folders/z2/7_lhr9dn53s9tj4s0rwtyswm0000gn/T//ccRFfwbB.s 			page 40


 694              	.LVL39:
 416:libDaisy//src/hid/disp/display.h ****             {
 695              		.loc 3 416 26 is_stmt 1 view .LVU150
 696 009e A5B3     		cbz	r5, .L39
 697              	.LBB495:
 698              	.LBB496:
 699              	.LBB497:
 700              	.LBB498:
 701              	.LBB499:
 359:libDaisy//src/dev/oled_ssd130x.h ****     }
 702              		.loc 12 359 55 is_stmt 0 view .LVU151
 703 00a0 04F00703 		and	r3, r4, #7
 359:libDaisy//src/dev/oled_ssd130x.h ****     }
 704              		.loc 12 359 49 view .LVU152
 705 00a4 4FF0010E 		mov	lr, #1
 359:libDaisy//src/dev/oled_ssd130x.h ****     }
 706              		.loc 12 359 28 view .LVU153
 707 00a8 E208     		lsrs	r2, r4, #3
 708 00aa 5946     		mov	r1, fp
 359:libDaisy//src/dev/oled_ssd130x.h ****     }
 709              		.loc 12 359 49 view .LVU154
 710 00ac 0EFA03FE 		lsl	lr, lr, r3
 711 00b0 0BF11403 		add	r3, fp, #20
 359:libDaisy//src/dev/oled_ssd130x.h ****     }
 712              		.loc 12 359 42 view .LVU155
 713 00b4 4FFA8EFE 		sxtb	lr, lr
 714 00b8 03EBC212 		add	r2, r3, r2, lsl #7
 715              	.LBE499:
 716              	.LBE498:
 717              	.LBE497:
 718              	.LBE496:
 719              	.LBE495:
 416:libDaisy//src/hid/disp/display.h ****             {
 720              		.loc 3 416 19 view .LVU156
 721 00bc 0023     		movs	r3, #0
 722              	.LBB517:
 723              	.LBB512:
 724              	.LBB507:
 725              	.LBB503:
 726              	.LBB500:
 359:libDaisy//src/dev/oled_ssd130x.h ****     }
 727              		.loc 12 359 42 view .LVU157
 728 00be 6FEA0E08 		mvn	r8, lr
 729 00c2 3244     		add	r2, r2, r6
 730 00c4 0DE0     		b	.L40
 731              	.LVL40:
 732              	.L64:
 359:libDaisy//src/dev/oled_ssd130x.h ****     }
 733              		.loc 12 359 42 view .LVU158
 734              	.LBE500:
 735              	.LBE503:
 736              	.LBE507:
 737              	.LBE512:
 738              	.LBE517:
 739              	.LBB518:
 740              	.LBI518:
  42:libDaisy//src/hid/disp/oled_display.h ****     {
ARM GAS  /var/folders/z2/7_lhr9dn53s9tj4s0rwtyswm0000gn/T//ccRFfwbB.s 			page 41


 741              		.loc 2 42 10 is_stmt 1 view .LVU159
 742              	.LBB519:
 743              	.LBI519:
 352:libDaisy//src/dev/oled_ssd130x.h ****     {
 744              		.loc 12 352 10 view .LVU160
 745              	.LBB520:
 354:libDaisy//src/dev/oled_ssd130x.h ****             return;
 746              		.loc 12 354 9 is_stmt 0 view .LVU161
 747 00c6 7F29     		cmp	r1, #127
 748 00c8 06D8     		bhi	.L36
 749 00ca 3F2C     		cmp	r4, #63
 750 00cc 04D8     		bhi	.L36
 357:libDaisy//src/dev/oled_ssd130x.h ****         else
 751              		.loc 12 357 42 view .LVU162
 752 00ce 1078     		ldrb	r0, [r2]	@ zero_extendqisi2
 356:libDaisy//src/dev/oled_ssd130x.h ****             buffer_[x + (y / 8) * width] |= (1 << (y % 8));
 753              		.loc 12 356 9 view .LVU163
 754 00d0 97B1     		cbz	r7, .L38
 755              	.L61:
 356:libDaisy//src/dev/oled_ssd130x.h ****             buffer_[x + (y / 8) * width] |= (1 << (y % 8));
 756              		.loc 12 356 9 view .LVU164
 757              	.LBE520:
 758              	.LBE519:
 759              	.LBE518:
 760              	.LBB521:
 761              	.LBB513:
 762              	.LBB508:
 357:libDaisy//src/dev/oled_ssd130x.h ****         else
 763              		.loc 12 357 42 view .LVU165
 764 00d2 4EEA0000 		orr	r0, lr, r0
 765 00d6 1070     		strb	r0, [r2]
 766              	.L36:
 767              	.LBE508:
 768              	.LBE513:
 769              	.LBE521:
 416:libDaisy//src/hid/disp/display.h ****             {
 770              		.loc 3 416 13 is_stmt 1 view .LVU166
 771 00d8 0133     		adds	r3, r3, #1
 772              	.LVL41:
 416:libDaisy//src/hid/disp/display.h ****             {
 773              		.loc 3 416 26 view .LVU167
 774 00da 0132     		adds	r2, r2, #1
 775 00dc 0131     		adds	r1, r1, #1
 776 00de AB42     		cmp	r3, r5
 777 00e0 13D0     		beq	.L39
 778              	.LVL42:
 779              	.L40:
 418:libDaisy//src/hid/disp/display.h ****                 {
 780              		.loc 3 418 23 is_stmt 0 view .LVU168
 781 00e2 0CFA03F0 		lsl	r0, ip, r3
 418:libDaisy//src/hid/disp/display.h ****                 {
 782              		.loc 3 418 17 view .LVU169
 783 00e6 0004     		lsls	r0, r0, #16
 784 00e8 EDD4     		bmi	.L64
 785              	.LVL43:
 786              	.LBB522:
 787              	.LBI495:
ARM GAS  /var/folders/z2/7_lhr9dn53s9tj4s0rwtyswm0000gn/T//ccRFfwbB.s 			page 42


  42:libDaisy//src/hid/disp/oled_display.h ****     {
 788              		.loc 2 42 10 is_stmt 1 view .LVU170
 789              	.LBB514:
 790              	.LBI496:
 352:libDaisy//src/dev/oled_ssd130x.h ****     {
 791              		.loc 12 352 10 view .LVU171
 792              	.LBB509:
 354:libDaisy//src/dev/oled_ssd130x.h ****             return;
 793              		.loc 12 354 9 is_stmt 0 view .LVU172
 794 00ea 7F29     		cmp	r1, #127
 795 00ec F4D8     		bhi	.L36
 796 00ee 3F2C     		cmp	r4, #63
 797 00f0 F2D8     		bhi	.L36
 357:libDaisy//src/dev/oled_ssd130x.h ****         else
 798              		.loc 12 357 42 view .LVU173
 799 00f2 1078     		ldrb	r0, [r2]	@ zero_extendqisi2
 356:libDaisy//src/dev/oled_ssd130x.h ****             buffer_[x + (y / 8) * width] |= (1 << (y % 8));
 800              		.loc 12 356 9 view .LVU174
 801 00f4 002F     		cmp	r7, #0
 802 00f6 ECD0     		beq	.L61
 803              	.L38:
 804              	.LVL44:
 805              	.LBB504:
 806              	.LBI498:
 352:libDaisy//src/dev/oled_ssd130x.h ****     {
 807              		.loc 12 352 10 is_stmt 1 view .LVU175
 352:libDaisy//src/dev/oled_ssd130x.h ****     {
 808              		.loc 12 352 10 is_stmt 0 view .LVU176
 809              	.LBE504:
 810              	.LBE509:
 811              	.LBE514:
 812              	.LBE522:
 416:libDaisy//src/hid/disp/display.h ****             {
 813              		.loc 3 416 13 view .LVU177
 814 00f8 0133     		adds	r3, r3, #1
 815              	.LVL45:
 816              	.LBB523:
 817              	.LBB515:
 818              	.LBB510:
 819              	.LBB505:
 820              	.LBB501:
 359:libDaisy//src/dev/oled_ssd130x.h ****     }
 821              		.loc 12 359 42 view .LVU178
 822 00fa 08EA0000 		and	r0, r8, r0
 823              	.LBE501:
 824              	.LBE505:
 825              	.LBE510:
 826              	.LBE515:
 827              	.LBE523:
 416:libDaisy//src/hid/disp/display.h ****             {
 828              		.loc 3 416 26 view .LVU179
 829 00fe 0132     		adds	r2, r2, #1
 830 0100 0131     		adds	r1, r1, #1
 831 0102 AB42     		cmp	r3, r5
 832              	.LBB524:
 833              	.LBB516:
 834              	.LBB511:
ARM GAS  /var/folders/z2/7_lhr9dn53s9tj4s0rwtyswm0000gn/T//ccRFfwbB.s 			page 43


 835              	.LBB506:
 836              	.LBB502:
 359:libDaisy//src/dev/oled_ssd130x.h ****     }
 837              		.loc 12 359 42 view .LVU180
 838 0104 02F8010C 		strb	r0, [r2, #-1]
 359:libDaisy//src/dev/oled_ssd130x.h ****     }
 839              		.loc 12 359 42 view .LVU181
 840              	.LBE502:
 841              	.LBE506:
 842              	.LBE511:
 843              	.LBE516:
 844              	.LBE524:
 416:libDaisy//src/hid/disp/display.h ****             {
 845              		.loc 3 416 13 is_stmt 1 view .LVU182
 846              	.LVL46:
 416:libDaisy//src/hid/disp/display.h ****             {
 847              		.loc 3 416 26 view .LVU183
 848 0108 EBD1     		bne	.L40
 849              	.LVL47:
 850              	.L39:
 413:libDaisy//src/hid/disp/display.h ****         {
 851              		.loc 3 413 9 view .LVU184
 413:libDaisy//src/hid/disp/display.h ****         {
 852              		.loc 3 413 22 view .LVU185
 853 010a D145     		cmp	r9, r10
 854 010c 04F10104 		add	r4, r4, #1
 855 0110 C3D1     		bne	.L34
 856 0112 DDF81080 		ldr	r8, [sp, #16]
 857              	.LVL48:
 858              	.L33:
 859              	.LBB525:
 860              	.LBB526:
 173:libDaisy//src/hid/disp/display.h ****         currentY_ = (y >= Height()) ? Height() - 1 : y;
 861              		.loc 3 173 33 is_stmt 0 view .LVU186
 862 0116 3268     		ldr	r2, [r6]
 863              	.LBE526:
 864              	.LBE525:
 434:libDaisy//src/hid/disp/display.h **** 
 865              		.loc 3 434 18 view .LVU187
 866 0118 0BEB0504 		add	r4, fp, r5
 867 011c 2649     		ldr	r1, .L69
 868              	.LBB531:
 869              	.LBB527:
 173:libDaisy//src/hid/disp/display.h ****         currentY_ = (y >= Height()) ? Height() - 1 : y;
 870              		.loc 3 173 33 view .LVU188
 871 011e D368     		ldr	r3, [r2, #12]
 872              	.LBE527:
 873              	.LBE531:
 434:libDaisy//src/hid/disp/display.h **** 
 874              		.loc 3 434 18 view .LVU189
 875 0120 A4B2     		uxth	r4, r4
 876              	.LVL49:
 877              	.LBB532:
 878              	.LBI525:
 171:libDaisy//src/hid/disp/display.h ****     {
 879              		.loc 3 171 10 is_stmt 1 view .LVU190
 880              	.LBB528:
ARM GAS  /var/folders/z2/7_lhr9dn53s9tj4s0rwtyswm0000gn/T//ccRFfwbB.s 			page 44


 173:libDaisy//src/hid/disp/display.h ****         currentY_ = (y >= Height()) ? Height() - 1 : y;
 881              		.loc 3 173 9 view .LVU191
 882 0122 8B42     		cmp	r3, r1
 883 0124 34D1     		bne	.L65
 173:libDaisy//src/hid/disp/display.h ****         currentY_ = (y >= Height()) ? Height() - 1 : y;
 884              		.loc 3 173 33 is_stmt 0 view .LVU192
 885 0126 8020     		movs	r0, #128
 886              	.L41:
 173:libDaisy//src/hid/disp/display.h ****         currentY_ = (y >= Height()) ? Height() - 1 : y;
 887              		.loc 3 173 19 view .LVU193
 888 0128 8442     		cmp	r4, r0
 889 012a 04D3     		bcc	.L42
 173:libDaisy//src/hid/disp/display.h ****         currentY_ = (y >= Height()) ? Height() - 1 : y;
 890              		.loc 3 173 44 view .LVU194
 891 012c D368     		ldr	r3, [r2, #12]
 892 012e 2249     		ldr	r1, .L69
 893 0130 8B42     		cmp	r3, r1
 894 0132 3AD1     		bne	.L66
 895 0134 7F24     		movs	r4, #127
 896              	.LVL50:
 897              	.L42:
 174:libDaisy//src/hid/disp/display.h ****     }
 898              		.loc 3 174 34 view .LVU195
 899 0136 9368     		ldr	r3, [r2, #8]
 900 0138 204A     		ldr	r2, .L69+4
 173:libDaisy//src/hid/disp/display.h ****         currentY_ = (y >= Height()) ? Height() - 1 : y;
 901              		.loc 3 173 19 view .LVU196
 902 013a B480     		strh	r4, [r6, #4]	@ movhi
 174:libDaisy//src/hid/disp/display.h ****     }
 903              		.loc 3 174 9 is_stmt 1 view .LVU197
 904 013c 9342     		cmp	r3, r2
 905 013e 24D1     		bne	.L67
 174:libDaisy//src/hid/disp/display.h ****     }
 906              		.loc 3 174 34 is_stmt 0 view .LVU198
 907 0140 4020     		movs	r0, #64
 908              	.L44:
 174:libDaisy//src/hid/disp/display.h ****     }
 909              		.loc 3 174 19 view .LVU199
 910 0142 029B     		ldr	r3, [sp, #8]
 911 0144 8342     		cmp	r3, r0
 912 0146 06D3     		bcc	.L45
 174:libDaisy//src/hid/disp/display.h ****     }
 913              		.loc 3 174 46 view .LVU200
 914 0148 3368     		ldr	r3, [r6]
 915 014a 1C4A     		ldr	r2, .L69+4
 916 014c 9B68     		ldr	r3, [r3, #8]
 917 014e 9342     		cmp	r3, r2
 918 0150 25D1     		bne	.L68
 919 0152 3F23     		movs	r3, #63
 920 0154 0293     		str	r3, [sp, #8]
 921              	.LVL51:
 922              	.L45:
 174:libDaisy//src/hid/disp/display.h ****     }
 923              		.loc 3 174 19 view .LVU201
 924 0156 029B     		ldr	r3, [sp, #8]
 925 0158 F380     		strh	r3, [r6, #6]	@ movhi
 926              	.LVL52:
ARM GAS  /var/folders/z2/7_lhr9dn53s9tj4s0rwtyswm0000gn/T//ccRFfwbB.s 			page 45


 927              	.L27:
 174:libDaisy//src/hid/disp/display.h ****     }
 928              		.loc 3 174 19 view .LVU202
 929              	.LBE528:
 930              	.LBE532:
 931              	.LBE494:
 932              	.LBE493:
 444:libDaisy//src/hid/disp/display.h ****         {
 445:libDaisy//src/hid/disp/display.h ****             if(((ChildType*)(this))->ChildType::WriteChar(*str, font, on)
 446:libDaisy//src/hid/disp/display.h ****                != *str)
 933              		.loc 3 446 16 view .LVU203
 934 015a 019B     		ldr	r3, [sp, #4]
 935 015c 1878     		ldrb	r0, [r3]	@ zero_extendqisi2
 445:libDaisy//src/hid/disp/display.h ****                != *str)
 936              		.loc 3 445 13 view .LVU204
 937 015e 4045     		cmp	r0, r8
 938 0160 07D1     		bne	.L25
 939              	.LVL53:
 443:libDaisy//src/hid/disp/display.h ****         {
 940              		.loc 3 443 9 is_stmt 1 view .LVU205
 941 0162 13F8018F 		ldrb	r8, [r3, #1]!	@ zero_extendqisi2
 942              	.LVL54:
 443:libDaisy//src/hid/disp/display.h ****         {
 943              		.loc 3 443 9 is_stmt 0 view .LVU206
 944 0166 0193     		str	r3, [sp, #4]
 945 0168 B8F1000F 		cmp	r8, #0
 946 016c 7FF460AF 		bne	.L48
 947              	.LVL55:
 948              	.L47:
 949              	.LBB537:
 950              	.LBB535:
 402:libDaisy//src/hid/disp/display.h **** 
 951              		.loc 3 402 20 view .LVU207
 952 0170 0020     		movs	r0, #0
 953              	.L25:
 954              	.LBE535:
 955              	.LBE537:
 447:libDaisy//src/hid/disp/display.h ****             {
 448:libDaisy//src/hid/disp/display.h ****                 // Char could not be written
 449:libDaisy//src/hid/disp/display.h ****                 return *str;
 450:libDaisy//src/hid/disp/display.h ****             }
 451:libDaisy//src/hid/disp/display.h **** 
 452:libDaisy//src/hid/disp/display.h ****             // Next char
 453:libDaisy//src/hid/disp/display.h ****             str++;
 454:libDaisy//src/hid/disp/display.h ****         }
 455:libDaisy//src/hid/disp/display.h **** 
 456:libDaisy//src/hid/disp/display.h ****         // Everything ok
 457:libDaisy//src/hid/disp/display.h ****         return *str;
 458:libDaisy//src/hid/disp/display.h ****     }
 956              		.loc 3 458 5 view .LVU208
 957 0172 09B0     		add	sp, sp, #36
 958              		.cfi_remember_state
 959              		.cfi_def_cfa_offset 36
 960              		@ sp needed
 961 0174 BDE8F08F 		pop	{r4, r5, r6, r7, r8, r9, r10, fp, pc}
 962              	.LVL56:
 963              	.L29:
ARM GAS  /var/folders/z2/7_lhr9dn53s9tj4s0rwtyswm0000gn/T//ccRFfwbB.s 			page 46


 964              		.cfi_restore_state
 965              	.LBB538:
 966              	.LBB536:
 402:libDaisy//src/hid/disp/display.h **** 
 967              		.loc 3 402 20 view .LVU209
 968 0178 4FF00008 		mov	r8, #0
 969              	.LVL57:
 402:libDaisy//src/hid/disp/display.h **** 
 970              		.loc 3 402 20 view .LVU210
 971 017c EDE7     		b	.L27
 972              	.LVL58:
 973              	.L62:
 405:libDaisy//src/hid/disp/display.h ****            || Height() < (currentY_ + font.FontHeight))
 974              		.loc 3 405 17 view .LVU211
 975 017e 3046     		mov	r0, r6
 976 0180 9847     		blx	r3
 977              	.LVL59:
 978 0182 62E7     		b	.L28
 979              	.L63:
 406:libDaisy//src/hid/disp/display.h ****         {
 980              		.loc 3 406 21 view .LVU212
 981 0184 3046     		mov	r0, r6
 982 0186 9847     		blx	r3
 983              	.LVL60:
 984 0188 6BE7     		b	.L30
 985              	.LVL61:
 986              	.L67:
 987              	.LBB533:
 988              	.LBB529:
 174:libDaisy//src/hid/disp/display.h ****     }
 989              		.loc 3 174 33 view .LVU213
 990 018a 3046     		mov	r0, r6
 991 018c 9847     		blx	r3
 992              	.LVL62:
 993 018e D8E7     		b	.L44
 994              	.LVL63:
 995              	.L65:
 173:libDaisy//src/hid/disp/display.h ****         currentY_ = (y >= Height()) ? Height() - 1 : y;
 996              		.loc 3 173 32 view .LVU214
 997 0190 3046     		mov	r0, r6
 998 0192 9847     		blx	r3
 999              	.LVL64:
 173:libDaisy//src/hid/disp/display.h ****         currentY_ = (y >= Height()) ? Height() - 1 : y;
 1000              		.loc 3 173 44 view .LVU215
 1001 0194 3268     		ldr	r2, [r6]
 1002 0196 C7E7     		b	.L41
 1003              	.LVL65:
 1004              	.L31:
 173:libDaisy//src/hid/disp/display.h ****         currentY_ = (y >= Height()) ? Height() - 1 : y;
 1005              		.loc 3 173 44 view .LVU216
 1006              	.LBE529:
 1007              	.LBE533:
 434:libDaisy//src/hid/disp/display.h **** 
 1008              		.loc 3 434 19 view .LVU217
 1009 0198 B6F804B0 		ldrh	fp, [r6, #4]
 1010 019c BBE7     		b	.L33
 1011              	.LVL66:
ARM GAS  /var/folders/z2/7_lhr9dn53s9tj4s0rwtyswm0000gn/T//ccRFfwbB.s 			page 47


 1012              	.L68:
 1013              	.LBB534:
 1014              	.LBB530:
 174:libDaisy//src/hid/disp/display.h ****     }
 1015              		.loc 3 174 45 view .LVU218
 1016 019e 3046     		mov	r0, r6
 1017 01a0 9847     		blx	r3
 1018              	.LVL67:
 174:libDaisy//src/hid/disp/display.h ****     }
 1019              		.loc 3 174 19 view .LVU219
 1020 01a2 0138     		subs	r0, r0, #1
 1021 01a4 83B2     		uxth	r3, r0
 1022 01a6 0293     		str	r3, [sp, #8]
 1023              	.LVL68:
 174:libDaisy//src/hid/disp/display.h ****     }
 1024              		.loc 3 174 19 view .LVU220
 1025 01a8 D5E7     		b	.L45
 1026              	.LVL69:
 1027              	.L66:
 173:libDaisy//src/hid/disp/display.h ****         currentY_ = (y >= Height()) ? Height() - 1 : y;
 1028              		.loc 3 173 43 view .LVU221
 1029 01aa 3046     		mov	r0, r6
 1030 01ac 9847     		blx	r3
 1031              	.LVL70:
 173:libDaisy//src/hid/disp/display.h ****         currentY_ = (y >= Height()) ? Height() - 1 : y;
 1032              		.loc 3 173 19 view .LVU222
 1033 01ae 0138     		subs	r0, r0, #1
 174:libDaisy//src/hid/disp/display.h ****     }
 1034              		.loc 3 174 34 view .LVU223
 1035 01b0 3268     		ldr	r2, [r6]
 173:libDaisy//src/hid/disp/display.h ****         currentY_ = (y >= Height()) ? Height() - 1 : y;
 1036              		.loc 3 173 19 view .LVU224
 1037 01b2 84B2     		uxth	r4, r0
 1038              	.LVL71:
 173:libDaisy//src/hid/disp/display.h ****         currentY_ = (y >= Height()) ? Height() - 1 : y;
 1039              		.loc 3 173 19 view .LVU225
 1040 01b4 BFE7     		b	.L42
 1041              	.L70:
 1042 01b6 00BF     		.align	2
 1043              	.L69:
 1044 01b8 00000000 		.word	_ZNK5daisy11OledDisplayINS_13SSD130xDriverILj128ELj64ENS_24SSD130x4WireSpiTransportEEEE5Widt
 1045 01bc 00000000 		.word	_ZNK5daisy11OledDisplayINS_13SSD130xDriverILj128ELj64ENS_24SSD130x4WireSpiTransportEEEE6Heig
 1046              	.LBE530:
 1047              	.LBE534:
 1048              	.LBE536:
 1049              	.LBE538:
 1050              		.cfi_endproc
 1051              	.LFE5452:
 1053              		.section	.text._ZN5daisy25OneBitGraphicsDisplayImplINS_11OledDisplayINS_13SSD130xDriverILj128ELj64
 1054              		.align	1
 1055              		.p2align 2,,3
 1056              		.weak	_ZN5daisy25OneBitGraphicsDisplayImplINS_11OledDisplayINS_13SSD130xDriverILj128ELj64ENS_24SSD
 1057              		.syntax unified
 1058              		.thumb
 1059              		.thumb_func
 1061              	_ZN5daisy25OneBitGraphicsDisplayImplINS_11OledDisplayINS_13SSD130xDriverILj128ELj64ENS_24SSD130x4Wi
 1062              	.LVL72:
ARM GAS  /var/folders/z2/7_lhr9dn53s9tj4s0rwtyswm0000gn/T//ccRFfwbB.s 			page 48


 1063              	.LFB5451:
 396:libDaisy//src/hid/disp/display.h ****     {
 1064              		.loc 3 396 10 is_stmt 1 view -0
 1065              		.cfi_startproc
 1066              		@ args = 4, pretend = 0, frame = 16
 1067              		@ frame_needed = 0, uses_anonymous_args = 0
 396:libDaisy//src/hid/disp/display.h ****     {
 1068              		.loc 3 396 10 is_stmt 0 view .LVU227
 1069 0000 2DE9F04F 		push	{r4, r5, r6, r7, r8, r9, r10, fp, lr}
 1070              		.cfi_def_cfa_offset 36
 1071              		.cfi_offset 4, -36
 1072              		.cfi_offset 5, -32
 1073              		.cfi_offset 6, -28
 1074              		.cfi_offset 7, -24
 1075              		.cfi_offset 8, -20
 1076              		.cfi_offset 9, -16
 1077              		.cfi_offset 10, -12
 1078              		.cfi_offset 11, -8
 1079              		.cfi_offset 14, -4
 1080 0004 85B0     		sub	sp, sp, #20
 1081              		.cfi_def_cfa_offset 56
 1082              	.LVL73:
 401:libDaisy//src/hid/disp/display.h ****             return 0;
 1083              		.loc 3 401 20 view .LVU228
 1084 0006 A1F12005 		sub	r5, r1, #32
 396:libDaisy//src/hid/disp/display.h ****     {
 1085              		.loc 3 396 10 view .LVU229
 1086 000a 04AC     		add	r4, sp, #16
 1087 000c 9DF83870 		ldrb	r7, [sp, #56]	@ zero_extendqisi2
 1088 0010 0091     		str	r1, [sp]
 1089 0012 04E90C00 		stmdb	r4, {r2, r3}
 1090              	.LVL74:
 401:libDaisy//src/hid/disp/display.h ****             return 0;
 1091              		.loc 3 401 9 view .LVU230
 1092 0016 EBB2     		uxtb	r3, r5
 1093 0018 5E2B     		cmp	r3, #94
 1094 001a 00F29580 		bhi	.L75
 405:libDaisy//src/hid/disp/display.h ****            || Height() < (currentY_ + font.FontHeight))
 1095              		.loc 3 405 17 view .LVU231
 1096 001e 0368     		ldr	r3, [r0]
 1097 0020 8046     		mov	r8, r0
 1098 0022 5D4A     		ldr	r2, .L110
 1099 0024 DB68     		ldr	r3, [r3, #12]
 1100 0026 9DF80840 		ldrb	r4, [sp, #8]	@ zero_extendqisi2
 1101 002a 9342     		cmp	r3, r2
 1102 002c 9DF80960 		ldrb	r6, [sp, #9]	@ zero_extendqisi2
 1103 0030 40F09480 		bne	.L102
 1104 0034 8020     		movs	r0, #128
 1105              	.LVL75:
 1106              	.L74:
 405:libDaisy//src/hid/disp/display.h ****            || Height() < (currentY_ + font.FontHeight))
 1107              		.loc 3 405 23 view .LVU232
 1108 0036 B8F80430 		ldrh	r3, [r8, #4]
 405:libDaisy//src/hid/disp/display.h ****            || Height() < (currentY_ + font.FontHeight))
 1109              		.loc 3 405 33 view .LVU233
 1110 003a 2344     		add	r3, r3, r4
 406:libDaisy//src/hid/disp/display.h ****         {
ARM GAS  /var/folders/z2/7_lhr9dn53s9tj4s0rwtyswm0000gn/T//ccRFfwbB.s 			page 49


 1111              		.loc 3 406 12 view .LVU234
 1112 003c 8342     		cmp	r3, r0
 1113 003e 00F38380 		bgt	.L75
 406:libDaisy//src/hid/disp/display.h ****         {
 1114              		.loc 3 406 21 discriminator 2 view .LVU235
 1115 0042 D8F80030 		ldr	r3, [r8]
 1116 0046 554A     		ldr	r2, .L110+4
 1117 0048 9B68     		ldr	r3, [r3, #8]
 1118 004a 9342     		cmp	r3, r2
 1119 004c 40F08880 		bne	.L103
 406:libDaisy//src/hid/disp/display.h ****         {
 1120              		.loc 3 406 21 view .LVU236
 1121 0050 4020     		movs	r0, #64
 1122              	.L76:
 406:libDaisy//src/hid/disp/display.h ****         {
 1123              		.loc 3 406 27 discriminator 2 view .LVU237
 1124 0052 B8F80620 		ldrh	r2, [r8, #6]
 406:libDaisy//src/hid/disp/display.h ****         {
 1125              		.loc 3 406 37 discriminator 2 view .LVU238
 1126 0056 9319     		adds	r3, r2, r6
 406:libDaisy//src/hid/disp/display.h ****         {
 1127              		.loc 3 406 27 discriminator 2 view .LVU239
 1128 0058 0192     		str	r2, [sp, #4]
 406:libDaisy//src/hid/disp/display.h ****         {
 1129              		.loc 3 406 12 discriminator 2 view .LVU240
 1130 005a 8342     		cmp	r3, r0
 1131 005c 74DC     		bgt	.L75
 1132              	.LVL76:
 413:libDaisy//src/hid/disp/display.h ****         {
 1133              		.loc 3 413 22 is_stmt 1 view .LVU241
 1134 005e 002E     		cmp	r6, #0
 1135 0060 00F08980 		beq	.L77
 415:libDaisy//src/hid/disp/display.h ****             for(j = 0; j < font.FontWidth; j++)
 1136              		.loc 3 415 37 is_stmt 0 view .LVU242
 1137 0064 06FB05F5 		mul	r5, r6, r5
 1138 0068 6FF00040 		mvn	r0, #-2147483648
 415:libDaisy//src/hid/disp/display.h ****             for(j = 0; j < font.FontWidth; j++)
 1139              		.loc 3 415 22 view .LVU243
 1140 006c 039B     		ldr	r3, [sp, #12]
 1141 006e 9646     		mov	lr, r2
 1142 0070 2844     		add	r0, r0, r5
 1143 0072 2E44     		add	r6, r6, r5
 434:libDaisy//src/hid/disp/display.h **** 
 1144              		.loc 3 434 19 view .LVU244
 1145 0074 B8F804A0 		ldrh	r10, [r8, #4]
 1146 0078 03EB4000 		add	r0, r3, r0, lsl #1
 1147 007c 023B     		subs	r3, r3, #2
 1148 007e 03EB460B 		add	fp, r3, r6, lsl #1
 1149              	.LVL77:
 1150              	.L80:
 415:libDaisy//src/hid/disp/display.h ****             for(j = 0; j < font.FontWidth; j++)
 1151              		.loc 3 415 15 view .LVU245
 1152 0082 30F8026F 		ldrh	r6, [r0, #2]!
 1153              	.LVL78:
 416:libDaisy//src/hid/disp/display.h ****             {
 1154              		.loc 3 416 26 is_stmt 1 view .LVU246
 1155 0086 BCB3     		cbz	r4, .L85
ARM GAS  /var/folders/z2/7_lhr9dn53s9tj4s0rwtyswm0000gn/T//ccRFfwbB.s 			page 50


 1156              	.LBB569:
 1157              	.LBB570:
 1158              	.LBB571:
 1159              	.LBB572:
 1160              	.LBB573:
 359:libDaisy//src/dev/oled_ssd130x.h ****     }
 1161              		.loc 12 359 55 is_stmt 0 view .LVU247
 1162 0088 0EF00703 		and	r3, lr, #7
 359:libDaisy//src/dev/oled_ssd130x.h ****     }
 1163              		.loc 12 359 49 view .LVU248
 1164 008c 4FF0010C 		mov	ip, #1
 359:libDaisy//src/dev/oled_ssd130x.h ****     }
 1165              		.loc 12 359 28 view .LVU249
 1166 0090 4FEADE02 		lsr	r2, lr, #3
 1167 0094 5146     		mov	r1, r10
 359:libDaisy//src/dev/oled_ssd130x.h ****     }
 1168              		.loc 12 359 49 view .LVU250
 1169 0096 0CFA03FC 		lsl	ip, ip, r3
 1170 009a 0AF11403 		add	r3, r10, #20
 359:libDaisy//src/dev/oled_ssd130x.h ****     }
 1171              		.loc 12 359 42 view .LVU251
 1172 009e 4FFA8CFC 		sxtb	ip, ip
 1173 00a2 03EBC212 		add	r2, r3, r2, lsl #7
 1174              	.LBE573:
 1175              	.LBE572:
 1176              	.LBE571:
 1177              	.LBE570:
 1178              	.LBE569:
 416:libDaisy//src/hid/disp/display.h ****             {
 1179              		.loc 3 416 19 view .LVU252
 1180 00a6 0023     		movs	r3, #0
 1181              	.LBB591:
 1182              	.LBB586:
 1183              	.LBB581:
 1184              	.LBB577:
 1185              	.LBB574:
 359:libDaisy//src/dev/oled_ssd130x.h ****     }
 1186              		.loc 12 359 42 view .LVU253
 1187 00a8 6FEA0C09 		mvn	r9, ip
 1188 00ac 4244     		add	r2, r2, r8
 1189 00ae 0EE0     		b	.L86
 1190              	.LVL79:
 1191              	.L104:
 359:libDaisy//src/dev/oled_ssd130x.h ****     }
 1192              		.loc 12 359 42 view .LVU254
 1193              	.LBE574:
 1194              	.LBE577:
 1195              	.LBE581:
 1196              	.LBE586:
 1197              	.LBE591:
 1198              	.LBB592:
 1199              	.LBI592:
  42:libDaisy//src/hid/disp/oled_display.h ****     {
 1200              		.loc 2 42 10 is_stmt 1 view .LVU255
 1201              	.LBB593:
 1202              	.LBI593:
 352:libDaisy//src/dev/oled_ssd130x.h ****     {
ARM GAS  /var/folders/z2/7_lhr9dn53s9tj4s0rwtyswm0000gn/T//ccRFfwbB.s 			page 51


 1203              		.loc 12 352 10 view .LVU256
 1204              	.LBB594:
 354:libDaisy//src/dev/oled_ssd130x.h ****             return;
 1205              		.loc 12 354 9 is_stmt 0 view .LVU257
 1206 00b0 7F29     		cmp	r1, #127
 1207 00b2 07D8     		bhi	.L82
 1208 00b4 BEF13F0F 		cmp	lr, #63
 1209 00b8 04D8     		bhi	.L82
 357:libDaisy//src/dev/oled_ssd130x.h ****         else
 1210              		.loc 12 357 42 view .LVU258
 1211 00ba 1578     		ldrb	r5, [r2]	@ zero_extendqisi2
 356:libDaisy//src/dev/oled_ssd130x.h ****             buffer_[x + (y / 8) * width] |= (1 << (y % 8));
 1212              		.loc 12 356 9 view .LVU259
 1213 00bc 9FB1     		cbz	r7, .L84
 1214              	.L101:
 356:libDaisy//src/dev/oled_ssd130x.h ****             buffer_[x + (y / 8) * width] |= (1 << (y % 8));
 1215              		.loc 12 356 9 view .LVU260
 1216              	.LBE594:
 1217              	.LBE593:
 1218              	.LBE592:
 1219              	.LBB595:
 1220              	.LBB587:
 1221              	.LBB582:
 357:libDaisy//src/dev/oled_ssd130x.h ****         else
 1222              		.loc 12 357 42 view .LVU261
 1223 00be 4CEA0505 		orr	r5, ip, r5
 1224 00c2 1570     		strb	r5, [r2]
 1225              	.L82:
 1226              	.LBE582:
 1227              	.LBE587:
 1228              	.LBE595:
 416:libDaisy//src/hid/disp/display.h ****             {
 1229              		.loc 3 416 13 is_stmt 1 discriminator 2 view .LVU262
 1230 00c4 0133     		adds	r3, r3, #1
 1231              	.LVL80:
 416:libDaisy//src/hid/disp/display.h ****             {
 1232              		.loc 3 416 26 discriminator 2 view .LVU263
 1233 00c6 0132     		adds	r2, r2, #1
 1234 00c8 0131     		adds	r1, r1, #1
 1235 00ca 9C42     		cmp	r4, r3
 1236 00cc 14D0     		beq	.L85
 1237              	.LVL81:
 1238              	.L86:
 418:libDaisy//src/hid/disp/display.h ****                 {
 1239              		.loc 3 418 23 is_stmt 0 view .LVU264
 1240 00ce 06FA03F5 		lsl	r5, r6, r3
 418:libDaisy//src/hid/disp/display.h ****                 {
 1241              		.loc 3 418 17 view .LVU265
 1242 00d2 2D04     		lsls	r5, r5, #16
 1243 00d4 ECD4     		bmi	.L104
 1244              	.LVL82:
 1245              	.LBB596:
 1246              	.LBI569:
  42:libDaisy//src/hid/disp/oled_display.h ****     {
 1247              		.loc 2 42 10 is_stmt 1 view .LVU266
 1248              	.LBB588:
 1249              	.LBI570:
ARM GAS  /var/folders/z2/7_lhr9dn53s9tj4s0rwtyswm0000gn/T//ccRFfwbB.s 			page 52


 352:libDaisy//src/dev/oled_ssd130x.h ****     {
 1250              		.loc 12 352 10 view .LVU267
 1251              	.LBB583:
 354:libDaisy//src/dev/oled_ssd130x.h ****             return;
 1252              		.loc 12 354 9 is_stmt 0 view .LVU268
 1253 00d6 7F29     		cmp	r1, #127
 1254 00d8 F4D8     		bhi	.L82
 1255 00da BEF13F0F 		cmp	lr, #63
 1256 00de F1D8     		bhi	.L82
 357:libDaisy//src/dev/oled_ssd130x.h ****         else
 1257              		.loc 12 357 42 view .LVU269
 1258 00e0 1578     		ldrb	r5, [r2]	@ zero_extendqisi2
 356:libDaisy//src/dev/oled_ssd130x.h ****             buffer_[x + (y / 8) * width] |= (1 << (y % 8));
 1259              		.loc 12 356 9 view .LVU270
 1260 00e2 002F     		cmp	r7, #0
 1261 00e4 EBD0     		beq	.L101
 1262              	.L84:
 1263              	.LVL83:
 1264              	.LBB578:
 1265              	.LBI572:
 352:libDaisy//src/dev/oled_ssd130x.h ****     {
 1266              		.loc 12 352 10 is_stmt 1 view .LVU271
 352:libDaisy//src/dev/oled_ssd130x.h ****     {
 1267              		.loc 12 352 10 is_stmt 0 view .LVU272
 1268              	.LBE578:
 1269              	.LBE583:
 1270              	.LBE588:
 1271              	.LBE596:
 416:libDaisy//src/hid/disp/display.h ****             {
 1272              		.loc 3 416 13 view .LVU273
 1273 00e6 0133     		adds	r3, r3, #1
 1274              	.LVL84:
 1275              	.LBB597:
 1276              	.LBB589:
 1277              	.LBB584:
 1278              	.LBB579:
 1279              	.LBB575:
 359:libDaisy//src/dev/oled_ssd130x.h ****     }
 1280              		.loc 12 359 42 view .LVU274
 1281 00e8 09EA0505 		and	r5, r9, r5
 1282              	.LBE575:
 1283              	.LBE579:
 1284              	.LBE584:
 1285              	.LBE589:
 1286              	.LBE597:
 416:libDaisy//src/hid/disp/display.h ****             {
 1287              		.loc 3 416 26 view .LVU275
 1288 00ec 0132     		adds	r2, r2, #1
 1289 00ee 0131     		adds	r1, r1, #1
 1290 00f0 9C42     		cmp	r4, r3
 1291              	.LBB598:
 1292              	.LBB590:
 1293              	.LBB585:
 1294              	.LBB580:
 1295              	.LBB576:
 359:libDaisy//src/dev/oled_ssd130x.h ****     }
 1296              		.loc 12 359 42 view .LVU276
ARM GAS  /var/folders/z2/7_lhr9dn53s9tj4s0rwtyswm0000gn/T//ccRFfwbB.s 			page 53


 1297 00f2 02F8015C 		strb	r5, [r2, #-1]
 359:libDaisy//src/dev/oled_ssd130x.h ****     }
 1298              		.loc 12 359 42 view .LVU277
 1299              	.LBE576:
 1300              	.LBE580:
 1301              	.LBE585:
 1302              	.LBE590:
 1303              	.LBE598:
 416:libDaisy//src/hid/disp/display.h ****             {
 1304              		.loc 3 416 13 is_stmt 1 view .LVU278
 1305              	.LVL85:
 416:libDaisy//src/hid/disp/display.h ****             {
 1306              		.loc 3 416 26 view .LVU279
 1307 00f6 EAD1     		bne	.L86
 1308              	.LVL86:
 1309              	.L85:
 413:libDaisy//src/hid/disp/display.h ****         {
 1310              		.loc 3 413 9 view .LVU280
 413:libDaisy//src/hid/disp/display.h ****         {
 1311              		.loc 3 413 22 view .LVU281
 1312 00f8 5845     		cmp	r0, fp
 1313 00fa 0EF1010E 		add	lr, lr, #1
 1314 00fe C0D1     		bne	.L80
 1315              	.LVL87:
 1316              	.L79:
 1317              	.LBB599:
 1318              	.LBB600:
 173:libDaisy//src/hid/disp/display.h ****         currentY_ = (y >= Height()) ? Height() - 1 : y;
 1319              		.loc 3 173 33 is_stmt 0 view .LVU282
 1320 0100 D8F80030 		ldr	r3, [r8]
 1321              	.LBE600:
 1322              	.LBE599:
 434:libDaisy//src/hid/disp/display.h **** 
 1323              		.loc 3 434 18 view .LVU283
 1324 0104 5444     		add	r4, r4, r10
 1325 0106 2449     		ldr	r1, .L110
 1326              	.LBB606:
 1327              	.LBB601:
 173:libDaisy//src/hid/disp/display.h ****         currentY_ = (y >= Height()) ? Height() - 1 : y;
 1328              		.loc 3 173 33 view .LVU284
 1329 0108 DA68     		ldr	r2, [r3, #12]
 1330              	.LBE601:
 1331              	.LBE606:
 434:libDaisy//src/hid/disp/display.h **** 
 1332              		.loc 3 434 18 view .LVU285
 1333 010a A4B2     		uxth	r4, r4
 1334              	.LVL88:
 1335              	.LBB607:
 1336              	.LBI599:
 171:libDaisy//src/hid/disp/display.h ****     {
 1337              		.loc 3 171 10 is_stmt 1 view .LVU286
 1338              	.LBB602:
 173:libDaisy//src/hid/disp/display.h ****         currentY_ = (y >= Height()) ? Height() - 1 : y;
 1339              		.loc 3 173 9 view .LVU287
 1340 010c 8A42     		cmp	r2, r1
 1341 010e 2DD1     		bne	.L105
 173:libDaisy//src/hid/disp/display.h ****         currentY_ = (y >= Height()) ? Height() - 1 : y;
ARM GAS  /var/folders/z2/7_lhr9dn53s9tj4s0rwtyswm0000gn/T//ccRFfwbB.s 			page 54


 1342              		.loc 3 173 33 is_stmt 0 view .LVU288
 1343 0110 8020     		movs	r0, #128
 1344              	.L87:
 173:libDaisy//src/hid/disp/display.h ****         currentY_ = (y >= Height()) ? Height() - 1 : y;
 1345              		.loc 3 173 19 view .LVU289
 1346 0112 8442     		cmp	r4, r0
 1347 0114 1CD2     		bcs	.L106
 1348              	.LVL89:
 1349              	.L88:
 174:libDaisy//src/hid/disp/display.h ****     }
 1350              		.loc 3 174 34 view .LVU290
 1351 0116 9B68     		ldr	r3, [r3, #8]
 1352 0118 204A     		ldr	r2, .L110+4
 173:libDaisy//src/hid/disp/display.h ****         currentY_ = (y >= Height()) ? Height() - 1 : y;
 1353              		.loc 3 173 19 view .LVU291
 1354 011a A8F80440 		strh	r4, [r8, #4]	@ movhi
 174:libDaisy//src/hid/disp/display.h ****     }
 1355              		.loc 3 174 9 is_stmt 1 view .LVU292
 1356 011e 9342     		cmp	r3, r2
 1357 0120 21D1     		bne	.L107
 174:libDaisy//src/hid/disp/display.h ****     }
 1358              		.loc 3 174 34 is_stmt 0 view .LVU293
 1359 0122 4020     		movs	r0, #64
 1360              	.L90:
 174:libDaisy//src/hid/disp/display.h ****     }
 1361              		.loc 3 174 19 view .LVU294
 1362 0124 019B     		ldr	r3, [sp, #4]
 1363 0126 8342     		cmp	r3, r0
 1364 0128 07D3     		bcc	.L91
 174:libDaisy//src/hid/disp/display.h ****     }
 1365              		.loc 3 174 46 view .LVU295
 1366 012a D8F80030 		ldr	r3, [r8]
 1367 012e 1B4A     		ldr	r2, .L110+4
 1368 0130 9B68     		ldr	r3, [r3, #8]
 1369 0132 9342     		cmp	r3, r2
 1370 0134 29D1     		bne	.L108
 1371 0136 3F23     		movs	r3, #63
 1372 0138 0193     		str	r3, [sp, #4]
 1373              	.LVL90:
 1374              	.L91:
 174:libDaisy//src/hid/disp/display.h ****     }
 1375              		.loc 3 174 19 view .LVU296
 1376 013a DDE90003 		ldrd	r0, r3, [sp]
 1377 013e A8F80630 		strh	r3, [r8, #6]	@ movhi
 1378              	.LVL91:
 174:libDaisy//src/hid/disp/display.h ****     }
 1379              		.loc 3 174 19 view .LVU297
 1380              	.LBE602:
 1381              	.LBE607:
 438:libDaisy//src/hid/disp/display.h **** 
 1382              		.loc 3 438 5 view .LVU298
 1383 0142 05B0     		add	sp, sp, #20
 1384              		.cfi_remember_state
 1385              		.cfi_def_cfa_offset 36
 1386              		@ sp needed
 1387 0144 BDE8F08F 		pop	{r4, r5, r6, r7, r8, r9, r10, fp, pc}
 1388              	.LVL92:
ARM GAS  /var/folders/z2/7_lhr9dn53s9tj4s0rwtyswm0000gn/T//ccRFfwbB.s 			page 55


 1389              	.L75:
 1390              		.cfi_restore_state
 402:libDaisy//src/hid/disp/display.h **** 
 1391              		.loc 3 402 20 view .LVU299
 1392 0148 0020     		movs	r0, #0
 438:libDaisy//src/hid/disp/display.h **** 
 1393              		.loc 3 438 5 view .LVU300
 1394 014a 05B0     		add	sp, sp, #20
 1395              		.cfi_remember_state
 1396              		.cfi_def_cfa_offset 36
 1397              		@ sp needed
 1398 014c BDE8F08F 		pop	{r4, r5, r6, r7, r8, r9, r10, fp, pc}
 1399              	.LVL93:
 1400              	.L106:
 1401              		.cfi_restore_state
 1402              	.LBB608:
 1403              	.LBB603:
 173:libDaisy//src/hid/disp/display.h ****         currentY_ = (y >= Height()) ? Height() - 1 : y;
 1404              		.loc 3 173 44 view .LVU301
 1405 0150 DA68     		ldr	r2, [r3, #12]
 1406 0152 1149     		ldr	r1, .L110
 1407 0154 8A42     		cmp	r2, r1
 1408 0156 11D1     		bne	.L109
 1409 0158 7F24     		movs	r4, #127
 1410              	.LVL94:
 173:libDaisy//src/hid/disp/display.h ****         currentY_ = (y >= Height()) ? Height() - 1 : y;
 1411              		.loc 3 173 44 view .LVU302
 1412 015a DCE7     		b	.L88
 1413              	.LVL95:
 1414              	.L102:
 173:libDaisy//src/hid/disp/display.h ****         currentY_ = (y >= Height()) ? Height() - 1 : y;
 1415              		.loc 3 173 44 view .LVU303
 1416              	.LBE603:
 1417              	.LBE608:
 405:libDaisy//src/hid/disp/display.h ****            || Height() < (currentY_ + font.FontHeight))
 1418              		.loc 3 405 17 view .LVU304
 1419 015c 9847     		blx	r3
 1420              	.LVL96:
 405:libDaisy//src/hid/disp/display.h ****            || Height() < (currentY_ + font.FontHeight))
 1421              		.loc 3 405 17 view .LVU305
 1422 015e 6AE7     		b	.L74
 1423              	.L103:
 406:libDaisy//src/hid/disp/display.h ****         {
 1424              		.loc 3 406 21 discriminator 2 view .LVU306
 1425 0160 4046     		mov	r0, r8
 1426 0162 9847     		blx	r3
 1427              	.LVL97:
 1428 0164 75E7     		b	.L76
 1429              	.LVL98:
 1430              	.L107:
 1431              	.LBB609:
 1432              	.LBB604:
 174:libDaisy//src/hid/disp/display.h ****     }
 1433              		.loc 3 174 33 view .LVU307
 1434 0166 4046     		mov	r0, r8
 1435 0168 9847     		blx	r3
 1436              	.LVL99:
ARM GAS  /var/folders/z2/7_lhr9dn53s9tj4s0rwtyswm0000gn/T//ccRFfwbB.s 			page 56


 1437 016a DBE7     		b	.L90
 1438              	.LVL100:
 1439              	.L105:
 173:libDaisy//src/hid/disp/display.h ****         currentY_ = (y >= Height()) ? Height() - 1 : y;
 1440              		.loc 3 173 32 view .LVU308
 1441 016c 4046     		mov	r0, r8
 1442 016e 9047     		blx	r2
 1443              	.LVL101:
 173:libDaisy//src/hid/disp/display.h ****         currentY_ = (y >= Height()) ? Height() - 1 : y;
 1444              		.loc 3 173 44 view .LVU309
 1445 0170 D8F80030 		ldr	r3, [r8]
 1446 0174 CDE7     		b	.L87
 1447              	.LVL102:
 1448              	.L77:
 173:libDaisy//src/hid/disp/display.h ****         currentY_ = (y >= Height()) ? Height() - 1 : y;
 1449              		.loc 3 173 44 view .LVU310
 1450              	.LBE604:
 1451              	.LBE609:
 434:libDaisy//src/hid/disp/display.h **** 
 1452              		.loc 3 434 19 view .LVU311
 1453 0176 B8F804A0 		ldrh	r10, [r8, #4]
 1454 017a C1E7     		b	.L79
 1455              	.LVL103:
 1456              	.L109:
 1457              	.LBB610:
 1458              	.LBB605:
 173:libDaisy//src/hid/disp/display.h ****         currentY_ = (y >= Height()) ? Height() - 1 : y;
 1459              		.loc 3 173 43 view .LVU312
 1460 017c 4046     		mov	r0, r8
 1461 017e 9047     		blx	r2
 1462              	.LVL104:
 173:libDaisy//src/hid/disp/display.h ****         currentY_ = (y >= Height()) ? Height() - 1 : y;
 1463              		.loc 3 173 19 view .LVU313
 1464 0180 0138     		subs	r0, r0, #1
 174:libDaisy//src/hid/disp/display.h ****     }
 1465              		.loc 3 174 34 view .LVU314
 1466 0182 D8F80030 		ldr	r3, [r8]
 173:libDaisy//src/hid/disp/display.h ****         currentY_ = (y >= Height()) ? Height() - 1 : y;
 1467              		.loc 3 173 19 view .LVU315
 1468 0186 84B2     		uxth	r4, r0
 1469              	.LVL105:
 173:libDaisy//src/hid/disp/display.h ****         currentY_ = (y >= Height()) ? Height() - 1 : y;
 1470              		.loc 3 173 19 view .LVU316
 1471 0188 C5E7     		b	.L88
 1472              	.L108:
 174:libDaisy//src/hid/disp/display.h ****     }
 1473              		.loc 3 174 45 view .LVU317
 1474 018a 4046     		mov	r0, r8
 1475 018c 9847     		blx	r3
 1476              	.LVL106:
 174:libDaisy//src/hid/disp/display.h ****     }
 1477              		.loc 3 174 19 view .LVU318
 1478 018e 0138     		subs	r0, r0, #1
 1479 0190 83B2     		uxth	r3, r0
 1480 0192 0193     		str	r3, [sp, #4]
 1481              	.LVL107:
 174:libDaisy//src/hid/disp/display.h ****     }
ARM GAS  /var/folders/z2/7_lhr9dn53s9tj4s0rwtyswm0000gn/T//ccRFfwbB.s 			page 57


 1482              		.loc 3 174 19 view .LVU319
 1483 0194 D1E7     		b	.L91
 1484              	.L111:
 1485 0196 00BF     		.align	2
 1486              	.L110:
 1487 0198 00000000 		.word	_ZNK5daisy11OledDisplayINS_13SSD130xDriverILj128ELj64ENS_24SSD130x4WireSpiTransportEEEE5Widt
 1488 019c 00000000 		.word	_ZNK5daisy11OledDisplayINS_13SSD130xDriverILj128ELj64ENS_24SSD130x4WireSpiTransportEEEE6Heig
 1489              	.LBE605:
 1490              	.LBE610:
 1491              		.cfi_endproc
 1492              	.LFE5451:
 1494              		.section	.text._ZN5daisy25OneBitGraphicsDisplayImplINS_11OledDisplayINS_13SSD130xDriverILj128ELj64
 1495              		.align	1
 1496              		.p2align 2,,3
 1497              		.weak	_ZN5daisy25OneBitGraphicsDisplayImplINS_11OledDisplayINS_13SSD130xDriverILj128ELj64ENS_24SSD
 1498              		.syntax unified
 1499              		.thumb
 1500              		.thumb_func
 1502              	_ZN5daisy25OneBitGraphicsDisplayImplINS_11OledDisplayINS_13SSD130xDriverILj128ELj64ENS_24SSD130x4Wi
 1503              	.LVL108:
 1504              	.LFB5453:
 459:libDaisy//src/hid/disp/display.h **** 
 460:libDaisy//src/hid/disp/display.h ****     Rectangle WriteStringAligned(const char*    str,
 1505              		.loc 3 460 15 is_stmt 1 view -0
 1506              		.cfi_startproc
 1507              		@ args = 12, pretend = 0, frame = 32
 1508              		@ frame_needed = 0, uses_anonymous_args = 0
 1509              		.loc 3 460 15 is_stmt 0 view .LVU321
 1510 0000 2DE9F04F 		push	{r4, r5, r6, r7, r8, r9, r10, fp, lr}
 1511              		.cfi_def_cfa_offset 36
 1512              		.cfi_offset 4, -36
 1513              		.cfi_offset 5, -32
 1514              		.cfi_offset 6, -28
 1515              		.cfi_offset 7, -24
 1516              		.cfi_offset 8, -20
 1517              		.cfi_offset 9, -16
 1518              		.cfi_offset 10, -12
 1519              		.cfi_offset 11, -8
 1520              		.cfi_offset 14, -4
 1521 0004 89B0     		sub	sp, sp, #36
 1522              		.cfi_def_cfa_offset 72
 1523              		.loc 3 460 15 view .LVU322
 1524 0006 1D46     		mov	r5, r3
 1525 0008 8846     		mov	r8, r1
 1526              	.LVL109:
 1527              	.LBB749:
 1528              	.LBI749:
 461:libDaisy//src/hid/disp/display.h ****                                  const FontDef& font,
 462:libDaisy//src/hid/disp/display.h ****                                  Rectangle      boundingBox,
 463:libDaisy//src/hid/disp/display.h ****                                  Alignment      alignment,
 464:libDaisy//src/hid/disp/display.h ****                                  bool           on) override
 465:libDaisy//src/hid/disp/display.h ****     {
 466:libDaisy//src/hid/disp/display.h ****         const auto alignedRect
 467:libDaisy//src/hid/disp/display.h ****             = GetTextRect(str, font).AlignedWithin(boundingBox, alignment);
 468:libDaisy//src/hid/disp/display.h ****         SetCursor(alignedRect.GetX(), alignedRect.GetY());
 469:libDaisy//src/hid/disp/display.h ****         ((ChildType*)(this))->ChildType::WriteString(str, font, on);
 470:libDaisy//src/hid/disp/display.h ****         return alignedRect;
ARM GAS  /var/folders/z2/7_lhr9dn53s9tj4s0rwtyswm0000gn/T//ccRFfwbB.s 			page 58


 471:libDaisy//src/hid/disp/display.h ****     }
 472:libDaisy//src/hid/disp/display.h **** 
 473:libDaisy//src/hid/disp/display.h ****   private:
 474:libDaisy//src/hid/disp/display.h ****     uint32_t strlen(const char* string)
 475:libDaisy//src/hid/disp/display.h ****     {
 476:libDaisy//src/hid/disp/display.h ****         uint32_t result = 0;
 477:libDaisy//src/hid/disp/display.h ****         while(*string++ != '\0')
 478:libDaisy//src/hid/disp/display.h ****             result++;
 479:libDaisy//src/hid/disp/display.h ****         return result;
 480:libDaisy//src/hid/disp/display.h ****     }
 481:libDaisy//src/hid/disp/display.h **** 
 482:libDaisy//src/hid/disp/display.h ****     Rectangle GetTextRect(const char* text, const FontDef& font)
 1529              		.loc 3 482 15 is_stmt 1 view .LVU323
 1530              	.LBB750:
 1531              	.LBB751:
 1532              	.LBI751:
 474:libDaisy//src/hid/disp/display.h ****     {
 1533              		.loc 3 474 14 view .LVU324
 1534              	.LBB752:
 477:libDaisy//src/hid/disp/display.h ****             result++;
 1535              		.loc 3 477 25 view .LVU325
 1536              	.LBE752:
 1537              	.LBE751:
 1538              	.LBE750:
 1539              	.LBE749:
 460:libDaisy//src/hid/disp/display.h ****                                  const FontDef& font,
 1540              		.loc 3 460 15 is_stmt 0 view .LVU326
 1541 000a 0690     		str	r0, [sp, #24]
 1542              	.LBB767:
 1543              	.LBB763:
 1544              	.LBB756:
 1545              	.LBB753:
 477:libDaisy//src/hid/disp/display.h ****             result++;
 1546              		.loc 3 477 25 view .LVU327
 1547 000c 1046     		mov	r0, r2
 1548              	.LVL110:
 477:libDaisy//src/hid/disp/display.h ****             result++;
 1549              		.loc 3 477 25 view .LVU328
 1550              	.LBE753:
 1551              	.LBE756:
 1552              	.LBE763:
 1553              	.LBE767:
 460:libDaisy//src/hid/disp/display.h ****                                  const FontDef& font,
 1554              		.loc 3 460 15 view .LVU329
 1555 000e 129C     		ldr	r4, [sp, #72]
 1556              	.LBB768:
 1557              	.LBB764:
 1558              	.LBB757:
 1559              	.LBB754:
 477:libDaisy//src/hid/disp/display.h ****             result++;
 1560              		.loc 3 477 25 view .LVU330
 1561 0010 10F8013B 		ldrb	r3, [r0], #1	@ zero_extendqisi2
 1562              	.LVL111:
 477:libDaisy//src/hid/disp/display.h ****             result++;
 1563              		.loc 3 477 25 view .LVU331
 1564              	.LBE754:
 1565              	.LBE757:
ARM GAS  /var/folders/z2/7_lhr9dn53s9tj4s0rwtyswm0000gn/T//ccRFfwbB.s 			page 59


 1566              	.LBE764:
 1567              	.LBE768:
 460:libDaisy//src/hid/disp/display.h ****                                  const FontDef& font,
 1568              		.loc 3 460 15 view .LVU332
 1569 0014 1399     		ldr	r1, [sp, #76]
 1570              	.LVL112:
 460:libDaisy//src/hid/disp/display.h ****                                  const FontDef& font,
 1571              		.loc 3 460 15 view .LVU333
 1572 0016 9DF85060 		ldrb	r6, [sp, #80]	@ zero_extendqisi2
 1573 001a 0092     		str	r2, [sp]
 1574              	.LBB769:
 1575              	.LBB765:
 1576              	.LBB758:
 1577              	.LBB755:
 477:libDaisy//src/hid/disp/display.h ****             result++;
 1578              		.loc 3 477 25 view .LVU334
 1579 001c 33B1     		cbz	r3, .L113
 476:libDaisy//src/hid/disp/display.h ****         while(*string++ != '\0')
 1580              		.loc 3 476 18 view .LVU335
 1581 001e 0022     		movs	r2, #0
 1582              	.LVL113:
 1583              	.L114:
 477:libDaisy//src/hid/disp/display.h ****             result++;
 1584              		.loc 3 477 25 view .LVU336
 1585 0020 10F8013B 		ldrb	r3, [r0], #1	@ zero_extendqisi2
 1586              	.LVL114:
 478:libDaisy//src/hid/disp/display.h ****         return result;
 1587              		.loc 3 478 13 view .LVU337
 1588 0024 0132     		adds	r2, r2, #1
 1589              	.LVL115:
 477:libDaisy//src/hid/disp/display.h ****             result++;
 1590              		.loc 3 477 25 is_stmt 1 view .LVU338
 1591 0026 002B     		cmp	r3, #0
 1592 0028 FAD1     		bne	.L114
 1593              	.LBE755:
 1594              	.LBE758:
 483:libDaisy//src/hid/disp/display.h ****     {
 484:libDaisy//src/hid/disp/display.h ****         const auto numChars = strlen(text);
 485:libDaisy//src/hid/disp/display.h ****         return {int16_t(numChars * font.FontWidth), font.FontHeight};
 1595              		.loc 3 485 68 is_stmt 0 view .LVU339
 1596 002a 93B2     		uxth	r3, r2
 1597              	.LVL116:
 1598              	.L113:
 1599              		.loc 3 485 68 view .LVU340
 1600 002c 2A78     		ldrb	r2, [r5]	@ zero_extendqisi2
 1601              		.loc 3 485 58 view .LVU341
 1602 002e 6878     		ldrb	r0, [r5, #1]	@ zero_extendqisi2
 1603              		.loc 3 485 68 view .LVU342
 1604 0030 12FB03F3 		smulbb	r3, r2, r3
 1605 0034 02B2     		sxth	r2, r0
 1606              	.LVL117:
 1607              	.LBB759:
 1608              	.LBI759:
 1609              		.file 14 "libDaisy//src/hid/disp/graphics_common.h"
   1:libDaisy//src/hid/disp/graphics_common.h **** #pragma once
   2:libDaisy//src/hid/disp/graphics_common.h **** 
   3:libDaisy//src/hid/disp/graphics_common.h **** #include <cstdint>
ARM GAS  /var/folders/z2/7_lhr9dn53s9tj4s0rwtyswm0000gn/T//ccRFfwbB.s 			page 60


   4:libDaisy//src/hid/disp/graphics_common.h **** 
   5:libDaisy//src/hid/disp/graphics_common.h **** namespace daisy
   6:libDaisy//src/hid/disp/graphics_common.h **** {
   7:libDaisy//src/hid/disp/graphics_common.h **** /** Justifications */
   8:libDaisy//src/hid/disp/graphics_common.h **** enum class Alignment
   9:libDaisy//src/hid/disp/graphics_common.h **** {
  10:libDaisy//src/hid/disp/graphics_common.h ****     centered,
  11:libDaisy//src/hid/disp/graphics_common.h ****     topLeft,
  12:libDaisy//src/hid/disp/graphics_common.h ****     topCentered,
  13:libDaisy//src/hid/disp/graphics_common.h ****     topRight,
  14:libDaisy//src/hid/disp/graphics_common.h ****     bottomLeft,
  15:libDaisy//src/hid/disp/graphics_common.h ****     bottomCentered,
  16:libDaisy//src/hid/disp/graphics_common.h ****     bottomRight,
  17:libDaisy//src/hid/disp/graphics_common.h ****     centeredLeft,
  18:libDaisy//src/hid/disp/graphics_common.h ****     centeredRight
  19:libDaisy//src/hid/disp/graphics_common.h **** };
  20:libDaisy//src/hid/disp/graphics_common.h **** 
  21:libDaisy//src/hid/disp/graphics_common.h **** class Rectangle
  22:libDaisy//src/hid/disp/graphics_common.h **** {
  23:libDaisy//src/hid/disp/graphics_common.h ****   public:
  24:libDaisy//src/hid/disp/graphics_common.h ****     Rectangle() : x_(0), y_(0), width_(0), height_(0) {}
  25:libDaisy//src/hid/disp/graphics_common.h **** 
  26:libDaisy//src/hid/disp/graphics_common.h ****     Rectangle(int16_t width, int16_t height)
 1610              		.loc 14 26 5 is_stmt 1 view .LVU343
 1611              	.LBB760:
 1612              	.LBI760:
  27:libDaisy//src/hid/disp/graphics_common.h ****     : x_(0), y_(0), width_(max(0, width)), height_(max(0, height))
  28:libDaisy//src/hid/disp/graphics_common.h ****     {
  29:libDaisy//src/hid/disp/graphics_common.h ****     }
  30:libDaisy//src/hid/disp/graphics_common.h **** 
  31:libDaisy//src/hid/disp/graphics_common.h ****     Rectangle(int16_t x, int16_t y, int16_t width, int16_t height)
  32:libDaisy//src/hid/disp/graphics_common.h ****     : x_(x), y_(y), width_(max(0, width)), height_(max(0, height))
  33:libDaisy//src/hid/disp/graphics_common.h ****     {
  34:libDaisy//src/hid/disp/graphics_common.h ****     }
  35:libDaisy//src/hid/disp/graphics_common.h **** 
  36:libDaisy//src/hid/disp/graphics_common.h ****     Rectangle(const Rectangle& other) { *this = other; }
  37:libDaisy//src/hid/disp/graphics_common.h **** 
  38:libDaisy//src/hid/disp/graphics_common.h ****     Rectangle& operator=(const Rectangle& other)
  39:libDaisy//src/hid/disp/graphics_common.h ****     {
  40:libDaisy//src/hid/disp/graphics_common.h ****         x_      = other.x_;
  41:libDaisy//src/hid/disp/graphics_common.h ****         y_      = other.y_;
  42:libDaisy//src/hid/disp/graphics_common.h ****         width_  = other.width_;
  43:libDaisy//src/hid/disp/graphics_common.h ****         height_ = other.height_;
  44:libDaisy//src/hid/disp/graphics_common.h ****         return *this;
  45:libDaisy//src/hid/disp/graphics_common.h ****     }
  46:libDaisy//src/hid/disp/graphics_common.h **** 
  47:libDaisy//src/hid/disp/graphics_common.h ****     bool operator==(const Rectangle& other) const
  48:libDaisy//src/hid/disp/graphics_common.h ****     {
  49:libDaisy//src/hid/disp/graphics_common.h ****         return (x_ == other.x_) && (y_ == other.y_) && (width_ == other.width_)
  50:libDaisy//src/hid/disp/graphics_common.h ****                && (height_ == other.height_);
  51:libDaisy//src/hid/disp/graphics_common.h ****     }
  52:libDaisy//src/hid/disp/graphics_common.h ****     bool operator!=(const Rectangle& other) const { return !(*this == other); }
  53:libDaisy//src/hid/disp/graphics_common.h **** 
  54:libDaisy//src/hid/disp/graphics_common.h ****     bool IsEmpty() const { return (width_ <= 0) || (height_ <= 0); }
  55:libDaisy//src/hid/disp/graphics_common.h **** 
  56:libDaisy//src/hid/disp/graphics_common.h ****     int16_t GetX() const { return x_; }
  57:libDaisy//src/hid/disp/graphics_common.h ****     int16_t GetY() const { return y_; }
ARM GAS  /var/folders/z2/7_lhr9dn53s9tj4s0rwtyswm0000gn/T//ccRFfwbB.s 			page 61


  58:libDaisy//src/hid/disp/graphics_common.h ****     int16_t GetWidth() const { return width_; }
  59:libDaisy//src/hid/disp/graphics_common.h ****     int16_t GetHeight() const { return height_; }
  60:libDaisy//src/hid/disp/graphics_common.h ****     int16_t GetRight() const { return x_ + width_; }
  61:libDaisy//src/hid/disp/graphics_common.h ****     int16_t GetBottom() const { return y_ + height_; }
  62:libDaisy//src/hid/disp/graphics_common.h ****     int16_t GetCenterX() const { return x_ + width_ / 2; }
  63:libDaisy//src/hid/disp/graphics_common.h ****     int16_t GetCenterY() const { return y_ + height_ / 2; }
  64:libDaisy//src/hid/disp/graphics_common.h **** 
  65:libDaisy//src/hid/disp/graphics_common.h ****     Rectangle WithX(int16_t x) const { return {x, y_, width_, height_}; }
  66:libDaisy//src/hid/disp/graphics_common.h ****     Rectangle WithY(int16_t y) const { return {x_, y, width_, height_}; }
  67:libDaisy//src/hid/disp/graphics_common.h ****     Rectangle WithWidth(int16_t width) const
  68:libDaisy//src/hid/disp/graphics_common.h ****     {
  69:libDaisy//src/hid/disp/graphics_common.h ****         return {x_, y_, width, height_};
  70:libDaisy//src/hid/disp/graphics_common.h ****     }
  71:libDaisy//src/hid/disp/graphics_common.h ****     Rectangle WithHeight(int16_t height) const
  72:libDaisy//src/hid/disp/graphics_common.h ****     {
  73:libDaisy//src/hid/disp/graphics_common.h ****         return {x_, y_, width_, height};
  74:libDaisy//src/hid/disp/graphics_common.h ****     }
  75:libDaisy//src/hid/disp/graphics_common.h ****     Rectangle WithSize(int16_t width, int16_t height) const
  76:libDaisy//src/hid/disp/graphics_common.h ****     {
  77:libDaisy//src/hid/disp/graphics_common.h ****         return {x_, y_, width, height};
  78:libDaisy//src/hid/disp/graphics_common.h ****     }
  79:libDaisy//src/hid/disp/graphics_common.h ****     Rectangle WithWidthKeepingCenter(int16_t width) const
  80:libDaisy//src/hid/disp/graphics_common.h ****     {
  81:libDaisy//src/hid/disp/graphics_common.h ****         return Rectangle(x_, y_, width, height_)
  82:libDaisy//src/hid/disp/graphics_common.h ****             .WithCenter(GetCenterX(), GetCenterY());
  83:libDaisy//src/hid/disp/graphics_common.h ****     }
  84:libDaisy//src/hid/disp/graphics_common.h ****     Rectangle WithHeightKeepingCenter(int16_t height) const
  85:libDaisy//src/hid/disp/graphics_common.h ****     {
  86:libDaisy//src/hid/disp/graphics_common.h ****         return Rectangle(x_, y_, width_, height)
  87:libDaisy//src/hid/disp/graphics_common.h ****             .WithCenter(GetCenterX(), GetCenterY());
  88:libDaisy//src/hid/disp/graphics_common.h ****     }
  89:libDaisy//src/hid/disp/graphics_common.h ****     Rectangle WithSizeKeepingCenter(int16_t width, int16_t height) const
  90:libDaisy//src/hid/disp/graphics_common.h ****     {
  91:libDaisy//src/hid/disp/graphics_common.h ****         return Rectangle(x_, y_, width, height)
  92:libDaisy//src/hid/disp/graphics_common.h ****             .WithCenter(GetCenterX(), GetCenterY());
  93:libDaisy//src/hid/disp/graphics_common.h ****     }
  94:libDaisy//src/hid/disp/graphics_common.h **** 
  95:libDaisy//src/hid/disp/graphics_common.h ****     Rectangle Reduced(int16_t sizeToReduce) const
  96:libDaisy//src/hid/disp/graphics_common.h ****     {
  97:libDaisy//src/hid/disp/graphics_common.h ****         return {int16_t(x_ + sizeToReduce),
  98:libDaisy//src/hid/disp/graphics_common.h ****                 int16_t(y_ + sizeToReduce),
  99:libDaisy//src/hid/disp/graphics_common.h ****                 int16_t(width_ - 2 * sizeToReduce),
 100:libDaisy//src/hid/disp/graphics_common.h ****                 int16_t(height_ - 2 * sizeToReduce)};
 101:libDaisy//src/hid/disp/graphics_common.h ****     }
 102:libDaisy//src/hid/disp/graphics_common.h ****     Rectangle Reduced(int16_t xToReduce, int16_t yToReduce) const
 103:libDaisy//src/hid/disp/graphics_common.h ****     {
 104:libDaisy//src/hid/disp/graphics_common.h ****         return {int16_t(x_ + xToReduce),
 105:libDaisy//src/hid/disp/graphics_common.h ****                 int16_t(y_ + yToReduce),
 106:libDaisy//src/hid/disp/graphics_common.h ****                 int16_t(width_ - 2 * xToReduce),
 107:libDaisy//src/hid/disp/graphics_common.h ****                 int16_t(height_ - 2 * yToReduce)};
 108:libDaisy//src/hid/disp/graphics_common.h ****     }
 109:libDaisy//src/hid/disp/graphics_common.h **** 
 110:libDaisy//src/hid/disp/graphics_common.h ****     Rectangle Translated(int16_t x, int16_t y) const
 111:libDaisy//src/hid/disp/graphics_common.h ****     {
 112:libDaisy//src/hid/disp/graphics_common.h ****         return {int16_t(x_ + x), int16_t(y_ + y), width_, height_};
 113:libDaisy//src/hid/disp/graphics_common.h ****     }
 114:libDaisy//src/hid/disp/graphics_common.h **** 
ARM GAS  /var/folders/z2/7_lhr9dn53s9tj4s0rwtyswm0000gn/T//ccRFfwbB.s 			page 62


 115:libDaisy//src/hid/disp/graphics_common.h ****     Rectangle WithLeft(int16_t left) const
 116:libDaisy//src/hid/disp/graphics_common.h ****     {
 117:libDaisy//src/hid/disp/graphics_common.h ****         const auto newWidth = int16_t((x_ - left) + width_);
 118:libDaisy//src/hid/disp/graphics_common.h ****         return {left, y_, newWidth, height_};
 119:libDaisy//src/hid/disp/graphics_common.h ****     }
 120:libDaisy//src/hid/disp/graphics_common.h **** 
 121:libDaisy//src/hid/disp/graphics_common.h ****     Rectangle WithRight(int16_t right) const
 122:libDaisy//src/hid/disp/graphics_common.h ****     {
 123:libDaisy//src/hid/disp/graphics_common.h ****         const auto newWidth = int16_t(right - x_);
 124:libDaisy//src/hid/disp/graphics_common.h ****         return {x_, y_, newWidth, height_};
 125:libDaisy//src/hid/disp/graphics_common.h ****     }
 126:libDaisy//src/hid/disp/graphics_common.h **** 
 127:libDaisy//src/hid/disp/graphics_common.h ****     Rectangle WithTop(int16_t top) const
 128:libDaisy//src/hid/disp/graphics_common.h ****     {
 129:libDaisy//src/hid/disp/graphics_common.h ****         const auto newHeight = int16_t((y_ - top) + height_);
 130:libDaisy//src/hid/disp/graphics_common.h ****         return {x_, top, width_, newHeight};
 131:libDaisy//src/hid/disp/graphics_common.h ****     }
 132:libDaisy//src/hid/disp/graphics_common.h **** 
 133:libDaisy//src/hid/disp/graphics_common.h ****     Rectangle WithBottom(int16_t bottom) const
 134:libDaisy//src/hid/disp/graphics_common.h ****     {
 135:libDaisy//src/hid/disp/graphics_common.h ****         const auto newHeight = int16_t(bottom - y_);
 136:libDaisy//src/hid/disp/graphics_common.h ****         return {x_, y_, width_, newHeight};
 137:libDaisy//src/hid/disp/graphics_common.h ****     }
 138:libDaisy//src/hid/disp/graphics_common.h **** 
 139:libDaisy//src/hid/disp/graphics_common.h ****     Rectangle WithTrimmedLeft(int16_t pxToTrim) const
 140:libDaisy//src/hid/disp/graphics_common.h ****     {
 141:libDaisy//src/hid/disp/graphics_common.h ****         return {
 142:libDaisy//src/hid/disp/graphics_common.h ****             int16_t(x_ + pxToTrim), y_, int16_t(width_ - pxToTrim), height_};
 143:libDaisy//src/hid/disp/graphics_common.h ****     }
 144:libDaisy//src/hid/disp/graphics_common.h **** 
 145:libDaisy//src/hid/disp/graphics_common.h ****     Rectangle WithTrimmedRight(int16_t pxToTrim) const
 146:libDaisy//src/hid/disp/graphics_common.h ****     {
 147:libDaisy//src/hid/disp/graphics_common.h ****         return {x_, y_, int16_t(width_ - pxToTrim), height_};
 148:libDaisy//src/hid/disp/graphics_common.h ****     }
 149:libDaisy//src/hid/disp/graphics_common.h **** 
 150:libDaisy//src/hid/disp/graphics_common.h ****     Rectangle WithTrimmedTop(int16_t pxToTrim) const
 151:libDaisy//src/hid/disp/graphics_common.h ****     {
 152:libDaisy//src/hid/disp/graphics_common.h ****         return {
 153:libDaisy//src/hid/disp/graphics_common.h ****             x_, int16_t(y_ + pxToTrim), width_, int16_t(height_ - pxToTrim)};
 154:libDaisy//src/hid/disp/graphics_common.h ****     }
 155:libDaisy//src/hid/disp/graphics_common.h **** 
 156:libDaisy//src/hid/disp/graphics_common.h ****     Rectangle WithTrimmedBottom(int16_t pxToTrim) const
 157:libDaisy//src/hid/disp/graphics_common.h ****     {
 158:libDaisy//src/hid/disp/graphics_common.h ****         return {x_, y_, width_, int16_t(height_ - pxToTrim)};
 159:libDaisy//src/hid/disp/graphics_common.h ****     }
 160:libDaisy//src/hid/disp/graphics_common.h **** 
 161:libDaisy//src/hid/disp/graphics_common.h ****     Rectangle WithCenterX(int16_t centerX) const
 162:libDaisy//src/hid/disp/graphics_common.h ****     {
 163:libDaisy//src/hid/disp/graphics_common.h ****         return {int16_t(x_ + centerX - GetCenterX()), y_, width_, height_};
 164:libDaisy//src/hid/disp/graphics_common.h ****     }
 165:libDaisy//src/hid/disp/graphics_common.h **** 
 166:libDaisy//src/hid/disp/graphics_common.h ****     Rectangle WithCenterY(int16_t centerY) const
 167:libDaisy//src/hid/disp/graphics_common.h ****     {
 168:libDaisy//src/hid/disp/graphics_common.h ****         return {x_, int16_t(y_ + centerY - GetCenterY()), width_, height_};
 169:libDaisy//src/hid/disp/graphics_common.h ****     }
 170:libDaisy//src/hid/disp/graphics_common.h **** 
 171:libDaisy//src/hid/disp/graphics_common.h ****     Rectangle WithCenter(int16_t centerX, int16_t centerY) const
ARM GAS  /var/folders/z2/7_lhr9dn53s9tj4s0rwtyswm0000gn/T//ccRFfwbB.s 			page 63


 172:libDaisy//src/hid/disp/graphics_common.h ****     {
 173:libDaisy//src/hid/disp/graphics_common.h ****         return {int16_t(x_ + centerX - GetCenterX()),
 174:libDaisy//src/hid/disp/graphics_common.h ****                 int16_t(y_ + centerY - GetCenterY()),
 175:libDaisy//src/hid/disp/graphics_common.h ****                 width_,
 176:libDaisy//src/hid/disp/graphics_common.h ****                 height_};
 177:libDaisy//src/hid/disp/graphics_common.h ****     }
 178:libDaisy//src/hid/disp/graphics_common.h **** 
 179:libDaisy//src/hid/disp/graphics_common.h ****     Rectangle RemoveFromLeft(int16_t pxToRemove)
 180:libDaisy//src/hid/disp/graphics_common.h ****     {
 181:libDaisy//src/hid/disp/graphics_common.h ****         const auto result = this->WithWidth(min(pxToRemove, width_));
 182:libDaisy//src/hid/disp/graphics_common.h ****         x_ += min(pxToRemove, width_);
 183:libDaisy//src/hid/disp/graphics_common.h ****         width_ = max(int16_t(width_ - pxToRemove), 0);
 184:libDaisy//src/hid/disp/graphics_common.h ****         return result;
 185:libDaisy//src/hid/disp/graphics_common.h ****     }
 186:libDaisy//src/hid/disp/graphics_common.h **** 
 187:libDaisy//src/hid/disp/graphics_common.h ****     Rectangle RemoveFromRight(int16_t pxToRemove)
 188:libDaisy//src/hid/disp/graphics_common.h ****     {
 189:libDaisy//src/hid/disp/graphics_common.h ****         const auto canRemove = min(pxToRemove, width_);
 190:libDaisy//src/hid/disp/graphics_common.h ****         width_ -= canRemove;
 191:libDaisy//src/hid/disp/graphics_common.h ****         return {int16_t(x_ + width_), y_, canRemove, height_};
 192:libDaisy//src/hid/disp/graphics_common.h ****     }
 193:libDaisy//src/hid/disp/graphics_common.h **** 
 194:libDaisy//src/hid/disp/graphics_common.h ****     Rectangle RemoveFromTop(int16_t pxToRemove)
 195:libDaisy//src/hid/disp/graphics_common.h ****     {
 196:libDaisy//src/hid/disp/graphics_common.h ****         const auto result = this->WithHeight(min(pxToRemove, height_));
 197:libDaisy//src/hid/disp/graphics_common.h ****         y_ += min(pxToRemove, height_);
 198:libDaisy//src/hid/disp/graphics_common.h ****         height_ = max(height_ - pxToRemove, 0);
 199:libDaisy//src/hid/disp/graphics_common.h ****         return result;
 200:libDaisy//src/hid/disp/graphics_common.h ****     }
 201:libDaisy//src/hid/disp/graphics_common.h **** 
 202:libDaisy//src/hid/disp/graphics_common.h ****     Rectangle RemoveFromBottom(int16_t pxToRemove)
 203:libDaisy//src/hid/disp/graphics_common.h ****     {
 204:libDaisy//src/hid/disp/graphics_common.h ****         const auto canRemove = min(pxToRemove, height_);
 205:libDaisy//src/hid/disp/graphics_common.h ****         height_ -= canRemove;
 206:libDaisy//src/hid/disp/graphics_common.h ****         return {x_, int16_t(y_ + height_), width_, canRemove};
 207:libDaisy//src/hid/disp/graphics_common.h ****     }
 208:libDaisy//src/hid/disp/graphics_common.h **** 
 209:libDaisy//src/hid/disp/graphics_common.h ****     Rectangle AlignedWithin(const Rectangle& other, Alignment alignment) const
 210:libDaisy//src/hid/disp/graphics_common.h ****     {
 211:libDaisy//src/hid/disp/graphics_common.h ****         switch(alignment)
 212:libDaisy//src/hid/disp/graphics_common.h ****         {
 213:libDaisy//src/hid/disp/graphics_common.h ****             case Alignment::topLeft:
 214:libDaisy//src/hid/disp/graphics_common.h ****                 return {other.x_, other.y_, width_, height_};
 215:libDaisy//src/hid/disp/graphics_common.h ****             case Alignment::topRight:
 216:libDaisy//src/hid/disp/graphics_common.h ****                 return {int16_t(other.GetRight() - width_),
 217:libDaisy//src/hid/disp/graphics_common.h ****                         other.y_,
 218:libDaisy//src/hid/disp/graphics_common.h ****                         width_,
 219:libDaisy//src/hid/disp/graphics_common.h ****                         height_};
 220:libDaisy//src/hid/disp/graphics_common.h ****             case Alignment::topCentered:
 221:libDaisy//src/hid/disp/graphics_common.h ****                 return {int16_t(x_ + (other.GetCenterX() - GetCenterX())),
 222:libDaisy//src/hid/disp/graphics_common.h ****                         other.y_,
 223:libDaisy//src/hid/disp/graphics_common.h ****                         width_,
 224:libDaisy//src/hid/disp/graphics_common.h ****                         height_};
 225:libDaisy//src/hid/disp/graphics_common.h ****             case Alignment::bottomLeft:
 226:libDaisy//src/hid/disp/graphics_common.h ****                 return {other.x_,
 227:libDaisy//src/hid/disp/graphics_common.h ****                         int16_t(other.GetBottom() - height_),
 228:libDaisy//src/hid/disp/graphics_common.h ****                         width_,
ARM GAS  /var/folders/z2/7_lhr9dn53s9tj4s0rwtyswm0000gn/T//ccRFfwbB.s 			page 64


 229:libDaisy//src/hid/disp/graphics_common.h ****                         height_};
 230:libDaisy//src/hid/disp/graphics_common.h ****             case Alignment::bottomRight:
 231:libDaisy//src/hid/disp/graphics_common.h ****                 return {int16_t(other.GetRight() - width_),
 232:libDaisy//src/hid/disp/graphics_common.h ****                         int16_t(other.GetBottom() - height_),
 233:libDaisy//src/hid/disp/graphics_common.h ****                         width_,
 234:libDaisy//src/hid/disp/graphics_common.h ****                         height_};
 235:libDaisy//src/hid/disp/graphics_common.h ****             case Alignment::bottomCentered:
 236:libDaisy//src/hid/disp/graphics_common.h ****                 return {int16_t(x_ + (other.GetCenterX() - GetCenterX())),
 237:libDaisy//src/hid/disp/graphics_common.h ****                         int16_t(other.GetBottom() - height_),
 238:libDaisy//src/hid/disp/graphics_common.h ****                         width_,
 239:libDaisy//src/hid/disp/graphics_common.h ****                         height_};
 240:libDaisy//src/hid/disp/graphics_common.h ****             case Alignment::centeredLeft:
 241:libDaisy//src/hid/disp/graphics_common.h ****                 return {other.x_,
 242:libDaisy//src/hid/disp/graphics_common.h ****                         int16_t(y_ + (other.GetCenterY() - GetCenterY())),
 243:libDaisy//src/hid/disp/graphics_common.h ****                         width_,
 244:libDaisy//src/hid/disp/graphics_common.h ****                         height_};
 245:libDaisy//src/hid/disp/graphics_common.h ****             case Alignment::centeredRight:
 246:libDaisy//src/hid/disp/graphics_common.h ****                 return {int16_t(other.GetRight() - width_),
 247:libDaisy//src/hid/disp/graphics_common.h ****                         int16_t(y_ + (other.GetCenterY() - GetCenterY())),
 248:libDaisy//src/hid/disp/graphics_common.h ****                         width_,
 249:libDaisy//src/hid/disp/graphics_common.h ****                         height_};
 250:libDaisy//src/hid/disp/graphics_common.h ****             case Alignment::centered:
 251:libDaisy//src/hid/disp/graphics_common.h ****                 return {int16_t(x_ + (other.GetCenterX() - GetCenterX())),
 252:libDaisy//src/hid/disp/graphics_common.h ****                         int16_t(y_ + (other.GetCenterY() - GetCenterY())),
 253:libDaisy//src/hid/disp/graphics_common.h ****                         width_,
 254:libDaisy//src/hid/disp/graphics_common.h ****                         height_};
 255:libDaisy//src/hid/disp/graphics_common.h ****             default: return {};
 256:libDaisy//src/hid/disp/graphics_common.h ****         }
 257:libDaisy//src/hid/disp/graphics_common.h ****     }
 258:libDaisy//src/hid/disp/graphics_common.h **** 
 259:libDaisy//src/hid/disp/graphics_common.h ****   private:
 260:libDaisy//src/hid/disp/graphics_common.h ****     int16_t x_, y_, width_, height_;
 261:libDaisy//src/hid/disp/graphics_common.h ****     int16_t max(int16_t a, int16_t b) { return (a > b) ? a : b; }
 1613              		.loc 14 261 13 view .LVU344
 1614              	.LBE760:
 1615              	.LBE759:
 1616              	.LBE765:
 1617              	.LBE769:
 1618              		.loc 14 261 41 view .LVU345
 1619              	.LBB770:
 1620              	.LBB766:
 1621              	.LBB762:
 1622              	.LBB761:
 1623              	.LBI761:
 1624              		.loc 14 261 13 view .LVU346
 1625              	.LBE761:
 1626              	.LBE762:
 1627              	.LBE766:
 1628              	.LBE770:
 1629              		.loc 14 261 41 view .LVU347
 1630              	.LBB771:
 1631              	.LBI771:
 209:libDaisy//src/hid/disp/graphics_common.h ****     {
 1632              		.loc 14 209 15 view .LVU348
 1633              	.LBB772:
 211:libDaisy//src/hid/disp/graphics_common.h ****         {
 1634              		.loc 14 211 9 view .LVU349
ARM GAS  /var/folders/z2/7_lhr9dn53s9tj4s0rwtyswm0000gn/T//ccRFfwbB.s 			page 65


 1635 0036 1BB2     		sxth	r3, r3
 1636 0038 23EAE373 		bic	r3, r3, r3, asr #31
 1637 003c 0829     		cmp	r1, #8
 1638 003e 00F2A681 		bhi	.L115
 1639 0042 DFE811F0 		tbh	[pc, r1, lsl #1]
 1640              	.L117:
 1641 0046 0101     		.2byte	(.L125-.L117)/2
 1642 0048 1301     		.2byte	(.L124-.L117)/2
 1643 004a 1F01     		.2byte	(.L123-.L117)/2
 1644 004c 3301     		.2byte	(.L122-.L117)/2
 1645 004e 4101     		.2byte	(.L121-.L117)/2
 1646 0050 4F01     		.2byte	(.L120-.L117)/2
 1647 0052 6601     		.2byte	(.L119-.L117)/2
 1648 0054 6F01     		.2byte	(.L118-.L117)/2
 1649 0056 0900     		.2byte	(.L116-.L117)/2
 1650              		.p2align 1
 1651              	.L116:
 245:libDaisy//src/hid/disp/graphics_common.h ****                 return {int16_t(other.GetRight() - width_),
 1652              		.loc 14 245 13 view .LVU350
 246:libDaisy//src/hid/disp/graphics_common.h ****                         int16_t(y_ + (other.GetCenterY() - GetCenterY())),
 1653              		.loc 14 246 17 view .LVU351
 1654              	.LVL118:
 1655              	.LBB773:
 1656              	.LBI773:
  60:libDaisy//src/hid/disp/graphics_common.h ****     int16_t GetBottom() const { return y_ + height_; }
 1657              		.loc 14 60 13 view .LVU352
 1658              	.LBB774:
  60:libDaisy//src/hid/disp/graphics_common.h ****     int16_t GetBottom() const { return y_ + height_; }
 1659              		.loc 14 60 32 view .LVU353
  60:libDaisy//src/hid/disp/graphics_common.h ****     int16_t GetBottom() const { return y_ + height_; }
 1660              		.loc 14 60 42 is_stmt 0 view .LVU354
 1661 0058 A188     		ldrh	r1, [r4, #4]
 1662              	.LVL119:
  60:libDaisy//src/hid/disp/graphics_common.h ****     int16_t GetBottom() const { return y_ + height_; }
 1663              		.loc 14 60 42 view .LVU355
 1664 005a 2788     		ldrh	r7, [r4]
 1665 005c 0F44     		add	r7, r7, r1
 1666              	.LBE774:
 1667              	.LBE773:
 1668              	.LBB775:
 1669              	.LBB776:
  63:libDaisy//src/hid/disp/graphics_common.h **** 
 1670              		.loc 14 63 54 view .LVU356
 1671 005e B4F90610 		ldrsh	r1, [r4, #6]
 1672              	.LBE776:
 1673              	.LBE775:
 246:libDaisy//src/hid/disp/graphics_common.h ****                         int16_t(y_ + (other.GetCenterY() - GetCenterY())),
 1674              		.loc 14 246 50 view .LVU357
 1675 0062 FF1A     		subs	r7, r7, r3
 1676              	.LBB780:
 1677              	.LBB777:
  63:libDaisy//src/hid/disp/graphics_common.h **** 
 1678              		.loc 14 63 54 view .LVU358
 1679 0064 0029     		cmp	r1, #0
 1680              	.LBE777:
 1681              	.LBE780:
 246:libDaisy//src/hid/disp/graphics_common.h ****                         int16_t(y_ + (other.GetCenterY() - GetCenterY())),
ARM GAS  /var/folders/z2/7_lhr9dn53s9tj4s0rwtyswm0000gn/T//ccRFfwbB.s 			page 66


 1682              		.loc 14 246 50 view .LVU359
 1683 0066 BFB2     		uxth	r7, r7
 1684              	.LVL120:
 1685              	.LBB781:
 1686              	.LBI775:
  63:libDaisy//src/hid/disp/graphics_common.h **** 
 1687              		.loc 14 63 13 is_stmt 1 view .LVU360
 1688              	.LBB778:
  63:libDaisy//src/hid/disp/graphics_common.h **** 
 1689              		.loc 14 63 34 view .LVU361
  63:libDaisy//src/hid/disp/graphics_common.h **** 
 1690              		.loc 14 63 34 is_stmt 0 view .LVU362
 1691              	.LBE778:
 1692              	.LBE781:
 1693              	.LBB782:
 1694              	.LBI782:
  63:libDaisy//src/hid/disp/graphics_common.h **** 
 1695              		.loc 14 63 13 is_stmt 1 view .LVU363
 1696              	.LBB783:
  63:libDaisy//src/hid/disp/graphics_common.h **** 
 1697              		.loc 14 63 34 view .LVU364
  63:libDaisy//src/hid/disp/graphics_common.h **** 
 1698              		.loc 14 63 34 is_stmt 0 view .LVU365
 1699              	.LBE783:
 1700              	.LBE782:
 1701              	.LBB784:
 1702              	.LBB779:
  63:libDaisy//src/hid/disp/graphics_common.h **** 
 1703              		.loc 14 63 54 view .LVU366
 1704 0068 C0F2FE80 		blt	.L188
 1705              	.L132:
  63:libDaisy//src/hid/disp/graphics_common.h **** 
 1706              		.loc 14 63 54 view .LVU367
 1707              	.LBE779:
 1708              	.LBE784:
 1709              	.LBB785:
 1710              	.LBB786:
  63:libDaisy//src/hid/disp/graphics_common.h **** 
 1711              		.loc 14 63 44 view .LVU368
 1712 006c 6488     		ldrh	r4, [r4, #2]
 1713              	.LVL121:
  63:libDaisy//src/hid/disp/graphics_common.h **** 
 1714              		.loc 14 63 44 view .LVU369
 1715              	.LBE786:
 1716              	.LBE785:
 1717              	.LBB792:
 1718              	.LBB793:
 1719              	.LBB794:
  32:libDaisy//src/hid/disp/graphics_common.h ****     {
 1720              		.loc 14 32 66 view .LVU370
 1721 006e 0698     		ldr	r0, [sp, #24]
 1722              	.LBE794:
 1723              	.LBE793:
 1724              	.LBE792:
 1725              	.LBB805:
 1726              	.LBB787:
  63:libDaisy//src/hid/disp/graphics_common.h **** 
ARM GAS  /var/folders/z2/7_lhr9dn53s9tj4s0rwtyswm0000gn/T//ccRFfwbB.s 			page 67


 1727              		.loc 14 63 44 view .LVU371
 1728 0070 04EB6104 		add	r4, r4, r1, asr #1
 1729              	.LBE787:
 1730              	.LBE805:
 1731              	.LBB806:
 1732              	.LBB801:
 1733              	.LBB797:
  32:libDaisy//src/hid/disp/graphics_common.h ****     {
 1734              		.loc 14 32 66 view .LVU372
 1735 0074 C280     		strh	r2, [r0, #6]	@ movhi
 1736              	.LBE797:
 1737              	.LBE801:
 1738              	.LBE806:
 252:libDaisy//src/hid/disp/graphics_common.h ****                         width_,
 1739              		.loc 14 252 58 view .LVU373
 1740 0076 A4EB5202 		sub	r2, r4, r2, lsr #1
 1741              	.LBB807:
 1742              	.LBB802:
 1743              	.LBB798:
  32:libDaisy//src/hid/disp/graphics_common.h ****     {
 1744              		.loc 14 32 66 view .LVU374
 1745 007a 8380     		strh	r3, [r0, #4]	@ movhi
 1746 007c 0780     		strh	r7, [r0]	@ movhi
 1747              	.LBE798:
 1748              	.LBE802:
 1749              	.LBE807:
 252:libDaisy//src/hid/disp/graphics_common.h ****                         width_,
 1750              		.loc 14 252 58 view .LVU375
 1751 007e 94B2     		uxth	r4, r2
 1752              	.LVL122:
 1753              	.LBB808:
 1754              	.LBI792:
  31:libDaisy//src/hid/disp/graphics_common.h ****     : x_(x), y_(y), width_(max(0, width)), height_(max(0, height))
 1755              		.loc 14 31 5 is_stmt 1 view .LVU376
 1756              	.LBB803:
 1757              	.LBB799:
  32:libDaisy//src/hid/disp/graphics_common.h ****     {
 1758              		.loc 14 32 66 is_stmt 0 view .LVU377
 1759 0080 4480     		strh	r4, [r0, #2]	@ movhi
 1760              	.LVL123:
 1761              	.LBB795:
 1762              	.LBI795:
 1763              		.loc 14 261 13 is_stmt 1 view .LVU378
 1764              	.LBE795:
 1765              	.LBE799:
 1766              	.LBE803:
 1767              	.LBE808:
 1768              	.LBE772:
 1769              	.LBE771:
 1770              		.loc 14 261 41 view .LVU379
 1771              	.LBB997:
 1772              	.LBB975:
 1773              	.LBB809:
 1774              	.LBB804:
 1775              	.LBB800:
 1776              	.LBB796:
 1777              	.LBI796:
ARM GAS  /var/folders/z2/7_lhr9dn53s9tj4s0rwtyswm0000gn/T//ccRFfwbB.s 			page 68


 1778              		.loc 14 261 13 view .LVU380
 1779              	.LBE796:
 1780              	.LBE800:
 1781              	.LBE804:
 1782              	.LBE809:
 1783              	.LBE975:
 1784              	.LBE997:
 1785              		.loc 14 261 41 view .LVU381
 1786              	.L126:
  56:libDaisy//src/hid/disp/graphics_common.h ****     int16_t GetY() const { return y_; }
 1787              		.loc 14 56 28 view .LVU382
  57:libDaisy//src/hid/disp/graphics_common.h ****     int16_t GetWidth() const { return width_; }
 1788              		.loc 14 57 28 view .LVU383
 1789              	.LBB998:
 1790              	.LBI998:
 171:libDaisy//src/hid/disp/display.h ****     {
 1791              		.loc 3 171 10 view .LVU384
 1792              	.LBB999:
 173:libDaisy//src/hid/disp/display.h ****         currentY_ = (y >= Height()) ? Height() - 1 : y;
 1793              		.loc 3 173 9 view .LVU385
 1794 0082 A64A     		ldr	r2, .L198
 173:libDaisy//src/hid/disp/display.h ****         currentY_ = (y >= Height()) ? Height() - 1 : y;
 1795              		.loc 3 173 33 is_stmt 0 view .LVU386
 1796 0084 D8F80030 		ldr	r3, [r8]
 1797 0088 1146     		mov	r1, r2
 1798 008a 0192     		str	r2, [sp, #4]
 1799 008c DA68     		ldr	r2, [r3, #12]
 1800 008e 8A42     		cmp	r2, r1
 1801 0090 40F08B81 		bne	.L134
 1802 0094 8020     		movs	r0, #128
 1803              	.LVL124:
 1804              	.L135:
 173:libDaisy//src/hid/disp/display.h ****         currentY_ = (y >= Height()) ? Height() - 1 : y;
 1805              		.loc 3 173 19 view .LVU387
 1806 0096 B842     		cmp	r0, r7
 1807 0098 05D8     		bhi	.L136
 173:libDaisy//src/hid/disp/display.h ****         currentY_ = (y >= Height()) ? Height() - 1 : y;
 1808              		.loc 3 173 44 view .LVU388
 1809 009a DA68     		ldr	r2, [r3, #12]
 1810 009c 0199     		ldr	r1, [sp, #4]
 1811 009e 8A42     		cmp	r2, r1
 1812 00a0 40F09881 		bne	.L189
 1813 00a4 7F27     		movs	r7, #127
 1814              	.L136:
 1815 00a6 9E4A     		ldr	r2, .L198+4
 174:libDaisy//src/hid/disp/display.h ****     }
 1816              		.loc 3 174 34 view .LVU389
 1817 00a8 9B68     		ldr	r3, [r3, #8]
 173:libDaisy//src/hid/disp/display.h ****         currentY_ = (y >= Height()) ? Height() - 1 : y;
 1818              		.loc 3 173 19 view .LVU390
 1819 00aa A8F80470 		strh	r7, [r8, #4]	@ movhi
 174:libDaisy//src/hid/disp/display.h ****     }
 1820              		.loc 3 174 9 is_stmt 1 view .LVU391
 1821 00ae 9342     		cmp	r3, r2
 1822 00b0 0392     		str	r2, [sp, #12]
 1823 00b2 40F08781 		bne	.L166
 174:libDaisy//src/hid/disp/display.h ****     }
ARM GAS  /var/folders/z2/7_lhr9dn53s9tj4s0rwtyswm0000gn/T//ccRFfwbB.s 			page 69


 1824              		.loc 3 174 34 is_stmt 0 view .LVU392
 1825 00b6 4020     		movs	r0, #64
 1826              	.L138:
 174:libDaisy//src/hid/disp/display.h ****     }
 1827              		.loc 3 174 19 view .LVU393
 1828 00b8 A042     		cmp	r0, r4
 1829 00ba 07D8     		bhi	.L140
 174:libDaisy//src/hid/disp/display.h ****     }
 1830              		.loc 3 174 46 view .LVU394
 1831 00bc D8F80030 		ldr	r3, [r8]
 1832 00c0 039A     		ldr	r2, [sp, #12]
 1833 00c2 9B68     		ldr	r3, [r3, #8]
 1834 00c4 9342     		cmp	r3, r2
 1835 00c6 40F08081 		bne	.L190
 1836 00ca 3F24     		movs	r4, #63
 1837              	.L140:
 174:libDaisy//src/hid/disp/display.h ****     }
 1838              		.loc 3 174 46 view .LVU395
 1839              	.LBE999:
 1840              	.LBE998:
 1841              	.LBB1003:
 1842              	.LBB1004:
 443:libDaisy//src/hid/disp/display.h ****         {
 1843              		.loc 3 443 9 view .LVU396
 1844 00cc 009B     		ldr	r3, [sp]
 1845              	.LBE1004:
 1846              	.LBE1003:
 1847              	.LBB1052:
 1848              	.LBB1000:
 174:libDaisy//src/hid/disp/display.h ****     }
 1849              		.loc 3 174 19 view .LVU397
 1850 00ce A8F80640 		strh	r4, [r8, #6]	@ movhi
 1851              	.LVL125:
 174:libDaisy//src/hid/disp/display.h ****     }
 1852              		.loc 3 174 19 view .LVU398
 1853              	.LBE1000:
 1854              	.LBE1052:
 1855              	.LBB1053:
 1856              	.LBB1049:
 443:libDaisy//src/hid/disp/display.h ****         {
 1857              		.loc 3 443 9 view .LVU399
 1858 00d2 93F800B0 		ldrb	fp, [r3]	@ zero_extendqisi2
 1859 00d6 6B78     		ldrb	r3, [r5, #1]	@ zero_extendqisi2
 1860              	.LVL126:
 443:libDaisy//src/hid/disp/display.h ****         {
 1861              		.loc 3 443 9 view .LVU400
 1862 00d8 2C78     		ldrb	r4, [r5]	@ zero_extendqisi2
 1863              	.LVL127:
 443:libDaisy//src/hid/disp/display.h ****         {
 1864              		.loc 3 443 9 view .LVU401
 1865 00da 0493     		str	r3, [sp, #16]
 1866              	.LVL128:
 443:libDaisy//src/hid/disp/display.h ****         {
 1867              		.loc 3 443 9 view .LVU402
 1868 00dc 6B68     		ldr	r3, [r5, #4]
 1869 00de 0793     		str	r3, [sp, #28]
 1870              	.LVL129:
ARM GAS  /var/folders/z2/7_lhr9dn53s9tj4s0rwtyswm0000gn/T//ccRFfwbB.s 			page 70


 443:libDaisy//src/hid/disp/display.h ****         {
 1871              		.loc 3 443 9 view .LVU403
 1872              	.LBE1049:
 1873              	.LBI1003:
 440:libDaisy//src/hid/disp/display.h ****     {
 1874              		.loc 3 440 10 is_stmt 1 view .LVU404
 1875              	.LBB1050:
 443:libDaisy//src/hid/disp/display.h ****         {
 1876              		.loc 3 443 9 view .LVU405
 1877 00e0 BBF1000F 		cmp	fp, #0
 1878 00e4 00F0AC80 		beq	.L112
 1879              	.LVL130:
 1880              	.L142:
 1881              	.LBB1005:
 1882              	.LBI1005:
 396:libDaisy//src/hid/disp/display.h ****     {
 1883              		.loc 3 396 10 view .LVU406
 1884              	.LBB1006:
 401:libDaisy//src/hid/disp/display.h ****             return 0;
 1885              		.loc 3 401 20 is_stmt 0 view .LVU407
 1886 00e8 ABF12005 		sub	r5, fp, #32
 401:libDaisy//src/hid/disp/display.h ****             return 0;
 1887              		.loc 3 401 9 view .LVU408
 1888 00ec EBB2     		uxtb	r3, r5
 1889 00ee 5E2B     		cmp	r3, #94
 1890 00f0 00F22C81 		bhi	.L146
 405:libDaisy//src/hid/disp/display.h ****            || Height() < (currentY_ + font.FontHeight))
 1891              		.loc 3 405 17 view .LVU409
 1892 00f4 D8F80030 		ldr	r3, [r8]
 1893 00f8 019A     		ldr	r2, [sp, #4]
 1894 00fa DB68     		ldr	r3, [r3, #12]
 1895 00fc 9342     		cmp	r3, r2
 1896 00fe 40F02881 		bne	.L191
 1897 0102 8020     		movs	r0, #128
 1898              	.L145:
 405:libDaisy//src/hid/disp/display.h ****            || Height() < (currentY_ + font.FontHeight))
 1899              		.loc 3 405 23 view .LVU410
 1900 0104 B8F80430 		ldrh	r3, [r8, #4]
 405:libDaisy//src/hid/disp/display.h ****            || Height() < (currentY_ + font.FontHeight))
 1901              		.loc 3 405 33 view .LVU411
 1902 0108 2344     		add	r3, r3, r4
 406:libDaisy//src/hid/disp/display.h ****         {
 1903              		.loc 3 406 12 view .LVU412
 1904 010a 9842     		cmp	r0, r3
 1905 010c C0F21E81 		blt	.L146
 406:libDaisy//src/hid/disp/display.h ****         {
 1906              		.loc 3 406 21 view .LVU413
 1907 0110 D8F80030 		ldr	r3, [r8]
 1908 0114 039A     		ldr	r2, [sp, #12]
 1909 0116 9B68     		ldr	r3, [r3, #8]
 1910 0118 9342     		cmp	r3, r2
 1911 011a 40F01D81 		bne	.L192
 1912 011e 4020     		movs	r0, #64
 1913              	.L147:
 406:libDaisy//src/hid/disp/display.h ****         {
 1914              		.loc 3 406 27 view .LVU414
 1915 0120 B8F80610 		ldrh	r1, [r8, #6]
ARM GAS  /var/folders/z2/7_lhr9dn53s9tj4s0rwtyswm0000gn/T//ccRFfwbB.s 			page 71


 406:libDaisy//src/hid/disp/display.h ****         {
 1916              		.loc 3 406 37 view .LVU415
 1917 0124 049A     		ldr	r2, [sp, #16]
 406:libDaisy//src/hid/disp/display.h ****         {
 1918              		.loc 3 406 27 view .LVU416
 1919 0126 0291     		str	r1, [sp, #8]
 406:libDaisy//src/hid/disp/display.h ****         {
 1920              		.loc 3 406 37 view .LVU417
 1921 0128 8B18     		adds	r3, r1, r2
 406:libDaisy//src/hid/disp/display.h ****         {
 1922              		.loc 3 406 12 view .LVU418
 1923 012a 9842     		cmp	r0, r3
 1924 012c C0F20E81 		blt	.L146
 1925              	.LVL131:
 413:libDaisy//src/hid/disp/display.h ****         {
 1926              		.loc 3 413 22 is_stmt 1 view .LVU419
 1927 0130 002A     		cmp	r2, #0
 1928 0132 00F01C81 		beq	.L148
 415:libDaisy//src/hid/disp/display.h ****             for(j = 0; j < font.FontWidth; j++)
 1929              		.loc 3 415 37 is_stmt 0 view .LVU420
 1930 0136 02FB05F5 		mul	r5, r2, r5
 1931 013a 6FF0004E 		mvn	lr, #-2147483648
 1932 013e 079B     		ldr	r3, [sp, #28]
 1933 0140 AE44     		add	lr, lr, r5
 1934 0142 1544     		add	r5, r5, r2
 1935 0144 CDF814B0 		str	fp, [sp, #20]
 1936 0148 03EB4E0E 		add	lr, r3, lr, lsl #1
 1937 014c 023B     		subs	r3, r3, #2
 434:libDaisy//src/hid/disp/display.h **** 
 1938              		.loc 3 434 19 view .LVU421
 1939 014e B8F804A0 		ldrh	r10, [r8, #4]
 1940 0152 03EB4503 		add	r3, r3, r5, lsl #1
 1941 0156 0D46     		mov	r5, r1
 1942 0158 9B46     		mov	fp, r3
 1943              	.LVL132:
 1944              	.L151:
 415:libDaisy//src/hid/disp/display.h ****             for(j = 0; j < font.FontWidth; j++)
 1945              		.loc 3 415 15 view .LVU422
 1946 015a 3EF8027F 		ldrh	r7, [lr, #2]!
 1947              	.LVL133:
 416:libDaisy//src/hid/disp/display.h ****             {
 1948              		.loc 3 416 26 is_stmt 1 view .LVU423
 1949 015e A4B3     		cbz	r4, .L156
 1950              	.LBB1007:
 1951              	.LBB1008:
 1952              	.LBB1009:
 1953              	.LBB1010:
 1954              	.LBB1011:
 359:libDaisy//src/dev/oled_ssd130x.h ****     }
 1955              		.loc 12 359 55 is_stmt 0 view .LVU424
 1956 0160 05F00703 		and	r3, r5, #7
 359:libDaisy//src/dev/oled_ssd130x.h ****     }
 1957              		.loc 12 359 49 view .LVU425
 1958 0164 4FF0010C 		mov	ip, #1
 359:libDaisy//src/dev/oled_ssd130x.h ****     }
 1959              		.loc 12 359 28 view .LVU426
 1960 0168 EA08     		lsrs	r2, r5, #3
ARM GAS  /var/folders/z2/7_lhr9dn53s9tj4s0rwtyswm0000gn/T//ccRFfwbB.s 			page 72


 1961 016a 5146     		mov	r1, r10
 359:libDaisy//src/dev/oled_ssd130x.h ****     }
 1962              		.loc 12 359 49 view .LVU427
 1963 016c 0CFA03FC 		lsl	ip, ip, r3
 1964 0170 0AF11403 		add	r3, r10, #20
 359:libDaisy//src/dev/oled_ssd130x.h ****     }
 1965              		.loc 12 359 42 view .LVU428
 1966 0174 4FFA8CFC 		sxtb	ip, ip
 1967 0178 03EBC212 		add	r2, r3, r2, lsl #7
 1968              	.LBE1011:
 1969              	.LBE1010:
 1970              	.LBE1009:
 1971              	.LBE1008:
 1972              	.LBE1007:
 416:libDaisy//src/hid/disp/display.h ****             {
 1973              		.loc 3 416 19 view .LVU429
 1974 017c 0023     		movs	r3, #0
 1975              	.LBB1029:
 1976              	.LBB1024:
 1977              	.LBB1019:
 1978              	.LBB1015:
 1979              	.LBB1012:
 359:libDaisy//src/dev/oled_ssd130x.h ****     }
 1980              		.loc 12 359 42 view .LVU430
 1981 017e 6FEA0C09 		mvn	r9, ip
 1982 0182 4244     		add	r2, r2, r8
 1983 0184 0DE0     		b	.L157
 1984              	.LVL134:
 1985              	.L193:
 359:libDaisy//src/dev/oled_ssd130x.h ****     }
 1986              		.loc 12 359 42 view .LVU431
 1987              	.LBE1012:
 1988              	.LBE1015:
 1989              	.LBE1019:
 1990              	.LBE1024:
 1991              	.LBE1029:
 1992              	.LBB1030:
 1993              	.LBI1030:
  42:libDaisy//src/hid/disp/oled_display.h ****     {
 1994              		.loc 2 42 10 is_stmt 1 view .LVU432
 1995              	.LBB1031:
 1996              	.LBI1031:
 352:libDaisy//src/dev/oled_ssd130x.h ****     {
 1997              		.loc 12 352 10 view .LVU433
 1998              	.LBB1032:
 354:libDaisy//src/dev/oled_ssd130x.h ****             return;
 1999              		.loc 12 354 9 is_stmt 0 view .LVU434
 2000 0186 7F29     		cmp	r1, #127
 2001 0188 06D8     		bhi	.L153
 2002 018a 3F2D     		cmp	r5, #63
 2003 018c 04D8     		bhi	.L153
 357:libDaisy//src/dev/oled_ssd130x.h ****         else
 2004              		.loc 12 357 42 view .LVU435
 2005 018e 1078     		ldrb	r0, [r2]	@ zero_extendqisi2
 356:libDaisy//src/dev/oled_ssd130x.h ****             buffer_[x + (y / 8) * width] |= (1 << (y % 8));
 2006              		.loc 12 356 9 view .LVU436
 2007 0190 96B1     		cbz	r6, .L155
ARM GAS  /var/folders/z2/7_lhr9dn53s9tj4s0rwtyswm0000gn/T//ccRFfwbB.s 			page 73


 2008              	.L187:
 356:libDaisy//src/dev/oled_ssd130x.h ****             buffer_[x + (y / 8) * width] |= (1 << (y % 8));
 2009              		.loc 12 356 9 view .LVU437
 2010              	.LBE1032:
 2011              	.LBE1031:
 2012              	.LBE1030:
 2013              	.LBB1033:
 2014              	.LBB1025:
 2015              	.LBB1020:
 357:libDaisy//src/dev/oled_ssd130x.h ****         else
 2016              		.loc 12 357 42 view .LVU438
 2017 0192 4CEA0000 		orr	r0, ip, r0
 2018 0196 1070     		strb	r0, [r2]
 2019              	.L153:
 2020              	.LBE1020:
 2021              	.LBE1025:
 2022              	.LBE1033:
 416:libDaisy//src/hid/disp/display.h ****             {
 2023              		.loc 3 416 13 is_stmt 1 view .LVU439
 2024 0198 0133     		adds	r3, r3, #1
 2025              	.LVL135:
 416:libDaisy//src/hid/disp/display.h ****             {
 2026              		.loc 3 416 26 view .LVU440
 2027 019a 0132     		adds	r2, r2, #1
 2028 019c 0131     		adds	r1, r1, #1
 2029 019e 9C42     		cmp	r4, r3
 2030 01a0 13D0     		beq	.L156
 2031              	.LVL136:
 2032              	.L157:
 418:libDaisy//src/hid/disp/display.h ****                 {
 2033              		.loc 3 418 23 is_stmt 0 view .LVU441
 2034 01a2 07FA03F0 		lsl	r0, r7, r3
 418:libDaisy//src/hid/disp/display.h ****                 {
 2035              		.loc 3 418 17 view .LVU442
 2036 01a6 0004     		lsls	r0, r0, #16
 2037 01a8 EDD4     		bmi	.L193
 2038              	.LVL137:
 2039              	.LBB1034:
 2040              	.LBI1007:
  42:libDaisy//src/hid/disp/oled_display.h ****     {
 2041              		.loc 2 42 10 is_stmt 1 view .LVU443
 2042              	.LBB1026:
 2043              	.LBI1008:
 352:libDaisy//src/dev/oled_ssd130x.h ****     {
 2044              		.loc 12 352 10 view .LVU444
 2045              	.LBB1021:
 354:libDaisy//src/dev/oled_ssd130x.h ****             return;
 2046              		.loc 12 354 9 is_stmt 0 view .LVU445
 2047 01aa 7F29     		cmp	r1, #127
 2048 01ac F4D8     		bhi	.L153
 2049 01ae 3F2D     		cmp	r5, #63
 2050 01b0 F2D8     		bhi	.L153
 357:libDaisy//src/dev/oled_ssd130x.h ****         else
 2051              		.loc 12 357 42 view .LVU446
 2052 01b2 1078     		ldrb	r0, [r2]	@ zero_extendqisi2
 356:libDaisy//src/dev/oled_ssd130x.h ****             buffer_[x + (y / 8) * width] |= (1 << (y % 8));
 2053              		.loc 12 356 9 view .LVU447
ARM GAS  /var/folders/z2/7_lhr9dn53s9tj4s0rwtyswm0000gn/T//ccRFfwbB.s 			page 74


 2054 01b4 002E     		cmp	r6, #0
 2055 01b6 ECD0     		beq	.L187
 2056              	.L155:
 2057              	.LVL138:
 2058              	.LBB1016:
 2059              	.LBI1010:
 352:libDaisy//src/dev/oled_ssd130x.h ****     {
 2060              		.loc 12 352 10 is_stmt 1 view .LVU448
 352:libDaisy//src/dev/oled_ssd130x.h ****     {
 2061              		.loc 12 352 10 is_stmt 0 view .LVU449
 2062              	.LBE1016:
 2063              	.LBE1021:
 2064              	.LBE1026:
 2065              	.LBE1034:
 416:libDaisy//src/hid/disp/display.h ****             {
 2066              		.loc 3 416 13 view .LVU450
 2067 01b8 0133     		adds	r3, r3, #1
 2068              	.LVL139:
 2069              	.LBB1035:
 2070              	.LBB1027:
 2071              	.LBB1022:
 2072              	.LBB1017:
 2073              	.LBB1013:
 359:libDaisy//src/dev/oled_ssd130x.h ****     }
 2074              		.loc 12 359 42 view .LVU451
 2075 01ba 09EA0000 		and	r0, r9, r0
 2076              	.LBE1013:
 2077              	.LBE1017:
 2078              	.LBE1022:
 2079              	.LBE1027:
 2080              	.LBE1035:
 416:libDaisy//src/hid/disp/display.h ****             {
 2081              		.loc 3 416 26 view .LVU452
 2082 01be 0132     		adds	r2, r2, #1
 2083 01c0 0131     		adds	r1, r1, #1
 2084 01c2 9C42     		cmp	r4, r3
 2085              	.LBB1036:
 2086              	.LBB1028:
 2087              	.LBB1023:
 2088              	.LBB1018:
 2089              	.LBB1014:
 359:libDaisy//src/dev/oled_ssd130x.h ****     }
 2090              		.loc 12 359 42 view .LVU453
 2091 01c4 02F8010C 		strb	r0, [r2, #-1]
 359:libDaisy//src/dev/oled_ssd130x.h ****     }
 2092              		.loc 12 359 42 view .LVU454
 2093              	.LBE1014:
 2094              	.LBE1018:
 2095              	.LBE1023:
 2096              	.LBE1028:
 2097              	.LBE1036:
 416:libDaisy//src/hid/disp/display.h ****             {
 2098              		.loc 3 416 13 is_stmt 1 view .LVU455
 2099              	.LVL140:
 416:libDaisy//src/hid/disp/display.h ****             {
 2100              		.loc 3 416 26 view .LVU456
 2101 01c8 EBD1     		bne	.L157
ARM GAS  /var/folders/z2/7_lhr9dn53s9tj4s0rwtyswm0000gn/T//ccRFfwbB.s 			page 75


 2102              	.LVL141:
 2103              	.L156:
 413:libDaisy//src/hid/disp/display.h ****         {
 2104              		.loc 3 413 9 view .LVU457
 413:libDaisy//src/hid/disp/display.h ****         {
 2105              		.loc 3 413 22 view .LVU458
 2106 01ca F345     		cmp	fp, lr
 2107 01cc 05F10105 		add	r5, r5, #1
 2108 01d0 C3D1     		bne	.L151
 2109 01d2 DDF814B0 		ldr	fp, [sp, #20]
 2110              	.LVL142:
 2111              	.L150:
 2112              	.LBB1037:
 2113              	.LBB1038:
 173:libDaisy//src/hid/disp/display.h ****         currentY_ = (y >= Height()) ? Height() - 1 : y;
 2114              		.loc 3 173 33 is_stmt 0 view .LVU459
 2115 01d6 D8F80020 		ldr	r2, [r8]
 2116              	.LBE1038:
 2117              	.LBE1037:
 434:libDaisy//src/hid/disp/display.h **** 
 2118              		.loc 3 434 18 view .LVU460
 2119 01da 0AEB0405 		add	r5, r10, r4
 2120 01de 0199     		ldr	r1, [sp, #4]
 2121              	.LBB1043:
 2122              	.LBB1039:
 173:libDaisy//src/hid/disp/display.h ****         currentY_ = (y >= Height()) ? Height() - 1 : y;
 2123              		.loc 3 173 33 view .LVU461
 2124 01e0 D368     		ldr	r3, [r2, #12]
 2125              	.LBE1039:
 2126              	.LBE1043:
 434:libDaisy//src/hid/disp/display.h **** 
 2127              		.loc 3 434 18 view .LVU462
 2128 01e2 ADB2     		uxth	r5, r5
 2129              	.LVL143:
 2130              	.LBB1044:
 2131              	.LBI1037:
 171:libDaisy//src/hid/disp/display.h ****     {
 2132              		.loc 3 171 10 is_stmt 1 view .LVU463
 2133              	.LBB1040:
 173:libDaisy//src/hid/disp/display.h ****         currentY_ = (y >= Height()) ? Height() - 1 : y;
 2134              		.loc 3 173 9 view .LVU464
 2135 01e4 8B42     		cmp	r3, r1
 2136 01e6 40F0BD80 		bne	.L194
 173:libDaisy//src/hid/disp/display.h ****         currentY_ = (y >= Height()) ? Height() - 1 : y;
 2137              		.loc 3 173 33 is_stmt 0 view .LVU465
 2138 01ea 8020     		movs	r0, #128
 2139              	.L158:
 173:libDaisy//src/hid/disp/display.h ****         currentY_ = (y >= Height()) ? Height() - 1 : y;
 2140              		.loc 3 173 19 view .LVU466
 2141 01ec 8542     		cmp	r5, r0
 2142 01ee 05D3     		bcc	.L159
 173:libDaisy//src/hid/disp/display.h ****         currentY_ = (y >= Height()) ? Height() - 1 : y;
 2143              		.loc 3 173 44 view .LVU467
 2144 01f0 D368     		ldr	r3, [r2, #12]
 2145 01f2 0199     		ldr	r1, [sp, #4]
 2146 01f4 8B42     		cmp	r3, r1
 2147 01f6 40F0C380 		bne	.L195
ARM GAS  /var/folders/z2/7_lhr9dn53s9tj4s0rwtyswm0000gn/T//ccRFfwbB.s 			page 76


 2148 01fa 7F25     		movs	r5, #127
 2149              	.LVL144:
 2150              	.L159:
 174:libDaisy//src/hid/disp/display.h ****     }
 2151              		.loc 3 174 34 view .LVU468
 2152 01fc 9368     		ldr	r3, [r2, #8]
 2153 01fe 039A     		ldr	r2, [sp, #12]
 173:libDaisy//src/hid/disp/display.h ****         currentY_ = (y >= Height()) ? Height() - 1 : y;
 2154              		.loc 3 173 19 view .LVU469
 2155 0200 A8F80450 		strh	r5, [r8, #4]	@ movhi
 174:libDaisy//src/hid/disp/display.h ****     }
 2156              		.loc 3 174 9 is_stmt 1 view .LVU470
 2157 0204 9342     		cmp	r3, r2
 2158 0206 40F0AA80 		bne	.L196
 174:libDaisy//src/hid/disp/display.h ****     }
 2159              		.loc 3 174 34 is_stmt 0 view .LVU471
 2160 020a 4020     		movs	r0, #64
 2161              	.L161:
 174:libDaisy//src/hid/disp/display.h ****     }
 2162              		.loc 3 174 19 view .LVU472
 2163 020c 029B     		ldr	r3, [sp, #8]
 2164 020e 8342     		cmp	r3, r0
 2165 0210 08D3     		bcc	.L162
 174:libDaisy//src/hid/disp/display.h ****     }
 2166              		.loc 3 174 46 view .LVU473
 2167 0212 D8F80030 		ldr	r3, [r8]
 2168 0216 039A     		ldr	r2, [sp, #12]
 2169 0218 9B68     		ldr	r3, [r3, #8]
 2170 021a 9342     		cmp	r3, r2
 2171 021c 40F0AA80 		bne	.L197
 2172 0220 3F23     		movs	r3, #63
 2173 0222 0293     		str	r3, [sp, #8]
 2174              	.LVL145:
 2175              	.L162:
 174:libDaisy//src/hid/disp/display.h ****     }
 2176              		.loc 3 174 19 view .LVU474
 2177 0224 029B     		ldr	r3, [sp, #8]
 2178 0226 A8F80630 		strh	r3, [r8, #6]	@ movhi
 2179              	.LVL146:
 2180              	.L144:
 174:libDaisy//src/hid/disp/display.h ****     }
 2181              		.loc 3 174 19 view .LVU475
 2182              	.LBE1040:
 2183              	.LBE1044:
 2184              	.LBE1006:
 2185              	.LBE1005:
 445:libDaisy//src/hid/disp/display.h ****                != *str)
 2186              		.loc 3 445 13 view .LVU476
 2187 022a 009A     		ldr	r2, [sp]
 2188 022c 1378     		ldrb	r3, [r2]	@ zero_extendqisi2
 2189 022e 5B45     		cmp	r3, fp
 2190 0230 06D1     		bne	.L112
 2191              	.LVL147:
 443:libDaisy//src/hid/disp/display.h ****         {
 2192              		.loc 3 443 9 is_stmt 1 view .LVU477
 2193 0232 12F801BF 		ldrb	fp, [r2, #1]!	@ zero_extendqisi2
 2194              	.LVL148:
ARM GAS  /var/folders/z2/7_lhr9dn53s9tj4s0rwtyswm0000gn/T//ccRFfwbB.s 			page 77


 443:libDaisy//src/hid/disp/display.h ****         {
 2195              		.loc 3 443 9 is_stmt 0 view .LVU478
 2196 0236 0092     		str	r2, [sp]
 2197 0238 BBF1000F 		cmp	fp, #0
 2198 023c 7FF454AF 		bne	.L142
 2199              	.LVL149:
 2200              	.L112:
 443:libDaisy//src/hid/disp/display.h ****         {
 2201              		.loc 3 443 9 view .LVU479
 2202              	.LBE1050:
 2203              	.LBE1053:
 471:libDaisy//src/hid/disp/display.h **** 
 2204              		.loc 3 471 5 view .LVU480
 2205 0240 0698     		ldr	r0, [sp, #24]
 2206 0242 09B0     		add	sp, sp, #36
 2207              		.cfi_remember_state
 2208              		.cfi_def_cfa_offset 36
 2209              		@ sp needed
 2210 0244 BDE8F08F 		pop	{r4, r5, r6, r7, r8, r9, r10, fp, pc}
 2211              	.LVL150:
 2212              	.L125:
 2213              		.cfi_restore_state
 2214              	.LBB1054:
 2215              	.LBB976:
 250:libDaisy//src/hid/disp/graphics_common.h ****                 return {int16_t(x_ + (other.GetCenterX() - GetCenterX())),
 2216              		.loc 14 250 13 is_stmt 1 view .LVU481
 251:libDaisy//src/hid/disp/graphics_common.h ****                         int16_t(y_ + (other.GetCenterY() - GetCenterY())),
 2217              		.loc 14 251 17 view .LVU482
 2218              	.LBB810:
 2219              	.LBI810:
  62:libDaisy//src/hid/disp/graphics_common.h ****     int16_t GetCenterY() const { return y_ + height_ / 2; }
 2220              		.loc 14 62 13 view .LVU483
 2221              	.LBB811:
  62:libDaisy//src/hid/disp/graphics_common.h ****     int16_t GetCenterY() const { return y_ + height_ / 2; }
 2222              		.loc 14 62 34 view .LVU484
  62:libDaisy//src/hid/disp/graphics_common.h ****     int16_t GetCenterY() const { return y_ + height_ / 2; }
 2223              		.loc 14 62 34 is_stmt 0 view .LVU485
 2224              	.LBE811:
 2225              	.LBE810:
 2226              	.LBB813:
 2227              	.LBI813:
  62:libDaisy//src/hid/disp/graphics_common.h ****     int16_t GetCenterY() const { return y_ + height_ / 2; }
 2228              		.loc 14 62 13 is_stmt 1 view .LVU486
 2229              	.LBB814:
  62:libDaisy//src/hid/disp/graphics_common.h ****     int16_t GetCenterY() const { return y_ + height_ / 2; }
 2230              		.loc 14 62 34 view .LVU487
  62:libDaisy//src/hid/disp/graphics_common.h ****     int16_t GetCenterY() const { return y_ + height_ / 2; }
 2231              		.loc 14 62 34 is_stmt 0 view .LVU488
 2232              	.LBE814:
 2233              	.LBE813:
 2234              	.LBB815:
 2235              	.LBB812:
  62:libDaisy//src/hid/disp/graphics_common.h ****     int16_t GetCenterY() const { return y_ + height_ / 2; }
 2236              		.loc 14 62 53 view .LVU489
 2237 0248 B4F90410 		ldrsh	r1, [r4, #4]
 2238              	.LVL151:
  62:libDaisy//src/hid/disp/graphics_common.h ****     int16_t GetCenterY() const { return y_ + height_ / 2; }
ARM GAS  /var/folders/z2/7_lhr9dn53s9tj4s0rwtyswm0000gn/T//ccRFfwbB.s 			page 78


 2239              		.loc 14 62 44 view .LVU490
 2240 024c 2788     		ldrh	r7, [r4]
  62:libDaisy//src/hid/disp/graphics_common.h ****     int16_t GetCenterY() const { return y_ + height_ / 2; }
 2241              		.loc 14 62 53 view .LVU491
 2242 024e 0029     		cmp	r1, #0
 2243 0250 B8BF     		it	lt
 2244 0252 0131     		addlt	r1, r1, #1
  62:libDaisy//src/hid/disp/graphics_common.h ****     int16_t GetCenterY() const { return y_ + height_ / 2; }
 2245              		.loc 14 62 44 view .LVU492
 2246 0254 07EB6107 		add	r7, r7, r1, asr #1
 2247              	.LBE812:
 2248              	.LBE815:
 2249              	.LBB816:
 2250              	.LBB788:
  63:libDaisy//src/hid/disp/graphics_common.h **** 
 2251              		.loc 14 63 54 view .LVU493
 2252 0258 B4F90610 		ldrsh	r1, [r4, #6]
 2253              	.LBE788:
 2254              	.LBE816:
 251:libDaisy//src/hid/disp/graphics_common.h ****                         int16_t(y_ + (other.GetCenterY() - GetCenterY())),
 2255              		.loc 14 251 58 view .LVU494
 2256 025c A7EB6307 		sub	r7, r7, r3, asr #1
 2257              	.LBB817:
 2258              	.LBB789:
  63:libDaisy//src/hid/disp/graphics_common.h **** 
 2259              		.loc 14 63 54 view .LVU495
 2260 0260 0029     		cmp	r1, #0
 2261              	.LBE789:
 2262              	.LBE817:
 251:libDaisy//src/hid/disp/graphics_common.h ****                         int16_t(y_ + (other.GetCenterY() - GetCenterY())),
 2263              		.loc 14 251 58 view .LVU496
 2264 0262 BFB2     		uxth	r7, r7
 2265              	.LVL152:
 2266              	.LBB818:
 2267              	.LBI785:
  63:libDaisy//src/hid/disp/graphics_common.h **** 
 2268              		.loc 14 63 13 is_stmt 1 view .LVU497
 2269              	.LBB790:
  63:libDaisy//src/hid/disp/graphics_common.h **** 
 2270              		.loc 14 63 34 view .LVU498
  63:libDaisy//src/hid/disp/graphics_common.h **** 
 2271              		.loc 14 63 34 is_stmt 0 view .LVU499
 2272              	.LBE790:
 2273              	.LBE818:
 2274              	.LBB819:
 2275              	.LBI819:
  63:libDaisy//src/hid/disp/graphics_common.h **** 
 2276              		.loc 14 63 13 is_stmt 1 view .LVU500
 2277              	.LBB820:
  63:libDaisy//src/hid/disp/graphics_common.h **** 
 2278              		.loc 14 63 34 view .LVU501
  63:libDaisy//src/hid/disp/graphics_common.h **** 
 2279              		.loc 14 63 34 is_stmt 0 view .LVU502
 2280              	.LBE820:
 2281              	.LBE819:
 2282              	.LBB821:
 2283              	.LBB791:
ARM GAS  /var/folders/z2/7_lhr9dn53s9tj4s0rwtyswm0000gn/T//ccRFfwbB.s 			page 79


  63:libDaisy//src/hid/disp/graphics_common.h **** 
 2284              		.loc 14 63 54 view .LVU503
 2285 0264 BFF602AF 		bge	.L132
 2286              	.L188:
  63:libDaisy//src/hid/disp/graphics_common.h **** 
 2287              		.loc 14 63 54 view .LVU504
 2288 0268 0131     		adds	r1, r1, #1
 2289 026a FFE6     		b	.L132
 2290              	.LVL153:
 2291              	.L124:
  63:libDaisy//src/hid/disp/graphics_common.h **** 
 2292              		.loc 14 63 54 view .LVU505
 2293              	.LBE791:
 2294              	.LBE821:
 213:libDaisy//src/hid/disp/graphics_common.h ****                 return {other.x_, other.y_, width_, height_};
 2295              		.loc 14 213 13 is_stmt 1 view .LVU506
 214:libDaisy//src/hid/disp/graphics_common.h ****             case Alignment::topRight:
 2296              		.loc 14 214 17 view .LVU507
 214:libDaisy//src/hid/disp/graphics_common.h ****             case Alignment::topRight:
 2297              		.loc 14 214 31 is_stmt 0 view .LVU508
 2298 026c B4F90070 		ldrsh	r7, [r4]
 2299              	.LBB822:
 2300              	.LBB823:
 2301              	.LBB824:
  32:libDaisy//src/hid/disp/graphics_common.h ****     {
 2302              		.loc 14 32 66 view .LVU509
 2303 0270 0699     		ldr	r1, [sp, #24]
 2304              	.LVL154:
  32:libDaisy//src/hid/disp/graphics_common.h ****     {
 2305              		.loc 14 32 66 view .LVU510
 2306              	.LBE824:
 2307              	.LBE823:
 2308              	.LBE822:
 214:libDaisy//src/hid/disp/graphics_common.h ****             case Alignment::topRight:
 2309              		.loc 14 214 41 view .LVU511
 2310 0272 B4F90240 		ldrsh	r4, [r4, #2]
 2311              	.LVL155:
 2312              	.LBB837:
 2313              	.LBI822:
  31:libDaisy//src/hid/disp/graphics_common.h ****     : x_(x), y_(y), width_(max(0, width)), height_(max(0, height))
 2314              		.loc 14 31 5 is_stmt 1 view .LVU512
 2315              	.LBB832:
 2316              	.LBB827:
  32:libDaisy//src/hid/disp/graphics_common.h ****     {
 2317              		.loc 14 32 66 is_stmt 0 view .LVU513
 2318 0276 0F80     		strh	r7, [r1]	@ movhi
 2319              	.LBE827:
 2320              	.LBE832:
 2321              	.LBE837:
 2322              	.LBE976:
 2323              	.LBE1054:
 468:libDaisy//src/hid/disp/display.h ****         ((ChildType*)(this))->ChildType::WriteString(str, font, on);
 2324              		.loc 3 468 18 view .LVU514
 2325 0278 BFB2     		uxth	r7, r7
 2326              	.LVL156:
 2327              	.LBB1055:
 2328              	.LBB977:
ARM GAS  /var/folders/z2/7_lhr9dn53s9tj4s0rwtyswm0000gn/T//ccRFfwbB.s 			page 80


 2329              	.LBB838:
 2330              	.LBB833:
 2331              	.LBB828:
  32:libDaisy//src/hid/disp/graphics_common.h ****     {
 2332              		.loc 14 32 66 view .LVU515
 2333 027a 4C80     		strh	r4, [r1, #2]	@ movhi
 2334              	.LBE828:
 2335              	.LBE833:
 2336              	.LBE838:
 2337              	.LBE977:
 2338              	.LBE1055:
 468:libDaisy//src/hid/disp/display.h ****         ((ChildType*)(this))->ChildType::WriteString(str, font, on);
 2339              		.loc 3 468 18 view .LVU516
 2340 027c A4B2     		uxth	r4, r4
 2341              	.LVL157:
 2342              	.LBB1056:
 2343              	.LBB978:
 2344              	.LBB839:
 2345              	.LBB834:
 2346              	.LBB829:
  32:libDaisy//src/hid/disp/graphics_common.h ****     {
 2347              		.loc 14 32 66 view .LVU517
 2348 027e 8B80     		strh	r3, [r1, #4]	@ movhi
 2349              	.LVL158:
 2350              	.LBB825:
 2351              	.LBI825:
 2352              		.loc 14 261 13 is_stmt 1 view .LVU518
 2353              	.LBE825:
 2354              	.LBE829:
 2355              	.LBE834:
 2356              	.LBE839:
 2357              	.LBE978:
