ARM GAS  /var/folders/z2/7_lhr9dn53s9tj4s0rwtyswm0000gn/T//ccRFfwbB.s 			page 1


   1              		.cpu cortex-m7
   2              		.arch armv7e-m
   3              		.fpu fpv5-d16
   4              		.eabi_attribute 28, 1
   5              		.eabi_attribute 20, 1
   6              		.eabi_attribute 21, 1
   7              		.eabi_attribute 23, 3
   8              		.eabi_attribute 24, 1
   9              		.eabi_attribute 25, 1
  10              		.eabi_attribute 26, 1
  11              		.eabi_attribute 30, 2
  12              		.eabi_attribute 34, 1
  13              		.eabi_attribute 18, 4
  14              		.file	"daisyfs.cpp"
  15              		.text
  16              	.Ltext0:
  17              		.cfi_sections	.debug_frame
  18              		.section	.text._ZN5daisy10DaisyPatchD2Ev,"axG",%progbits,_ZN5daisy10DaisyPatchD5Ev,comdat
  19              		.align	1
  20              		.p2align 2,,3
  21              		.weak	_ZN5daisy10DaisyPatchD2Ev
  22              		.syntax unified
  23              		.thumb
  24              		.thumb_func
  26              	_ZN5daisy10DaisyPatchD2Ev:
  27              	.LVL0:
  28              	.LFB2590:
  29              		.file 1 "libDaisy//src/daisy_patch.h"
   1:libDaisy//src/daisy_patch.h **** #pragma once
   2:libDaisy//src/daisy_patch.h **** #ifndef DSY_PATCH_BSP_H
   3:libDaisy//src/daisy_patch.h **** #define DSY_PATCH_BSP_H
   4:libDaisy//src/daisy_patch.h **** #include "daisy_seed.h"
   5:libDaisy//src/daisy_patch.h **** #include "dev/oled_ssd130x.h"
   6:libDaisy//src/daisy_patch.h **** 
   7:libDaisy//src/daisy_patch.h **** namespace daisy
   8:libDaisy//src/daisy_patch.h **** {
   9:libDaisy//src/daisy_patch.h **** /**
  10:libDaisy//src/daisy_patch.h ****     @brief Class that handles initializing all of the hardware specific to the Daisy Patch Board. \
  11:libDaisy//src/daisy_patch.h ****     Helper funtions are also in place to provide easy access to built-in controls and peripherals.
  12:libDaisy//src/daisy_patch.h ****     @author Stephen Hensley
  13:libDaisy//src/daisy_patch.h ****     @date November 2019
  14:libDaisy//src/daisy_patch.h ****     @ingroup boards
  15:libDaisy//src/daisy_patch.h **** */
  16:libDaisy//src/daisy_patch.h **** class DaisyPatch
  17:libDaisy//src/daisy_patch.h **** {
  18:libDaisy//src/daisy_patch.h ****   public:
  19:libDaisy//src/daisy_patch.h ****     /** Enum of Ctrls to represent the four CV/Knob combos on the Patch
  20:libDaisy//src/daisy_patch.h ****      */
  21:libDaisy//src/daisy_patch.h ****     enum Ctrl
  22:libDaisy//src/daisy_patch.h ****     {
  23:libDaisy//src/daisy_patch.h ****         CTRL_1,    /**< */
  24:libDaisy//src/daisy_patch.h ****         CTRL_2,    /**< */
  25:libDaisy//src/daisy_patch.h ****         CTRL_3,    /**< */
  26:libDaisy//src/daisy_patch.h ****         CTRL_4,    /**< */
  27:libDaisy//src/daisy_patch.h ****         CTRL_LAST, /**< */
  28:libDaisy//src/daisy_patch.h ****     };
  29:libDaisy//src/daisy_patch.h **** 
ARM GAS  /var/folders/z2/7_lhr9dn53s9tj4s0rwtyswm0000gn/T//ccRFfwbB.s 			page 2


  30:libDaisy//src/daisy_patch.h ****     /** Daisy patch gate inputs */
  31:libDaisy//src/daisy_patch.h ****     enum GateInput
  32:libDaisy//src/daisy_patch.h ****     {
  33:libDaisy//src/daisy_patch.h ****         GATE_IN_1,    /**< */
  34:libDaisy//src/daisy_patch.h ****         GATE_IN_2,    /** <*/
  35:libDaisy//src/daisy_patch.h ****         GATE_IN_LAST, /**< */
  36:libDaisy//src/daisy_patch.h ****     };
  37:libDaisy//src/daisy_patch.h **** 
  38:libDaisy//src/daisy_patch.h ****     /** Constructor */
  39:libDaisy//src/daisy_patch.h ****     DaisyPatch() {}
  40:libDaisy//src/daisy_patch.h ****     /** Destructor */
  41:libDaisy//src/daisy_patch.h ****     ~DaisyPatch() {}
  30              		.loc 1 41 5 view -0
  31              		.cfi_startproc
  32              		@ args = 0, pretend = 0, frame = 0
  33              		@ frame_needed = 0, uses_anonymous_args = 0
  34              		@ link register save eliminated.
  35              	.LBB404:
  36              	.LBI404:
  37              		.file 2 "libDaisy//src/hid/disp/oled_display.h"
   1:libDaisy//src/hid/disp/oled_display.h **** #pragma once
   2:libDaisy//src/hid/disp/oled_display.h **** #ifndef DSY_OLED_DISPLAY_H
   3:libDaisy//src/hid/disp/oled_display.h **** #define DSY_OLED_DISPLAY_H /**< Macro */
   4:libDaisy//src/hid/disp/oled_display.h **** 
   5:libDaisy//src/hid/disp/oled_display.h **** #include "display.h"
   6:libDaisy//src/hid/disp/oled_display.h **** 
   7:libDaisy//src/hid/disp/oled_display.h **** namespace daisy
   8:libDaisy//src/hid/disp/oled_display.h **** {
   9:libDaisy//src/hid/disp/oled_display.h **** /** 
  10:libDaisy//src/hid/disp/oled_display.h ****  * This class is for drawing to a monochrome OLED display. 
  11:libDaisy//src/hid/disp/oled_display.h ****  * @ingroup device
  12:libDaisy//src/hid/disp/oled_display.h **** */
  13:libDaisy//src/hid/disp/oled_display.h **** template <typename DisplayDriver>
  14:libDaisy//src/hid/disp/oled_display.h **** class OledDisplay : public OneBitGraphicsDisplayImpl<OledDisplay<DisplayDriver>>
  15:libDaisy//src/hid/disp/oled_display.h **** {
  16:libDaisy//src/hid/disp/oled_display.h ****   public:
  17:libDaisy//src/hid/disp/oled_display.h ****     OledDisplay() {}
  18:libDaisy//src/hid/disp/oled_display.h ****     virtual ~OledDisplay() {}
  38              		.loc 2 18 13 view .LVU1
  39              	.LBB405:
  40              	.LBI405:
  41              		.file 3 "libDaisy//src/hid/disp/display.h"
   1:libDaisy//src/hid/disp/display.h **** #pragma once
   2:libDaisy//src/hid/disp/display.h **** #ifndef DSY_DISPLAY_H
   3:libDaisy//src/hid/disp/display.h **** #define DSY_DISPLAY_H /**< Macro */
   4:libDaisy//src/hid/disp/display.h **** #include <cmath>
   5:libDaisy//src/hid/disp/display.h **** #include "util/oled_fonts.h"
   6:libDaisy//src/hid/disp/display.h **** #include "daisy_core.h"
   7:libDaisy//src/hid/disp/display.h **** #include "graphics_common.h"
   8:libDaisy//src/hid/disp/display.h **** 
   9:libDaisy//src/hid/disp/display.h **** #ifndef deg2rad
  10:libDaisy//src/hid/disp/display.h **** #define deg2rad(deg) ((deg)*3.141592 / 180.0)
  11:libDaisy//src/hid/disp/display.h **** #endif
  12:libDaisy//src/hid/disp/display.h **** 
  13:libDaisy//src/hid/disp/display.h **** namespace daisy
  14:libDaisy//src/hid/disp/display.h **** {
  15:libDaisy//src/hid/disp/display.h **** /** 
ARM GAS  /var/folders/z2/7_lhr9dn53s9tj4s0rwtyswm0000gn/T//ccRFfwbB.s 			page 3


  16:libDaisy//src/hid/disp/display.h ****  * This interface is used as a base class for all types of 1bit-per-pixel
  17:libDaisy//src/hid/disp/display.h ****  * graphics displays.
  18:libDaisy//src/hid/disp/display.h **** */
  19:libDaisy//src/hid/disp/display.h **** class OneBitGraphicsDisplay
  20:libDaisy//src/hid/disp/display.h **** {
  21:libDaisy//src/hid/disp/display.h ****   public:
  22:libDaisy//src/hid/disp/display.h ****     OneBitGraphicsDisplay() {}
  23:libDaisy//src/hid/disp/display.h ****     virtual ~OneBitGraphicsDisplay() {}
  24:libDaisy//src/hid/disp/display.h **** 
  25:libDaisy//src/hid/disp/display.h ****     virtual uint16_t Height() const = 0;
  26:libDaisy//src/hid/disp/display.h ****     virtual uint16_t Width() const  = 0;
  27:libDaisy//src/hid/disp/display.h **** 
  28:libDaisy//src/hid/disp/display.h ****     Rectangle GetBounds() const
  29:libDaisy//src/hid/disp/display.h ****     {
  30:libDaisy//src/hid/disp/display.h ****         return Rectangle(int16_t(Width()), int16_t(Height()));
  31:libDaisy//src/hid/disp/display.h ****     }
  32:libDaisy//src/hid/disp/display.h **** 
  33:libDaisy//src/hid/disp/display.h **** 
  34:libDaisy//src/hid/disp/display.h ****     size_t CurrentX() { return currentX_; };
  35:libDaisy//src/hid/disp/display.h ****     size_t CurrentY() { return currentY_; };
  36:libDaisy//src/hid/disp/display.h **** 
  37:libDaisy//src/hid/disp/display.h ****     /** 
  38:libDaisy//src/hid/disp/display.h ****     Fills the entire display with either on/off.
  39:libDaisy//src/hid/disp/display.h ****     \param on Sets on or off.
  40:libDaisy//src/hid/disp/display.h ****     */
  41:libDaisy//src/hid/disp/display.h ****     virtual void Fill(bool on) = 0;
  42:libDaisy//src/hid/disp/display.h **** 
  43:libDaisy//src/hid/disp/display.h ****     /**
  44:libDaisy//src/hid/disp/display.h ****     Sets the pixel at the specified coordinate to be on/off.
  45:libDaisy//src/hid/disp/display.h ****     \param x   x Coordinate
  46:libDaisy//src/hid/disp/display.h ****     \param y   y coordinate
  47:libDaisy//src/hid/disp/display.h ****     \param on  on or off
  48:libDaisy//src/hid/disp/display.h ****     */
  49:libDaisy//src/hid/disp/display.h ****     virtual void DrawPixel(uint_fast8_t x, uint_fast8_t y, bool on) = 0;
  50:libDaisy//src/hid/disp/display.h **** 
  51:libDaisy//src/hid/disp/display.h ****     /**
  52:libDaisy//src/hid/disp/display.h ****     Draws a line from (x1, y1) to (y1, y2)
  53:libDaisy//src/hid/disp/display.h ****     \param x1  x Coordinate of the starting point
  54:libDaisy//src/hid/disp/display.h ****     \param y1  y Coordinate of the starting point
  55:libDaisy//src/hid/disp/display.h ****     \param x2  x Coordinate of the ending point
  56:libDaisy//src/hid/disp/display.h ****     \param y2  y Coordinate of the ending point
  57:libDaisy//src/hid/disp/display.h ****     \param on  on or off
  58:libDaisy//src/hid/disp/display.h ****     */
  59:libDaisy//src/hid/disp/display.h ****     virtual void DrawLine(uint_fast8_t x1,
  60:libDaisy//src/hid/disp/display.h ****                           uint_fast8_t y1,
  61:libDaisy//src/hid/disp/display.h ****                           uint_fast8_t x2,
  62:libDaisy//src/hid/disp/display.h ****                           uint_fast8_t y2,
  63:libDaisy//src/hid/disp/display.h ****                           bool         on)
  64:libDaisy//src/hid/disp/display.h ****         = 0;
  65:libDaisy//src/hid/disp/display.h **** 
  66:libDaisy//src/hid/disp/display.h ****     /**
  67:libDaisy//src/hid/disp/display.h ****     Draws a rectangle based on two coordinates.
  68:libDaisy//src/hid/disp/display.h ****     \param x1 x Coordinate of the first point
  69:libDaisy//src/hid/disp/display.h ****     \param y1 y Coordinate of the first point
  70:libDaisy//src/hid/disp/display.h ****     \param x2 x Coordinate of the second point
  71:libDaisy//src/hid/disp/display.h ****     \param y2 y Coordinate of the second point
  72:libDaisy//src/hid/disp/display.h ****     \param on on or off
ARM GAS  /var/folders/z2/7_lhr9dn53s9tj4s0rwtyswm0000gn/T//ccRFfwbB.s 			page 4


  73:libDaisy//src/hid/disp/display.h ****     \param fill fill the rectangle or draw only the outline
  74:libDaisy//src/hid/disp/display.h ****     */
  75:libDaisy//src/hid/disp/display.h ****     virtual void DrawRect(uint_fast8_t x1,
  76:libDaisy//src/hid/disp/display.h ****                           uint_fast8_t y1,
  77:libDaisy//src/hid/disp/display.h ****                           uint_fast8_t x2,
  78:libDaisy//src/hid/disp/display.h ****                           uint_fast8_t y2,
  79:libDaisy//src/hid/disp/display.h ****                           bool         on,
  80:libDaisy//src/hid/disp/display.h ****                           bool         fill = false)
  81:libDaisy//src/hid/disp/display.h ****         = 0;
  82:libDaisy//src/hid/disp/display.h **** 
  83:libDaisy//src/hid/disp/display.h ****     /**
  84:libDaisy//src/hid/disp/display.h ****     Draws a rectangle.
  85:libDaisy//src/hid/disp/display.h ****     \param rect the rectangle
  86:libDaisy//src/hid/disp/display.h ****     \param on   on or off
  87:libDaisy//src/hid/disp/display.h ****     \param fill fill the rectangle or draw only the outline
  88:libDaisy//src/hid/disp/display.h ****     */
  89:libDaisy//src/hid/disp/display.h ****     void DrawRect(const Rectangle& rect, bool on, bool fill = false)
  90:libDaisy//src/hid/disp/display.h ****     {
  91:libDaisy//src/hid/disp/display.h ****         DrawRect(rect.GetX(),
  92:libDaisy//src/hid/disp/display.h ****                  rect.GetY(),
  93:libDaisy//src/hid/disp/display.h ****                  rect.GetRight(),
  94:libDaisy//src/hid/disp/display.h ****                  rect.GetBottom(),
  95:libDaisy//src/hid/disp/display.h ****                  on,
  96:libDaisy//src/hid/disp/display.h ****                  fill);
  97:libDaisy//src/hid/disp/display.h ****     }
  98:libDaisy//src/hid/disp/display.h **** 
  99:libDaisy//src/hid/disp/display.h ****     /**
 100:libDaisy//src/hid/disp/display.h ****     Draws an arc around the specified coordinate
 101:libDaisy//src/hid/disp/display.h ****     \param x           x Coordinate of the center of the arc
 102:libDaisy//src/hid/disp/display.h ****     \param y           y Coordinate of the center of the arc
 103:libDaisy//src/hid/disp/display.h ****     \param radius      radius of the arc
 104:libDaisy//src/hid/disp/display.h ****     \param start_angle angle where to start the arc
 105:libDaisy//src/hid/disp/display.h ****     \param sweep       total angle of the arc
 106:libDaisy//src/hid/disp/display.h ****     \param on  on or off
 107:libDaisy//src/hid/disp/display.h ****     */
 108:libDaisy//src/hid/disp/display.h ****     virtual void DrawArc(uint_fast8_t x,
 109:libDaisy//src/hid/disp/display.h ****                          uint_fast8_t y,
 110:libDaisy//src/hid/disp/display.h ****                          uint_fast8_t radius,
 111:libDaisy//src/hid/disp/display.h ****                          int_fast16_t start_angle,
 112:libDaisy//src/hid/disp/display.h ****                          int_fast16_t sweep,
 113:libDaisy//src/hid/disp/display.h ****                          bool         on)
 114:libDaisy//src/hid/disp/display.h ****         = 0;
 115:libDaisy//src/hid/disp/display.h **** 
 116:libDaisy//src/hid/disp/display.h ****     /**
 117:libDaisy//src/hid/disp/display.h ****     Draws a circle around the specified coordinate
 118:libDaisy//src/hid/disp/display.h ****     \param x           x Coordinate of the center of the circle
 119:libDaisy//src/hid/disp/display.h ****     \param y           y Coordinate of the center of the circle
 120:libDaisy//src/hid/disp/display.h ****     \param radius      radius of the circle
 121:libDaisy//src/hid/disp/display.h ****     \param on  on or off
 122:libDaisy//src/hid/disp/display.h ****     */
 123:libDaisy//src/hid/disp/display.h ****     void
 124:libDaisy//src/hid/disp/display.h ****     DrawCircle(uint_fast8_t x, uint_fast8_t y, uint_fast8_t radius, bool on)
 125:libDaisy//src/hid/disp/display.h ****     {
 126:libDaisy//src/hid/disp/display.h ****         DrawArc(x, y, radius, 0, 360, on);
 127:libDaisy//src/hid/disp/display.h ****     };
 128:libDaisy//src/hid/disp/display.h **** 
 129:libDaisy//src/hid/disp/display.h ****     /** 
ARM GAS  /var/folders/z2/7_lhr9dn53s9tj4s0rwtyswm0000gn/T//ccRFfwbB.s 			page 5


 130:libDaisy//src/hid/disp/display.h ****     Writes the character with the specific FontDef
 131:libDaisy//src/hid/disp/display.h ****     to the display buffer at the current Cursor position.
 132:libDaisy//src/hid/disp/display.h ****     \param ch character to be written
 133:libDaisy//src/hid/disp/display.h ****     \param font font to be written in
 134:libDaisy//src/hid/disp/display.h ****     \param on    on or off
 135:libDaisy//src/hid/disp/display.h ****     \return &
 136:libDaisy//src/hid/disp/display.h ****     */
 137:libDaisy//src/hid/disp/display.h ****     virtual char WriteChar(char ch, FontDef font, bool on) = 0;
 138:libDaisy//src/hid/disp/display.h **** 
 139:libDaisy//src/hid/disp/display.h ****     /** 
 140:libDaisy//src/hid/disp/display.h ****     Similar to WriteChar, except it will handle an entire String.
 141:libDaisy//src/hid/disp/display.h ****     Wrapping does not happen automatically, so the width
 142:libDaisy//src/hid/disp/display.h ****     of the string must be kept within the dimensions of the screen.
 143:libDaisy//src/hid/disp/display.h ****     \param str string to be written
 144:libDaisy//src/hid/disp/display.h ****     \param font font to use
 145:libDaisy//src/hid/disp/display.h ****     \param on  on or off
 146:libDaisy//src/hid/disp/display.h ****     \return &
 147:libDaisy//src/hid/disp/display.h ****     */
 148:libDaisy//src/hid/disp/display.h ****     virtual char WriteString(const char* str, FontDef font, bool on) = 0;
 149:libDaisy//src/hid/disp/display.h **** 
 150:libDaisy//src/hid/disp/display.h ****     /** 
 151:libDaisy//src/hid/disp/display.h ****     Similar to WriteString but justified within a bounding box.
 152:libDaisy//src/hid/disp/display.h ****     \param str          string to be written
 153:libDaisy//src/hid/disp/display.h ****     \param font         font to use
 154:libDaisy//src/hid/disp/display.h ****     \param boundingBox  the bounding box to draw the text in
 155:libDaisy//src/hid/disp/display.h ****     \param alignment    the alignment to use
 156:libDaisy//src/hid/disp/display.h ****     \param on           on or off
 157:libDaisy//src/hid/disp/display.h ****     \return The rectangle that was drawn to
 158:libDaisy//src/hid/disp/display.h ****     */
 159:libDaisy//src/hid/disp/display.h ****     virtual Rectangle WriteStringAligned(const char*    str,
 160:libDaisy//src/hid/disp/display.h ****                                          const FontDef& font,
 161:libDaisy//src/hid/disp/display.h ****                                          Rectangle      boundingBox,
 162:libDaisy//src/hid/disp/display.h ****                                          Alignment      alignment,
 163:libDaisy//src/hid/disp/display.h ****                                          bool           on)
 164:libDaisy//src/hid/disp/display.h ****         = 0;
 165:libDaisy//src/hid/disp/display.h **** 
 166:libDaisy//src/hid/disp/display.h ****     /** 
 167:libDaisy//src/hid/disp/display.h ****     Moves the 'Cursor' position used for WriteChar, and WriteStr to the specified coordinate.
 168:libDaisy//src/hid/disp/display.h ****     \param x x pos
 169:libDaisy//src/hid/disp/display.h ****     \param y y pos
 170:libDaisy//src/hid/disp/display.h ****     */
 171:libDaisy//src/hid/disp/display.h ****     void SetCursor(uint16_t x, uint16_t y)
 172:libDaisy//src/hid/disp/display.h ****     {
 173:libDaisy//src/hid/disp/display.h ****         currentX_ = (x >= Width()) ? Width() - 1 : x;
 174:libDaisy//src/hid/disp/display.h ****         currentY_ = (y >= Height()) ? Height() - 1 : y;
 175:libDaisy//src/hid/disp/display.h ****     }
 176:libDaisy//src/hid/disp/display.h **** 
 177:libDaisy//src/hid/disp/display.h ****     /** 
 178:libDaisy//src/hid/disp/display.h ****     Writes the current display buffer to the OLED device using SPI or I2C depending on 
 179:libDaisy//src/hid/disp/display.h ****     how the object was initialized.
 180:libDaisy//src/hid/disp/display.h ****     */
 181:libDaisy//src/hid/disp/display.h ****     virtual void Update() = 0;
 182:libDaisy//src/hid/disp/display.h **** 
 183:libDaisy//src/hid/disp/display.h ****   protected:
 184:libDaisy//src/hid/disp/display.h ****     uint16_t currentX_;
 185:libDaisy//src/hid/disp/display.h ****     uint16_t currentY_;
 186:libDaisy//src/hid/disp/display.h **** };
ARM GAS  /var/folders/z2/7_lhr9dn53s9tj4s0rwtyswm0000gn/T//ccRFfwbB.s 			page 6


 187:libDaisy//src/hid/disp/display.h **** 
 188:libDaisy//src/hid/disp/display.h **** /** This class is intended as a intermediary class for your actual implementation of the OneBitGrap
 189:libDaisy//src/hid/disp/display.h ****  *  interface. It uses the CRTP design pattern where the template argument is the child class. It p
 190:libDaisy//src/hid/disp/display.h ****  *  implementations for most of the functions, except DrawPixel(), Update() and Fill(), which you'l
 191:libDaisy//src/hid/disp/display.h ****  *  to provide in your child class.
 192:libDaisy//src/hid/disp/display.h ****  *  The main goal of this class is to provide common drawing functions without relying on massive a
 193:libDaisy//src/hid/disp/display.h ****  *  virtual function calls that would result in a performance loss. To achieve this, any drawing fu
 194:libDaisy//src/hid/disp/display.h ****  *  is implemented here and internally calls other drawing functions (e.g. DrawRect() which interna
 195:libDaisy//src/hid/disp/display.h ****  *  DrawPixel() and DrawLine()) makes these calls via the qualified name of these functions to expl
 196:libDaisy//src/hid/disp/display.h ****  *  suppress the virtual dispatch mechanism like this:
 197:libDaisy//src/hid/disp/display.h ****  * 
 198:libDaisy//src/hid/disp/display.h ****  *      ChildType::DrawPixel(...); // no virtual function call; direct call into the child class fu
 199:libDaisy//src/hid/disp/display.h ****  *  
 200:libDaisy//src/hid/disp/display.h ****  *  To create a custom OneBitGraphicsDisplay implementation, you can 
 201:libDaisy//src/hid/disp/display.h ****  *  A) inherit from OneBitGraphicsDisplay directly and provide all the drawing functions yourself
 202:libDaisy//src/hid/disp/display.h ****  *  B) Inherit from OneBitGraphicsDisplayImpl and only provide DrawPixel(), Fill() and Update()
 203:libDaisy//src/hid/disp/display.h ****  *     like this:
 204:libDaisy//src/hid/disp/display.h ****  *  
 205:libDaisy//src/hid/disp/display.h ****  *      class MyDisplayClass : public OneBitGraphicsDisplayImpl<MyDisplayClass> 
 206:libDaisy//src/hid/disp/display.h ****  *      {
 207:libDaisy//src/hid/disp/display.h ****  *      public:
 208:libDaisy//src/hid/disp/display.h ****  *          void Fill() override { ... };
 209:libDaisy//src/hid/disp/display.h ****  *          void DrawPixel(uint_fast8_t x, uint_fast8_t y, bool on) override { ... };
 210:libDaisy//src/hid/disp/display.h ****  *          void Update() override { ... }
 211:libDaisy//src/hid/disp/display.h ****  *      };
 212:libDaisy//src/hid/disp/display.h ****  *  
 213:libDaisy//src/hid/disp/display.h ****  */
 214:libDaisy//src/hid/disp/display.h **** template <class ChildType>
 215:libDaisy//src/hid/disp/display.h **** class OneBitGraphicsDisplayImpl : public OneBitGraphicsDisplay
 216:libDaisy//src/hid/disp/display.h **** {
 217:libDaisy//src/hid/disp/display.h ****   public:
 218:libDaisy//src/hid/disp/display.h ****     OneBitGraphicsDisplayImpl() {}
 219:libDaisy//src/hid/disp/display.h ****     virtual ~OneBitGraphicsDisplayImpl() {}
  42              		.loc 3 219 13 view .LVU2
  43              	.LBB406:
  44              	.LBI406:
  23:libDaisy//src/hid/disp/display.h **** 
  45              		.loc 3 23 13 view .LVU3
  23:libDaisy//src/hid/disp/display.h **** 
  46              		.loc 3 23 13 is_stmt 0 view .LVU4
  47              	.LBE406:
  48              	.LBE405:
  49              	.LBE404:
  50              	.LBB407:
  51              	.LBI407:
  52              		.file 4 "libDaisy//src/hid/midi.h"
   1:libDaisy//src/hid/midi.h **** #pragma once
   2:libDaisy//src/hid/midi.h **** #ifndef DSY_MIDI_H
   3:libDaisy//src/hid/midi.h **** #define DSY_MIDI_H
   4:libDaisy//src/hid/midi.h **** 
   5:libDaisy//src/hid/midi.h **** // TODO: make this adjustable
   6:libDaisy//src/hid/midi.h **** #define SYSEX_BUFFER_LEN 128
   7:libDaisy//src/hid/midi.h **** 
   8:libDaisy//src/hid/midi.h **** #include <stdint.h>
   9:libDaisy//src/hid/midi.h **** #include <stdlib.h>
  10:libDaisy//src/hid/midi.h **** #include "per/uart.h"
  11:libDaisy//src/hid/midi.h **** #include "util/ringbuffer.h"
ARM GAS  /var/folders/z2/7_lhr9dn53s9tj4s0rwtyswm0000gn/T//ccRFfwbB.s 			page 7


  12:libDaisy//src/hid/midi.h **** #include "hid/MidiEvent.h"
  13:libDaisy//src/hid/midi.h **** #include "hid/usb_midi.h"
  14:libDaisy//src/hid/midi.h **** #include "sys/system.h"
  15:libDaisy//src/hid/midi.h **** 
  16:libDaisy//src/hid/midi.h **** namespace daisy
  17:libDaisy//src/hid/midi.h **** {
  18:libDaisy//src/hid/midi.h **** /** @brief   Transport layer for sending and receiving MIDI data over UART 
  19:libDaisy//src/hid/midi.h ****  *  @details This is the mode of communication used for TRS and DIN MIDI
  20:libDaisy//src/hid/midi.h ****  *  @ingroup midi
  21:libDaisy//src/hid/midi.h **** */
  22:libDaisy//src/hid/midi.h **** class MidiUartTransport
  23:libDaisy//src/hid/midi.h **** {
  24:libDaisy//src/hid/midi.h ****   public:
  25:libDaisy//src/hid/midi.h ****     MidiUartTransport() {}
  26:libDaisy//src/hid/midi.h ****     ~MidiUartTransport() {}
  27:libDaisy//src/hid/midi.h **** 
  28:libDaisy//src/hid/midi.h ****     struct Config
  29:libDaisy//src/hid/midi.h ****     {
  30:libDaisy//src/hid/midi.h ****         UartHandler::Config::Peripheral periph;
  31:libDaisy//src/hid/midi.h ****         dsy_gpio_pin                    rx;
  32:libDaisy//src/hid/midi.h ****         dsy_gpio_pin                    tx;
  33:libDaisy//src/hid/midi.h **** 
  34:libDaisy//src/hid/midi.h ****         Config()
  35:libDaisy//src/hid/midi.h ****         {
  36:libDaisy//src/hid/midi.h ****             periph = UartHandler::Config::Peripheral::USART_1;
  37:libDaisy//src/hid/midi.h ****             rx     = {DSY_GPIOB, 7};
  38:libDaisy//src/hid/midi.h ****             tx     = {DSY_GPIOB, 6};
  39:libDaisy//src/hid/midi.h ****         }
  40:libDaisy//src/hid/midi.h ****     };
  41:libDaisy//src/hid/midi.h **** 
  42:libDaisy//src/hid/midi.h ****     inline void Init(Config config)
  43:libDaisy//src/hid/midi.h ****     {
  44:libDaisy//src/hid/midi.h ****         UartHandler::Config uart_config;
  45:libDaisy//src/hid/midi.h **** 
  46:libDaisy//src/hid/midi.h ****         //defaults
  47:libDaisy//src/hid/midi.h ****         uart_config.baudrate   = 31250;
  48:libDaisy//src/hid/midi.h ****         uart_config.stopbits   = UartHandler::Config::StopBits::BITS_1;
  49:libDaisy//src/hid/midi.h ****         uart_config.parity     = UartHandler::Config::Parity::NONE;
  50:libDaisy//src/hid/midi.h ****         uart_config.mode       = UartHandler::Config::Mode::TX_RX;
  51:libDaisy//src/hid/midi.h ****         uart_config.wordlength = UartHandler::Config::WordLength::BITS_8;
  52:libDaisy//src/hid/midi.h **** 
  53:libDaisy//src/hid/midi.h ****         //user settings
  54:libDaisy//src/hid/midi.h ****         uart_config.periph        = config.periph;
  55:libDaisy//src/hid/midi.h ****         uart_config.pin_config.rx = config.rx;
  56:libDaisy//src/hid/midi.h ****         uart_config.pin_config.tx = config.tx;
  57:libDaisy//src/hid/midi.h **** 
  58:libDaisy//src/hid/midi.h ****         uart_.Init(uart_config);
  59:libDaisy//src/hid/midi.h ****     }
  60:libDaisy//src/hid/midi.h **** 
  61:libDaisy//src/hid/midi.h ****     inline void    StartRx() { uart_.StartRx(); }
  62:libDaisy//src/hid/midi.h ****     inline size_t  Readable() { return uart_.Readable(); }
  63:libDaisy//src/hid/midi.h ****     inline uint8_t Rx() { return uart_.PopRx(); }
  64:libDaisy//src/hid/midi.h ****     inline bool    RxActive() { return uart_.RxActive(); }
  65:libDaisy//src/hid/midi.h ****     inline void    FlushRx() { uart_.FlushRx(); }
  66:libDaisy//src/hid/midi.h ****     inline void    Tx(uint8_t* buff, size_t size) { uart_.PollTx(buff, size); }
  67:libDaisy//src/hid/midi.h **** 
  68:libDaisy//src/hid/midi.h ****   private:
ARM GAS  /var/folders/z2/7_lhr9dn53s9tj4s0rwtyswm0000gn/T//ccRFfwbB.s 			page 8


  69:libDaisy//src/hid/midi.h ****     UartHandler uart_;
  70:libDaisy//src/hid/midi.h **** };
  71:libDaisy//src/hid/midi.h **** 
  72:libDaisy//src/hid/midi.h **** /** 
  73:libDaisy//src/hid/midi.h ****     @brief Simple MIDI Handler \n 
  74:libDaisy//src/hid/midi.h ****     Parses bytes from an input into valid MidiEvents. \n 
  75:libDaisy//src/hid/midi.h ****     The MidiEvents fill a FIFO queue that the user can pop messages from.
  76:libDaisy//src/hid/midi.h ****     @author shensley
  77:libDaisy//src/hid/midi.h ****     @date March 2020
  78:libDaisy//src/hid/midi.h ****     @ingroup midi
  79:libDaisy//src/hid/midi.h **** */
  80:libDaisy//src/hid/midi.h **** template <typename Transport>
  81:libDaisy//src/hid/midi.h **** class MidiHandler
  82:libDaisy//src/hid/midi.h **** {
  83:libDaisy//src/hid/midi.h ****   public:
  84:libDaisy//src/hid/midi.h ****     MidiHandler() {}
  85:libDaisy//src/hid/midi.h ****     ~MidiHandler() {}
  53              		.loc 4 85 5 is_stmt 1 view .LVU5
  54              	.LBB408:
  55              	.LBI408:
  26:libDaisy//src/hid/midi.h **** 
  56              		.loc 4 26 5 view .LVU6
  26:libDaisy//src/hid/midi.h **** 
  57              		.loc 4 26 5 is_stmt 0 view .LVU7
  58              	.LBE408:
  59              	.LBE407:
  60              	.LBB409:
  61              	.LBI409:
  62              		.file 5 "libDaisy//src/hid/encoder.h"
   1:libDaisy//src/hid/encoder.h **** #pragma once
   2:libDaisy//src/hid/encoder.h **** #ifndef DSY_ENCODER_H
   3:libDaisy//src/hid/encoder.h **** #define DSY_ENCODER_H
   4:libDaisy//src/hid/encoder.h **** #include "daisy_core.h"
   5:libDaisy//src/hid/encoder.h **** #include "per/gpio.h"
   6:libDaisy//src/hid/encoder.h **** #include "hid/switch.h"
   7:libDaisy//src/hid/encoder.h **** 
   8:libDaisy//src/hid/encoder.h **** namespace daisy
   9:libDaisy//src/hid/encoder.h **** {
  10:libDaisy//src/hid/encoder.h **** /** 
  11:libDaisy//src/hid/encoder.h ****     @brief Generic Class for handling Quadrature Encoders \n 
  12:libDaisy//src/hid/encoder.h ****     Inspired/influenced by Mutable Instruments (pichenettes) Encoder classes
  13:libDaisy//src/hid/encoder.h ****     @author Stephen Hensley
  14:libDaisy//src/hid/encoder.h ****     @date December 2019
  15:libDaisy//src/hid/encoder.h ****     @ingroup controls
  16:libDaisy//src/hid/encoder.h **** */
  17:libDaisy//src/hid/encoder.h **** class Encoder
  18:libDaisy//src/hid/encoder.h **** {
  19:libDaisy//src/hid/encoder.h ****   public:
  20:libDaisy//src/hid/encoder.h ****     Encoder() {}
  21:libDaisy//src/hid/encoder.h ****     ~Encoder() {}
  63              		.loc 5 21 5 is_stmt 1 view .LVU8
  64              	.LBB410:
  65              	.LBI410:
  66              		.file 6 "libDaisy//src/hid/switch.h"
   1:libDaisy//src/hid/switch.h **** #pragma once
   2:libDaisy//src/hid/switch.h **** #ifndef DSY_SWITCH_H
   3:libDaisy//src/hid/switch.h **** #define DSY_SWITCH_H
ARM GAS  /var/folders/z2/7_lhr9dn53s9tj4s0rwtyswm0000gn/T//ccRFfwbB.s 			page 9


   4:libDaisy//src/hid/switch.h **** #include "daisy_core.h"
   5:libDaisy//src/hid/switch.h **** #include "per/gpio.h"
   6:libDaisy//src/hid/switch.h **** #include "sys/system.h"
   7:libDaisy//src/hid/switch.h **** 
   8:libDaisy//src/hid/switch.h **** namespace daisy
   9:libDaisy//src/hid/switch.h **** {
  10:libDaisy//src/hid/switch.h **** /** 
  11:libDaisy//src/hid/switch.h ****     Generic Class for handling momentary/latching switches \n 
  12:libDaisy//src/hid/switch.h ****     Inspired/influenced by Mutable Instruments (pichenettes) Switch classes
  13:libDaisy//src/hid/switch.h ****     @author Stephen Hensley
  14:libDaisy//src/hid/switch.h ****     @date December 2019
  15:libDaisy//src/hid/switch.h ****     @ingroup controls
  16:libDaisy//src/hid/switch.h **** */
  17:libDaisy//src/hid/switch.h **** class Switch
  18:libDaisy//src/hid/switch.h **** {
  19:libDaisy//src/hid/switch.h ****   public:
  20:libDaisy//src/hid/switch.h ****     /** Specifies the expected behavior of the switch */
  21:libDaisy//src/hid/switch.h ****     enum Type
  22:libDaisy//src/hid/switch.h ****     {
  23:libDaisy//src/hid/switch.h ****         TYPE_TOGGLE,    /**< & */
  24:libDaisy//src/hid/switch.h ****         TYPE_MOMENTARY, /**< & */
  25:libDaisy//src/hid/switch.h ****     };
  26:libDaisy//src/hid/switch.h ****     /** Specifies whether the pressed is HIGH or LOW. */
  27:libDaisy//src/hid/switch.h ****     enum Polarity
  28:libDaisy//src/hid/switch.h ****     {
  29:libDaisy//src/hid/switch.h ****         POLARITY_NORMAL,   /**< & */
  30:libDaisy//src/hid/switch.h ****         POLARITY_INVERTED, /**< & */
  31:libDaisy//src/hid/switch.h ****     };
  32:libDaisy//src/hid/switch.h **** 
  33:libDaisy//src/hid/switch.h ****     /** Specifies whether to use built-in Pull Up/Down resistors to hold button at a given state wh
  34:libDaisy//src/hid/switch.h ****     enum Pull
  35:libDaisy//src/hid/switch.h ****     {
  36:libDaisy//src/hid/switch.h ****         PULL_UP,   /**< & */
  37:libDaisy//src/hid/switch.h ****         PULL_DOWN, /**< & */
  38:libDaisy//src/hid/switch.h ****         PULL_NONE, /**< & */
  39:libDaisy//src/hid/switch.h ****     };
  40:libDaisy//src/hid/switch.h **** 
  41:libDaisy//src/hid/switch.h ****     Switch() {}
  42:libDaisy//src/hid/switch.h ****     ~Switch() {}
  67              		.loc 6 42 5 view .LVU9
  68              		.loc 6 42 5 is_stmt 0 view .LVU10
  69              	.LBE410:
  70              	.LBE409:
  71              	.LBB411:
  72              	.LBI411:
  73              		.file 7 "libDaisy//src/daisy_seed.h"
   1:libDaisy//src/daisy_seed.h **** #pragma once
   2:libDaisy//src/daisy_seed.h **** #ifndef DSY_SEED_H
   3:libDaisy//src/daisy_seed.h **** #define DSY_SEED_H
   4:libDaisy//src/daisy_seed.h **** 
   5:libDaisy//src/daisy_seed.h **** #include "daisy.h"
   6:libDaisy//src/daisy_seed.h **** 
   7:libDaisy//src/daisy_seed.h **** //Uncomment this out if you're still using the rev2 hardware
   8:libDaisy//src/daisy_seed.h **** //#define SEED_REV2
   9:libDaisy//src/daisy_seed.h **** 
  10:libDaisy//src/daisy_seed.h **** namespace daisy
  11:libDaisy//src/daisy_seed.h **** {
ARM GAS  /var/folders/z2/7_lhr9dn53s9tj4s0rwtyswm0000gn/T//ccRFfwbB.s 			page 10


  12:libDaisy//src/daisy_seed.h **** /**
  13:libDaisy//src/daisy_seed.h ****    @brief This is the higher-level interface for the Daisy board. \n 
  14:libDaisy//src/daisy_seed.h ****     All basic peripheral configuration/initialization is setup here. \n
  15:libDaisy//src/daisy_seed.h **** 
  16:libDaisy//src/daisy_seed.h ****    @ingroup boards
  17:libDaisy//src/daisy_seed.h **** */
  18:libDaisy//src/daisy_seed.h **** class DaisySeed
  19:libDaisy//src/daisy_seed.h **** {
  20:libDaisy//src/daisy_seed.h ****   public:
  21:libDaisy//src/daisy_seed.h ****     DaisySeed() {}
  22:libDaisy//src/daisy_seed.h ****     ~DaisySeed() {}
  74              		.loc 7 22 5 is_stmt 1 view .LVU11
  75              	.LBB412:
  76              	.LBI412:
  77              		.file 8 "libDaisy//src/sys/system.h"
   1:libDaisy//src/sys/system.h **** #ifndef DSY_SYSTEM_H
   2:libDaisy//src/sys/system.h **** #define DSY_SYSTEM_H
   3:libDaisy//src/sys/system.h **** 
   4:libDaisy//src/sys/system.h **** #ifndef UNIT_TEST // for unit tests, a dummy implementation is provided below
   5:libDaisy//src/sys/system.h **** 
   6:libDaisy//src/sys/system.h **** #include <cstdint>
   7:libDaisy//src/sys/system.h **** #include "per/tim.h"
   8:libDaisy//src/sys/system.h **** 
   9:libDaisy//src/sys/system.h **** namespace daisy
  10:libDaisy//src/sys/system.h **** {
  11:libDaisy//src/sys/system.h **** /** A handle for interacting with the Core System. 
  12:libDaisy//src/sys/system.h ****  ** This includes the Clock tree, MPU, global DMA initialization,
  13:libDaisy//src/sys/system.h ****  ** cache handling, and any other necessary global initiailzation
  14:libDaisy//src/sys/system.h ****  **
  15:libDaisy//src/sys/system.h ****  ** @author shensley
  16:libDaisy//src/sys/system.h ****  ** @ingroup system
  17:libDaisy//src/sys/system.h ****  */
  18:libDaisy//src/sys/system.h **** class System
  19:libDaisy//src/sys/system.h **** {
  20:libDaisy//src/sys/system.h ****   public:
  21:libDaisy//src/sys/system.h ****     /** Contains settings for initializing the System */
  22:libDaisy//src/sys/system.h ****     struct Config
  23:libDaisy//src/sys/system.h ****     {
  24:libDaisy//src/sys/system.h ****         /** Specifies the system clock frequency that feeds APB/AHB clocks, etc. */
  25:libDaisy//src/sys/system.h ****         enum class SysClkFreq
  26:libDaisy//src/sys/system.h ****         {
  27:libDaisy//src/sys/system.h ****             FREQ_400MHZ,
  28:libDaisy//src/sys/system.h ****             FREQ_480MHZ,
  29:libDaisy//src/sys/system.h ****         };
  30:libDaisy//src/sys/system.h **** 
  31:libDaisy//src/sys/system.h ****         /** Method to call on the struct to set to defaults
  32:libDaisy//src/sys/system.h ****          ** CPU Freq set to 400MHz
  33:libDaisy//src/sys/system.h ****          ** Cache Enabled 
  34:libDaisy//src/sys/system.h ****          ** */
  35:libDaisy//src/sys/system.h ****         void Defaults()
  36:libDaisy//src/sys/system.h ****         {
  37:libDaisy//src/sys/system.h ****             cpu_freq    = SysClkFreq::FREQ_400MHZ;
  38:libDaisy//src/sys/system.h ****             use_dcache  = true;
  39:libDaisy//src/sys/system.h ****             use_icache  = true;
  40:libDaisy//src/sys/system.h ****             skip_clocks = false;
  41:libDaisy//src/sys/system.h ****         }
  42:libDaisy//src/sys/system.h **** 
ARM GAS  /var/folders/z2/7_lhr9dn53s9tj4s0rwtyswm0000gn/T//ccRFfwbB.s 			page 11


  43:libDaisy//src/sys/system.h ****         /** Method to call on the struct to set to boost mode:
  44:libDaisy//src/sys/system.h ****          ** CPU Freq set to 480MHz
  45:libDaisy//src/sys/system.h ****          ** Cache Enabled 
  46:libDaisy//src/sys/system.h ****          ** */
  47:libDaisy//src/sys/system.h ****         void Boost()
  48:libDaisy//src/sys/system.h ****         {
  49:libDaisy//src/sys/system.h ****             cpu_freq    = SysClkFreq::FREQ_480MHZ;
  50:libDaisy//src/sys/system.h ****             use_dcache  = true;
  51:libDaisy//src/sys/system.h ****             use_icache  = true;
  52:libDaisy//src/sys/system.h ****             skip_clocks = false;
  53:libDaisy//src/sys/system.h ****         }
  54:libDaisy//src/sys/system.h **** 
  55:libDaisy//src/sys/system.h ****         SysClkFreq cpu_freq;
  56:libDaisy//src/sys/system.h ****         bool       use_dcache;
  57:libDaisy//src/sys/system.h ****         bool       use_icache;
  58:libDaisy//src/sys/system.h ****         bool       skip_clocks;
  59:libDaisy//src/sys/system.h ****     };
  60:libDaisy//src/sys/system.h **** 
  61:libDaisy//src/sys/system.h ****     /** Describes the different regions of memory available to the Daisy
  62:libDaisy//src/sys/system.h ****      * 
  63:libDaisy//src/sys/system.h ****      */
  64:libDaisy//src/sys/system.h ****     enum MemoryRegion
  65:libDaisy//src/sys/system.h ****     {
  66:libDaisy//src/sys/system.h ****         INTERNAL_FLASH = 0,
  67:libDaisy//src/sys/system.h ****         ITCMRAM,
  68:libDaisy//src/sys/system.h ****         DTCMRAM,
  69:libDaisy//src/sys/system.h ****         SRAM_D1,
  70:libDaisy//src/sys/system.h ****         SRAM_D2,
  71:libDaisy//src/sys/system.h ****         SRAM_D3,
  72:libDaisy//src/sys/system.h ****         SDRAM,
  73:libDaisy//src/sys/system.h ****         QSPI,
  74:libDaisy//src/sys/system.h ****         INVALID_ADDRESS,
  75:libDaisy//src/sys/system.h ****     };
  76:libDaisy//src/sys/system.h **** 
  77:libDaisy//src/sys/system.h ****     System() {}
  78:libDaisy//src/sys/system.h ****     ~System() {}
  78              		.loc 8 78 5 view .LVU12
  79              		.loc 8 78 5 is_stmt 0 view .LVU13
  80              	.LBE412:
  81              	.LBB413:
  82              	.LBI413:
  83              		.file 9 "libDaisy//src/hid/usb.h"
   1:libDaisy//src/hid/usb.h **** #pragma once
   2:libDaisy//src/hid/usb.h **** #ifndef DSY_HID_USB_H
   3:libDaisy//src/hid/usb.h **** #define DSY_HID_USB_H
   4:libDaisy//src/hid/usb.h **** #include <stdint.h>
   5:libDaisy//src/hid/usb.h **** #include <stdlib.h>
   6:libDaisy//src/hid/usb.h **** 
   7:libDaisy//src/hid/usb.h **** namespace daisy
   8:libDaisy//src/hid/usb.h **** /** @addtogroup human_interface
   9:libDaisy//src/hid/usb.h ****     @{
  10:libDaisy//src/hid/usb.h **** */
  11:libDaisy//src/hid/usb.h **** 
  12:libDaisy//src/hid/usb.h **** {
  13:libDaisy//src/hid/usb.h **** /** 
  14:libDaisy//src/hid/usb.h ****     @brief Interface for initializing and using the USB Peripherals on the daisy
  15:libDaisy//src/hid/usb.h ****     @author Stephen Hensley
ARM GAS  /var/folders/z2/7_lhr9dn53s9tj4s0rwtyswm0000gn/T//ccRFfwbB.s 			page 12


  16:libDaisy//src/hid/usb.h ****     @date December 2019
  17:libDaisy//src/hid/usb.h **** */
  18:libDaisy//src/hid/usb.h **** class UsbHandle
  19:libDaisy//src/hid/usb.h **** {
  20:libDaisy//src/hid/usb.h ****   public:
  21:libDaisy//src/hid/usb.h ****     /** Return values for USBHandle Functions */
  22:libDaisy//src/hid/usb.h ****     enum class Result
  23:libDaisy//src/hid/usb.h ****     {
  24:libDaisy//src/hid/usb.h ****         OK,
  25:libDaisy//src/hid/usb.h ****         ERR,
  26:libDaisy//src/hid/usb.h ****     };
  27:libDaisy//src/hid/usb.h **** 
  28:libDaisy//src/hid/usb.h ****     /** Specified which of the two USB Peripherals to initialize. */
  29:libDaisy//src/hid/usb.h ****     enum UsbPeriph
  30:libDaisy//src/hid/usb.h ****     {
  31:libDaisy//src/hid/usb.h ****         FS_INTERNAL, /**< Internal pin */
  32:libDaisy//src/hid/usb.h ****         FS_EXTERNAL, /**< FS External D+ pin is Pin 38 (GPIO32). FS External D- pin is Pin 37 (GPIO
  33:libDaisy//src/hid/usb.h ****         FS_BOTH,     /**< Both */
  34:libDaisy//src/hid/usb.h ****     };
  35:libDaisy//src/hid/usb.h **** 
  36:libDaisy//src/hid/usb.h **** 
  37:libDaisy//src/hid/usb.h ****     /** Function called upon reception of a buffer */
  38:libDaisy//src/hid/usb.h ****     typedef void (*ReceiveCallback)(uint8_t* buff, uint32_t* len);
  39:libDaisy//src/hid/usb.h **** 
  40:libDaisy//src/hid/usb.h ****     UsbHandle() {}
  41:libDaisy//src/hid/usb.h **** 
  42:libDaisy//src/hid/usb.h ****     ~UsbHandle() {}
  84              		.loc 9 42 5 is_stmt 1 view .LVU14
  85              		.loc 9 42 5 is_stmt 0 view .LVU15
  86              	.LBE413:
  87              	.LBB414:
  88              	.LBI414:
  89              		.file 10 "libDaisy//src/per/adc.h"
   1:libDaisy//src/per/adc.h **** #pragma once
   2:libDaisy//src/per/adc.h **** #ifndef DSY_ADC_H
   3:libDaisy//src/per/adc.h **** #define DSY_ADC_H /**< Macro */
   4:libDaisy//src/per/adc.h **** #include <stdint.h>
   5:libDaisy//src/per/adc.h **** #include <stdlib.h>
   6:libDaisy//src/per/adc.h **** #include "daisy_core.h"
   7:libDaisy//src/per/adc.h **** #include "per/gpio.h"
   8:libDaisy//src/per/adc.h **** 
   9:libDaisy//src/per/adc.h **** #define DSY_ADC_MAX_CHANNELS 16 /**< Maximum number of ADC channels */
  10:libDaisy//src/per/adc.h **** 
  11:libDaisy//src/per/adc.h **** namespace daisy
  12:libDaisy//src/per/adc.h **** {
  13:libDaisy//src/per/adc.h **** /** @addtogroup per_analog
  14:libDaisy//src/per/adc.h ****     @{
  15:libDaisy//src/per/adc.h **** */
  16:libDaisy//src/per/adc.h **** 
  17:libDaisy//src/per/adc.h **** /* While there may not be many configuration options here,
  18:libDaisy//src/per/adc.h **** using a struct like this allows us to add more configuration
  19:libDaisy//src/per/adc.h **** later without breaking existing functionality.
  20:libDaisy//src/per/adc.h **** */
  21:libDaisy//src/per/adc.h **** 
  22:libDaisy//src/per/adc.h **** /** @brief   Configuration Structure for an ADC Channel 
  23:libDaisy//src/per/adc.h ****  *  @details This can be used to configure a a single input, 
  24:libDaisy//src/per/adc.h ****  *           or a multiplexed input, allowing up to 8 inputs on 
ARM GAS  /var/folders/z2/7_lhr9dn53s9tj4s0rwtyswm0000gn/T//ccRFfwbB.s 			page 13


  25:libDaisy//src/per/adc.h ****  *           one channel.
  26:libDaisy//src/per/adc.h ****  *  @note    Sharing data lines to multiple muxes _is_ possible, but
  27:libDaisy//src/per/adc.h ****  *           each channel sharing data lines must be set to the maximum
  28:libDaisy//src/per/adc.h ****  *           number of channels, even if some multiplexers have fewer
  29:libDaisy//src/per/adc.h ****  *           inputs connected.
  30:libDaisy//src/per/adc.h **** */
  31:libDaisy//src/per/adc.h **** struct AdcChannelConfig
  32:libDaisy//src/per/adc.h **** {
  33:libDaisy//src/per/adc.h ****     /** Which pin to use for multiplexing */
  34:libDaisy//src/per/adc.h ****     enum MuxPin
  35:libDaisy//src/per/adc.h ****     {
  36:libDaisy//src/per/adc.h ****         MUX_SEL_0,    /**< & */
  37:libDaisy//src/per/adc.h ****         MUX_SEL_1,    /**< & */
  38:libDaisy//src/per/adc.h ****         MUX_SEL_2,    /**< & */
  39:libDaisy//src/per/adc.h ****         MUX_SEL_LAST, /**< & */
  40:libDaisy//src/per/adc.h ****     };
  41:libDaisy//src/per/adc.h **** 
  42:libDaisy//src/per/adc.h ****     /** Initializes a single ADC pin as an ADC. 
  43:libDaisy//src/per/adc.h ****     \param pin Pin to init.
  44:libDaisy//src/per/adc.h ****      */
  45:libDaisy//src/per/adc.h ****     void InitSingle(dsy_gpio_pin pin);
  46:libDaisy//src/per/adc.h **** 
  47:libDaisy//src/per/adc.h ****     /** 
  48:libDaisy//src/per/adc.h ****     Initializes a single ADC pin as a Multiplexed ADC.
  49:libDaisy//src/per/adc.h ****     Requires a CD405X Multiplexer connected to the pin.
  50:libDaisy//src/per/adc.h ****     You only need to supply the mux pins that are required,
  51:libDaisy//src/per/adc.h ****     e.g. a 4052 mux would only require mux_0 and mux_1.
  52:libDaisy//src/per/adc.h ****     Internal Callbacks handle the pin addressing.
  53:libDaisy//src/per/adc.h ****     \param mux_channels must be 1-8
  54:libDaisy//src/per/adc.h ****     \param mux_0 First mux pin
  55:libDaisy//src/per/adc.h ****     \param mux_1 Second mux pin
  56:libDaisy//src/per/adc.h ****     \param mux_2 Third mux pin
  57:libDaisy//src/per/adc.h ****     \param adc_pin &
  58:libDaisy//src/per/adc.h ****     */
  59:libDaisy//src/per/adc.h ****     void InitMux(dsy_gpio_pin adc_pin,
  60:libDaisy//src/per/adc.h ****                  size_t       mux_channels,
  61:libDaisy//src/per/adc.h ****                  dsy_gpio_pin mux_0,
  62:libDaisy//src/per/adc.h ****                  dsy_gpio_pin mux_1 = {DSY_GPIOX, 0},
  63:libDaisy//src/per/adc.h ****                  dsy_gpio_pin mux_2 = {DSY_GPIOX, 0});
  64:libDaisy//src/per/adc.h **** 
  65:libDaisy//src/per/adc.h ****     dsy_gpio pin_;                   /**< & */
  66:libDaisy//src/per/adc.h ****     dsy_gpio mux_pin_[MUX_SEL_LAST]; /**< & */
  67:libDaisy//src/per/adc.h ****     uint8_t  mux_channels_;          /**< & */
  68:libDaisy//src/per/adc.h **** };
  69:libDaisy//src/per/adc.h **** 
  70:libDaisy//src/per/adc.h **** /**
  71:libDaisy//src/per/adc.h ****    @brief Handler for analog to digital conversion
  72:libDaisy//src/per/adc.h **** */
  73:libDaisy//src/per/adc.h **** class AdcHandle
  74:libDaisy//src/per/adc.h **** {
  75:libDaisy//src/per/adc.h ****   public:
  76:libDaisy//src/per/adc.h ****     /** Supported oversampling amounts */
  77:libDaisy//src/per/adc.h ****     enum OverSampling
  78:libDaisy//src/per/adc.h ****     {
  79:libDaisy//src/per/adc.h ****         OVS_NONE, /**< & */
  80:libDaisy//src/per/adc.h ****         OVS_4,    /**< & */
  81:libDaisy//src/per/adc.h ****         OVS_8,    /**< & */
ARM GAS  /var/folders/z2/7_lhr9dn53s9tj4s0rwtyswm0000gn/T//ccRFfwbB.s 			page 14


  82:libDaisy//src/per/adc.h ****         OVS_16,   /**< & */
  83:libDaisy//src/per/adc.h ****         OVS_32,   /**< & */
  84:libDaisy//src/per/adc.h ****         OVS_64,   /**< & */
  85:libDaisy//src/per/adc.h ****         OVS_128,  /**< & */
  86:libDaisy//src/per/adc.h ****         OVS_256,  /**< & */
  87:libDaisy//src/per/adc.h ****         OVS_512,  /**< & */
  88:libDaisy//src/per/adc.h ****         OVS_1024, /**< & */
  89:libDaisy//src/per/adc.h ****         OVS_LAST, /**< & */
  90:libDaisy//src/per/adc.h ****     };
  91:libDaisy//src/per/adc.h **** 
  92:libDaisy//src/per/adc.h ****     AdcHandle() {}
  93:libDaisy//src/per/adc.h ****     ~AdcHandle() {}
  90              		.loc 10 93 5 is_stmt 1 view .LVU16
  91              		.loc 10 93 5 is_stmt 0 view .LVU17
  92              	.LBE414:
  93              	.LBB415:
  94              	.LBI415:
  95              		.file 11 "libDaisy//src/hid/audio.h"
   1:libDaisy//src/hid/audio.h **** #ifndef DSY_AUDIO_H
   2:libDaisy//src/hid/audio.h **** #define DSY_AUDIO_H /**< & */
   3:libDaisy//src/hid/audio.h **** 
   4:libDaisy//src/hid/audio.h **** #include "per/sai.h"
   5:libDaisy//src/hid/audio.h **** 
   6:libDaisy//src/hid/audio.h **** namespace daisy
   7:libDaisy//src/hid/audio.h **** {
   8:libDaisy//src/hid/audio.h **** /** @brief Audio Engine Handle
   9:libDaisy//src/hid/audio.h ****  *  @ingroup audio 
  10:libDaisy//src/hid/audio.h ****  *  @details This class allows for higher level access to an audio engine.
  11:libDaisy//src/hid/audio.h ****  *           If you're using a SOM like the DaisySeed or DaisyPatchSM (or any 
  12:libDaisy//src/hid/audio.h ****  *            board that includes one of those objects) then the intialization
  13:libDaisy//src/hid/audio.h ****  *            is already taken  care of.
  14:libDaisy//src/hid/audio.h ****  *           If you're setting up your own custom hardware, or need to make changes
  15:libDaisy//src/hid/audio.h ****  *           you will have to take the following steps:
  16:libDaisy//src/hid/audio.h ****  *             1. Create and Initialize an SaiHandle or two depending on your requirements
  17:libDaisy//src/hid/audio.h ****  *             2. Initialize the Audio Handle with the desired settings and the Initialized SaiHand
  18:libDaisy//src/hid/audio.h ****  *             3. If the connected codec requires special configuration or initialization, do so
  19:libDaisy//src/hid/audio.h ****  *             4. Write a callback method using either the AudioCallback or the InterleavingAudioCa
  20:libDaisy//src/hid/audio.h ****  *             5. Start the Audio using one of the StartAudio function
  21:libDaisy//src/hid/audio.h ****  */
  22:libDaisy//src/hid/audio.h **** class AudioHandle
  23:libDaisy//src/hid/audio.h **** {
  24:libDaisy//src/hid/audio.h ****   public:
  25:libDaisy//src/hid/audio.h ****     /** Manually configurable details about the Audio Engine */
  26:libDaisy//src/hid/audio.h ****     /** TODO: Figure out how to get samplerate in here. */
  27:libDaisy//src/hid/audio.h ****     struct Config
  28:libDaisy//src/hid/audio.h ****     {
  29:libDaisy//src/hid/audio.h ****         /** number of samples to process per callback */
  30:libDaisy//src/hid/audio.h ****         size_t blocksize;
  31:libDaisy//src/hid/audio.h **** 
  32:libDaisy//src/hid/audio.h ****         /**< Sample rate of audio */
  33:libDaisy//src/hid/audio.h ****         SaiHandle::Config::SampleRate samplerate;
  34:libDaisy//src/hid/audio.h **** 
  35:libDaisy//src/hid/audio.h ****         /** factor for adjustment before and after callback for hardware that may have extra headro
  36:libDaisy//src/hid/audio.h ****         float postgain;
  37:libDaisy//src/hid/audio.h **** 
  38:libDaisy//src/hid/audio.h ****         /** factor for additional one-sided compensation to audio path for hardware that may
  39:libDaisy//src/hid/audio.h ****          *  have unequal input/output ranges
ARM GAS  /var/folders/z2/7_lhr9dn53s9tj4s0rwtyswm0000gn/T//ccRFfwbB.s 			page 15


  40:libDaisy//src/hid/audio.h ****          */
  41:libDaisy//src/hid/audio.h ****         float output_compensation;
  42:libDaisy//src/hid/audio.h **** 
  43:libDaisy//src/hid/audio.h ****         /** Sets default values for config struct */
  44:libDaisy//src/hid/audio.h ****         Config()
  45:libDaisy//src/hid/audio.h ****         : blocksize(48),
  46:libDaisy//src/hid/audio.h ****           samplerate(SaiHandle::Config::SampleRate::SAI_48KHZ),
  47:libDaisy//src/hid/audio.h ****           postgain(1.f),
  48:libDaisy//src/hid/audio.h ****           output_compensation(1.f)
  49:libDaisy//src/hid/audio.h ****         {
  50:libDaisy//src/hid/audio.h ****         }
  51:libDaisy//src/hid/audio.h ****     };
  52:libDaisy//src/hid/audio.h **** 
  53:libDaisy//src/hid/audio.h ****     enum class Result
  54:libDaisy//src/hid/audio.h ****     {
  55:libDaisy//src/hid/audio.h ****         OK,
  56:libDaisy//src/hid/audio.h ****         ERR,
  57:libDaisy//src/hid/audio.h ****     };
  58:libDaisy//src/hid/audio.h **** 
  59:libDaisy//src/hid/audio.h ****     /** Non-Interleaving input buffer
  60:libDaisy//src/hid/audio.h ****      * Buffer arranged by float[chn][sample] 
  61:libDaisy//src/hid/audio.h ****      * const so that the user can't modify the input
  62:libDaisy//src/hid/audio.h ****      */
  63:libDaisy//src/hid/audio.h ****     typedef const float* const* InputBuffer;
  64:libDaisy//src/hid/audio.h **** 
  65:libDaisy//src/hid/audio.h ****     /** Non-Interleaving output buffer
  66:libDaisy//src/hid/audio.h ****      * Arranged by float[chn][sample] 
  67:libDaisy//src/hid/audio.h ****      */
  68:libDaisy//src/hid/audio.h ****     typedef float** OutputBuffer;
  69:libDaisy//src/hid/audio.h **** 
  70:libDaisy//src/hid/audio.h ****     /** Type for a Non-Interleaving audio callback 
  71:libDaisy//src/hid/audio.h ****      * Non-Interleaving audio callbacks in daisy will be of this type
  72:libDaisy//src/hid/audio.h ****      */
  73:libDaisy//src/hid/audio.h ****     typedef void (*AudioCallback)(InputBuffer  in,
  74:libDaisy//src/hid/audio.h ****                                   OutputBuffer out,
  75:libDaisy//src/hid/audio.h ****                                   size_t       size);
  76:libDaisy//src/hid/audio.h **** 
  77:libDaisy//src/hid/audio.h ****     /** Interleaving Input buffer
  78:libDaisy//src/hid/audio.h ****      ** audio is prepared as { L0, R0, L1, R1, . . . LN, RN }]
  79:libDaisy//src/hid/audio.h ****      ** this is const, as the user shouldn't modify it
  80:libDaisy//src/hid/audio.h ****     */
  81:libDaisy//src/hid/audio.h ****     typedef const float* InterleavingInputBuffer;
  82:libDaisy//src/hid/audio.h **** 
  83:libDaisy//src/hid/audio.h ****     /** Interleaving Output buffer 
  84:libDaisy//src/hid/audio.h ****      ** audio is prepared as { L0, R0, L1, R1, . . . LN, RN }
  85:libDaisy//src/hid/audio.h ****     */
  86:libDaisy//src/hid/audio.h ****     typedef float* InterleavingOutputBuffer;
  87:libDaisy//src/hid/audio.h **** 
  88:libDaisy//src/hid/audio.h ****     /** Interleaving Audio Callback 
  89:libDaisy//src/hid/audio.h ****      * Interleaving audio callbacks in daisy must be of this type
  90:libDaisy//src/hid/audio.h ****      */
  91:libDaisy//src/hid/audio.h ****     typedef void (*InterleavingAudioCallback)(InterleavingInputBuffer  in,
  92:libDaisy//src/hid/audio.h ****                                               InterleavingOutputBuffer out,
  93:libDaisy//src/hid/audio.h ****                                               size_t                   size);
  94:libDaisy//src/hid/audio.h **** 
  95:libDaisy//src/hid/audio.h ****     AudioHandle() : pimpl_(nullptr) {}
  96:libDaisy//src/hid/audio.h ****     ~AudioHandle() {}
ARM GAS  /var/folders/z2/7_lhr9dn53s9tj4s0rwtyswm0000gn/T//ccRFfwbB.s 			page 16


  96              		.loc 11 96 5 is_stmt 1 view .LVU18
  97              		.loc 11 96 5 is_stmt 0 view .LVU19
  98              	.LBE415:
  99              	.LBE411:
 100              		.loc 1 41 20 view .LVU20
 101 0000 7047     		bx	lr
 102              		.cfi_endproc
 103              	.LFE2590:
 105              		.weak	_ZN5daisy10DaisyPatchD1Ev
 106              		.thumb_set _ZN5daisy10DaisyPatchD1Ev,_ZN5daisy10DaisyPatchD2Ev
 107 0002 00BF     		.section	.text._ZN5daisy11OledDisplayINS_13SSD130xDriverILj128ELj64ENS_24SSD130x4WireSpiTransportE
 108              		.align	1
 109              		.p2align 2,,3
 110              		.weak	_ZN5daisy11OledDisplayINS_13SSD130xDriverILj128ELj64ENS_24SSD130x4WireSpiTransportEEEED2Ev
 111              		.syntax unified
 112              		.thumb
 113              		.thumb_func
 115              	_ZN5daisy11OledDisplayINS_13SSD130xDriverILj128ELj64ENS_24SSD130x4WireSpiTransportEEEED2Ev:
 116              	.LVL1:
 117              	.LFB4881:
 118              		.loc 2 18 13 is_stmt 1 view -0
 119              		.cfi_startproc
 120              		@ args = 0, pretend = 0, frame = 0
 121              		@ frame_needed = 0, uses_anonymous_args = 0
 122              		@ link register save eliminated.
 123              	.LBB416:
 124              	.LBI416:
 125              		.loc 3 219 13 view .LVU22
 126              	.LBB417:
 127              	.LBI417:
  23:libDaisy//src/hid/disp/display.h **** 
 128              		.loc 3 23 13 view .LVU23
  23:libDaisy//src/hid/disp/display.h **** 
 129              		.loc 3 23 13 is_stmt 0 view .LVU24
 130              	.LBE417:
 131              	.LBE416:
 132              		.loc 2 18 29 view .LVU25
 133 0000 7047     		bx	lr
 134              		.cfi_endproc
 135              	.LFE4881:
 137              		.weak	_ZN5daisy11OledDisplayINS_13SSD130xDriverILj128ELj64ENS_24SSD130x4WireSpiTransportEEEED1Ev
 138              		.thumb_set _ZN5daisy11OledDisplayINS_13SSD130xDriverILj128ELj64ENS_24SSD130x4WireSpiTransportEEEED
 139 0002 00BF     		.section	.text._ZNK5daisy11OledDisplayINS_13SSD130xDriverILj128ELj64ENS_24SSD130x4WireSpiTransport
 140              		.align	1
 141              		.p2align 2,,3
 142              		.weak	_ZNK5daisy11OledDisplayINS_13SSD130xDriverILj128ELj64ENS_24SSD130x4WireSpiTransportEEEE6Heig
 143              		.syntax unified
 144              		.thumb
 145              		.thumb_func
 147              	_ZNK5daisy11OledDisplayINS_13SSD130xDriverILj128ELj64ENS_24SSD130x4WireSpiTransportEEEE6HeightEv:
 148              	.LVL2:
 149              	.LFB5444:
  19:libDaisy//src/hid/disp/oled_display.h **** 
  20:libDaisy//src/hid/disp/oled_display.h ****     struct Config
  21:libDaisy//src/hid/disp/oled_display.h ****     {
  22:libDaisy//src/hid/disp/oled_display.h ****         typename DisplayDriver::Config driver_config;
  23:libDaisy//src/hid/disp/oled_display.h ****     };
ARM GAS  /var/folders/z2/7_lhr9dn53s9tj4s0rwtyswm0000gn/T//ccRFfwbB.s 			page 17


  24:libDaisy//src/hid/disp/oled_display.h **** 
  25:libDaisy//src/hid/disp/oled_display.h ****     void Init(Config config) { driver_.Init(config.driver_config); }
  26:libDaisy//src/hid/disp/oled_display.h **** 
  27:libDaisy//src/hid/disp/oled_display.h ****     uint16_t Height() const override { return driver_.Height(); }
 150              		.loc 2 27 14 is_stmt 1 view -0
 151              		.cfi_startproc
 152              		@ args = 0, pretend = 0, frame = 0
 153              		@ frame_needed = 0, uses_anonymous_args = 0
 154              		@ link register save eliminated.
 155              		.loc 2 27 65 is_stmt 0 view .LVU27
 156 0000 4020     		movs	r0, #64
 157              	.LVL3:
 158              		.loc 2 27 65 view .LVU28
 159 0002 7047     		bx	lr
 160              		.cfi_endproc
 161              	.LFE5444:
 163              		.section	.text._ZNK5daisy11OledDisplayINS_13SSD130xDriverILj128ELj64ENS_24SSD130x4WireSpiTransport
 164              		.align	1
 165              		.p2align 2,,3
 166              		.weak	_ZNK5daisy11OledDisplayINS_13SSD130xDriverILj128ELj64ENS_24SSD130x4WireSpiTransportEEEE5Widt
 167              		.syntax unified
 168              		.thumb
 169              		.thumb_func
 171              	_ZNK5daisy11OledDisplayINS_13SSD130xDriverILj128ELj64ENS_24SSD130x4WireSpiTransportEEEE5WidthEv:
 172              	.LVL4:
 173              	.LFB5445:
  28:libDaisy//src/hid/disp/oled_display.h ****     uint16_t Width() const override { return driver_.Width(); }
 174              		.loc 2 28 14 is_stmt 1 view -0
 175              		.cfi_startproc
 176              		@ args = 0, pretend = 0, frame = 0
 177              		@ frame_needed = 0, uses_anonymous_args = 0
 178              		@ link register save eliminated.
 179              		.loc 2 28 63 is_stmt 0 view .LVU30
 180 0000 8020     		movs	r0, #128
 181              	.LVL5:
 182              		.loc 2 28 63 view .LVU31
 183 0002 7047     		bx	lr
 184              		.cfi_endproc
 185              	.LFE5445:
 187              		.section	.text._ZN5daisy11OledDisplayINS_13SSD130xDriverILj128ELj64ENS_24SSD130x4WireSpiTransportE
 188              		.align	1
 189              		.p2align 2,,3
 190              		.weak	_ZN5daisy11OledDisplayINS_13SSD130xDriverILj128ELj64ENS_24SSD130x4WireSpiTransportEEEE4FillE
 191              		.syntax unified
 192              		.thumb
 193              		.thumb_func
 195              	_ZN5daisy11OledDisplayINS_13SSD130xDriverILj128ELj64ENS_24SSD130x4WireSpiTransportEEEE4FillEb:
 196              	.LVL6:
 197              	.LFB5446:
  29:libDaisy//src/hid/disp/oled_display.h **** 
  30:libDaisy//src/hid/disp/oled_display.h ****     /** 
  31:libDaisy//src/hid/disp/oled_display.h ****     Fills the entire display with either on/off.
  32:libDaisy//src/hid/disp/oled_display.h ****     \param on Sets on or off.
  33:libDaisy//src/hid/disp/oled_display.h ****     */
  34:libDaisy//src/hid/disp/oled_display.h ****     void Fill(bool on) override { driver_.Fill(on); }
 198              		.loc 2 34 10 is_stmt 1 view -0
 199              		.cfi_startproc
ARM GAS  /var/folders/z2/7_lhr9dn53s9tj4s0rwtyswm0000gn/T//ccRFfwbB.s 			page 18


 200              		@ args = 0, pretend = 0, frame = 0
 201              		@ frame_needed = 0, uses_anonymous_args = 0
 202              		@ link register save eliminated.
 203              	.LBB418:
 204              	.LBI418:
 205              		.file 12 "libDaisy//src/dev/oled_ssd130x.h"
   1:libDaisy//src/dev/oled_ssd130x.h **** #pragma once
   2:libDaisy//src/dev/oled_ssd130x.h **** #ifndef SA_OLED_SSD130X_H
   3:libDaisy//src/dev/oled_ssd130x.h **** #define SA_OLED_SSD130X_H /**< & */
   4:libDaisy//src/dev/oled_ssd130x.h **** 
   5:libDaisy//src/dev/oled_ssd130x.h **** #include "per/i2c.h"
   6:libDaisy//src/dev/oled_ssd130x.h **** #include "per/spi.h"
   7:libDaisy//src/dev/oled_ssd130x.h **** #include "per/gpio.h"
   8:libDaisy//src/dev/oled_ssd130x.h **** #include "sys/system.h"
   9:libDaisy//src/dev/oled_ssd130x.h **** 
  10:libDaisy//src/dev/oled_ssd130x.h **** namespace daisy
  11:libDaisy//src/dev/oled_ssd130x.h **** {
  12:libDaisy//src/dev/oled_ssd130x.h **** /**
  13:libDaisy//src/dev/oled_ssd130x.h ****  * I2C Transport for SSD1306 / SSD1309 OLED display devices
  14:libDaisy//src/dev/oled_ssd130x.h ****  */
  15:libDaisy//src/dev/oled_ssd130x.h **** class SSD130xI2CTransport
  16:libDaisy//src/dev/oled_ssd130x.h **** {
  17:libDaisy//src/dev/oled_ssd130x.h ****   public:
  18:libDaisy//src/dev/oled_ssd130x.h ****     struct Config
  19:libDaisy//src/dev/oled_ssd130x.h ****     {
  20:libDaisy//src/dev/oled_ssd130x.h ****         Config()
  21:libDaisy//src/dev/oled_ssd130x.h ****         {
  22:libDaisy//src/dev/oled_ssd130x.h ****             // Intialize using defaults
  23:libDaisy//src/dev/oled_ssd130x.h ****             Defaults();
  24:libDaisy//src/dev/oled_ssd130x.h ****         }
  25:libDaisy//src/dev/oled_ssd130x.h ****         I2CHandle::Config i2c_config;
  26:libDaisy//src/dev/oled_ssd130x.h ****         uint8_t           i2c_address;
  27:libDaisy//src/dev/oled_ssd130x.h ****         void              Defaults()
  28:libDaisy//src/dev/oled_ssd130x.h ****         {
  29:libDaisy//src/dev/oled_ssd130x.h ****             i2c_config.periph         = I2CHandle::Config::Peripheral::I2C_1;
  30:libDaisy//src/dev/oled_ssd130x.h ****             i2c_config.speed          = I2CHandle::Config::Speed::I2C_1MHZ;
  31:libDaisy//src/dev/oled_ssd130x.h ****             i2c_config.mode           = I2CHandle::Config::Mode::I2C_MASTER;
  32:libDaisy//src/dev/oled_ssd130x.h ****             i2c_config.pin_config.scl = {DSY_GPIOB, 8};
  33:libDaisy//src/dev/oled_ssd130x.h ****             i2c_config.pin_config.sda = {DSY_GPIOB, 9};
  34:libDaisy//src/dev/oled_ssd130x.h ****             i2c_address               = 0x3C;
  35:libDaisy//src/dev/oled_ssd130x.h ****         }
  36:libDaisy//src/dev/oled_ssd130x.h ****     };
  37:libDaisy//src/dev/oled_ssd130x.h ****     void Init(const Config& config)
  38:libDaisy//src/dev/oled_ssd130x.h ****     {
  39:libDaisy//src/dev/oled_ssd130x.h ****         i2c_address_ = config.i2c_address;
  40:libDaisy//src/dev/oled_ssd130x.h ****         i2c_.Init(config.i2c_config);
  41:libDaisy//src/dev/oled_ssd130x.h ****     };
  42:libDaisy//src/dev/oled_ssd130x.h ****     void SendCommand(uint8_t cmd)
  43:libDaisy//src/dev/oled_ssd130x.h ****     {
  44:libDaisy//src/dev/oled_ssd130x.h ****         uint8_t buf[2] = {0X00, cmd};
  45:libDaisy//src/dev/oled_ssd130x.h ****         i2c_.TransmitBlocking(i2c_address_, buf, 2, 1000);
  46:libDaisy//src/dev/oled_ssd130x.h ****     };
  47:libDaisy//src/dev/oled_ssd130x.h **** 
  48:libDaisy//src/dev/oled_ssd130x.h ****     void SendData(uint8_t* buff, size_t size)
  49:libDaisy//src/dev/oled_ssd130x.h ****     {
  50:libDaisy//src/dev/oled_ssd130x.h ****         for(size_t i = 0; i < size; i++)
  51:libDaisy//src/dev/oled_ssd130x.h ****         {
ARM GAS  /var/folders/z2/7_lhr9dn53s9tj4s0rwtyswm0000gn/T//ccRFfwbB.s 			page 19


  52:libDaisy//src/dev/oled_ssd130x.h ****             uint8_t buf[2] = {0X40, buff[i]};
  53:libDaisy//src/dev/oled_ssd130x.h ****             i2c_.TransmitBlocking(i2c_address_, buf, 2, 1000);
  54:libDaisy//src/dev/oled_ssd130x.h ****         }
  55:libDaisy//src/dev/oled_ssd130x.h ****     };
  56:libDaisy//src/dev/oled_ssd130x.h **** 
  57:libDaisy//src/dev/oled_ssd130x.h ****   private:
  58:libDaisy//src/dev/oled_ssd130x.h ****     daisy::I2CHandle i2c_;
  59:libDaisy//src/dev/oled_ssd130x.h ****     uint8_t          i2c_address_;
  60:libDaisy//src/dev/oled_ssd130x.h **** };
  61:libDaisy//src/dev/oled_ssd130x.h **** 
  62:libDaisy//src/dev/oled_ssd130x.h **** /**
  63:libDaisy//src/dev/oled_ssd130x.h ****  * 4 Wire SPI Transport for SSD1306 / SSD1309 OLED display devices
  64:libDaisy//src/dev/oled_ssd130x.h ****  */
  65:libDaisy//src/dev/oled_ssd130x.h **** class SSD130x4WireSpiTransport
  66:libDaisy//src/dev/oled_ssd130x.h **** {
  67:libDaisy//src/dev/oled_ssd130x.h ****   public:
  68:libDaisy//src/dev/oled_ssd130x.h ****     struct Config
  69:libDaisy//src/dev/oled_ssd130x.h ****     {
  70:libDaisy//src/dev/oled_ssd130x.h ****         Config()
  71:libDaisy//src/dev/oled_ssd130x.h ****         {
  72:libDaisy//src/dev/oled_ssd130x.h ****             // Initialize using defaults
  73:libDaisy//src/dev/oled_ssd130x.h ****             Defaults();
  74:libDaisy//src/dev/oled_ssd130x.h ****         }
  75:libDaisy//src/dev/oled_ssd130x.h ****         SpiHandle::Config spi_config;
  76:libDaisy//src/dev/oled_ssd130x.h ****         struct
  77:libDaisy//src/dev/oled_ssd130x.h ****         {
  78:libDaisy//src/dev/oled_ssd130x.h ****             dsy_gpio_pin dc;    /**< & */
  79:libDaisy//src/dev/oled_ssd130x.h ****             dsy_gpio_pin reset; /**< & */
  80:libDaisy//src/dev/oled_ssd130x.h ****         } pin_config;
  81:libDaisy//src/dev/oled_ssd130x.h ****         void Defaults()
  82:libDaisy//src/dev/oled_ssd130x.h ****         {
  83:libDaisy//src/dev/oled_ssd130x.h ****             // SPI peripheral config
  84:libDaisy//src/dev/oled_ssd130x.h ****             spi_config.periph = SpiHandle::Config::Peripheral::SPI_1;
  85:libDaisy//src/dev/oled_ssd130x.h ****             spi_config.mode   = SpiHandle::Config::Mode::MASTER;
  86:libDaisy//src/dev/oled_ssd130x.h ****             spi_config.direction
  87:libDaisy//src/dev/oled_ssd130x.h ****                 = SpiHandle::Config::Direction::TWO_LINES_TX_ONLY;
  88:libDaisy//src/dev/oled_ssd130x.h ****             spi_config.datasize       = 8;
  89:libDaisy//src/dev/oled_ssd130x.h ****             spi_config.clock_polarity = SpiHandle::Config::ClockPolarity::LOW;
  90:libDaisy//src/dev/oled_ssd130x.h ****             spi_config.clock_phase    = SpiHandle::Config::ClockPhase::ONE_EDGE;
  91:libDaisy//src/dev/oled_ssd130x.h ****             spi_config.nss            = SpiHandle::Config::NSS::HARD_OUTPUT;
  92:libDaisy//src/dev/oled_ssd130x.h ****             spi_config.baud_prescaler = SpiHandle::Config::BaudPrescaler::PS_8;
  93:libDaisy//src/dev/oled_ssd130x.h ****             // SPI pin config
  94:libDaisy//src/dev/oled_ssd130x.h ****             spi_config.pin_config.sclk = {DSY_GPIOG, 11};
  95:libDaisy//src/dev/oled_ssd130x.h ****             spi_config.pin_config.miso = {DSY_GPIOX, 0};
  96:libDaisy//src/dev/oled_ssd130x.h ****             spi_config.pin_config.mosi = {DSY_GPIOB, 5};
  97:libDaisy//src/dev/oled_ssd130x.h ****             spi_config.pin_config.nss  = {DSY_GPIOG, 10};
  98:libDaisy//src/dev/oled_ssd130x.h ****             // SSD130x control pin config
  99:libDaisy//src/dev/oled_ssd130x.h ****             pin_config.dc    = {DSY_GPIOB, 4};
 100:libDaisy//src/dev/oled_ssd130x.h ****             pin_config.reset = {DSY_GPIOB, 15};
 101:libDaisy//src/dev/oled_ssd130x.h ****         }
 102:libDaisy//src/dev/oled_ssd130x.h ****     };
 103:libDaisy//src/dev/oled_ssd130x.h ****     void Init(const Config& config)
 104:libDaisy//src/dev/oled_ssd130x.h ****     {
 105:libDaisy//src/dev/oled_ssd130x.h ****         // Initialize both GPIO
 106:libDaisy//src/dev/oled_ssd130x.h ****         pin_dc_.mode = DSY_GPIO_MODE_OUTPUT_PP;
 107:libDaisy//src/dev/oled_ssd130x.h ****         pin_dc_.pin  = config.pin_config.dc;
 108:libDaisy//src/dev/oled_ssd130x.h ****         dsy_gpio_init(&pin_dc_);
ARM GAS  /var/folders/z2/7_lhr9dn53s9tj4s0rwtyswm0000gn/T//ccRFfwbB.s 			page 20


 109:libDaisy//src/dev/oled_ssd130x.h ****         pin_reset_.mode = DSY_GPIO_MODE_OUTPUT_PP;
 110:libDaisy//src/dev/oled_ssd130x.h ****         pin_reset_.pin  = config.pin_config.reset;
 111:libDaisy//src/dev/oled_ssd130x.h ****         dsy_gpio_init(&pin_reset_);
 112:libDaisy//src/dev/oled_ssd130x.h **** 
 113:libDaisy//src/dev/oled_ssd130x.h ****         // Initialize SPI
 114:libDaisy//src/dev/oled_ssd130x.h ****         spi_.Init(config.spi_config);
 115:libDaisy//src/dev/oled_ssd130x.h **** 
 116:libDaisy//src/dev/oled_ssd130x.h ****         // Reset and Configure OLED.
 117:libDaisy//src/dev/oled_ssd130x.h ****         dsy_gpio_write(&pin_reset_, 0);
 118:libDaisy//src/dev/oled_ssd130x.h ****         System::Delay(10);
 119:libDaisy//src/dev/oled_ssd130x.h ****         dsy_gpio_write(&pin_reset_, 1);
 120:libDaisy//src/dev/oled_ssd130x.h ****         System::Delay(10);
 121:libDaisy//src/dev/oled_ssd130x.h ****     };
 122:libDaisy//src/dev/oled_ssd130x.h ****     void SendCommand(uint8_t cmd)
 123:libDaisy//src/dev/oled_ssd130x.h ****     {
 124:libDaisy//src/dev/oled_ssd130x.h ****         dsy_gpio_write(&pin_dc_, 0);
 125:libDaisy//src/dev/oled_ssd130x.h ****         spi_.BlockingTransmit(&cmd, 1);
 126:libDaisy//src/dev/oled_ssd130x.h ****     };
 127:libDaisy//src/dev/oled_ssd130x.h **** 
 128:libDaisy//src/dev/oled_ssd130x.h ****     void SendData(uint8_t* buff, size_t size)
 129:libDaisy//src/dev/oled_ssd130x.h ****     {
 130:libDaisy//src/dev/oled_ssd130x.h ****         dsy_gpio_write(&pin_dc_, 1);
 131:libDaisy//src/dev/oled_ssd130x.h ****         spi_.BlockingTransmit(buff, size);
 132:libDaisy//src/dev/oled_ssd130x.h ****     };
 133:libDaisy//src/dev/oled_ssd130x.h **** 
 134:libDaisy//src/dev/oled_ssd130x.h ****   private:
 135:libDaisy//src/dev/oled_ssd130x.h ****     SpiHandle spi_;
 136:libDaisy//src/dev/oled_ssd130x.h ****     dsy_gpio  pin_reset_;
 137:libDaisy//src/dev/oled_ssd130x.h ****     dsy_gpio  pin_dc_;
 138:libDaisy//src/dev/oled_ssd130x.h **** };
 139:libDaisy//src/dev/oled_ssd130x.h **** 
 140:libDaisy//src/dev/oled_ssd130x.h **** /**
 141:libDaisy//src/dev/oled_ssd130x.h ****  * Soft SPI Transport for SSD1306 / SSD1309 OLED display devices
 142:libDaisy//src/dev/oled_ssd130x.h ****  */
 143:libDaisy//src/dev/oled_ssd130x.h **** class SSD130x4WireSoftSpiTransport
 144:libDaisy//src/dev/oled_ssd130x.h **** {
 145:libDaisy//src/dev/oled_ssd130x.h ****   public:
 146:libDaisy//src/dev/oled_ssd130x.h ****     struct Config
 147:libDaisy//src/dev/oled_ssd130x.h ****     {
 148:libDaisy//src/dev/oled_ssd130x.h ****         Config()
 149:libDaisy//src/dev/oled_ssd130x.h ****         {
 150:libDaisy//src/dev/oled_ssd130x.h ****             // Initialize using defaults
 151:libDaisy//src/dev/oled_ssd130x.h ****             Defaults();
 152:libDaisy//src/dev/oled_ssd130x.h ****         }
 153:libDaisy//src/dev/oled_ssd130x.h ****         struct
 154:libDaisy//src/dev/oled_ssd130x.h ****         {
 155:libDaisy//src/dev/oled_ssd130x.h ****             uint32_t     sclk_delay;
 156:libDaisy//src/dev/oled_ssd130x.h ****             dsy_gpio_pin sclk;
 157:libDaisy//src/dev/oled_ssd130x.h ****             dsy_gpio_pin mosi;
 158:libDaisy//src/dev/oled_ssd130x.h ****             dsy_gpio_pin dc;
 159:libDaisy//src/dev/oled_ssd130x.h ****             dsy_gpio_pin reset;
 160:libDaisy//src/dev/oled_ssd130x.h ****         } pin_config;
 161:libDaisy//src/dev/oled_ssd130x.h ****         void Defaults()
 162:libDaisy//src/dev/oled_ssd130x.h ****         {
 163:libDaisy//src/dev/oled_ssd130x.h ****             pin_config.sclk_delay = 0; // fast as possible?!
 164:libDaisy//src/dev/oled_ssd130x.h ****             // SPI peripheral config
 165:libDaisy//src/dev/oled_ssd130x.h ****             pin_config.sclk = {DSY_GPIOD, 3}; /**< D10 - SPI2 SCK  */
ARM GAS  /var/folders/z2/7_lhr9dn53s9tj4s0rwtyswm0000gn/T//ccRFfwbB.s 			page 21


 166:libDaisy//src/dev/oled_ssd130x.h ****             pin_config.mosi = {DSY_GPIOC, 3}; /**< D9  - SPI2 MOSI */
 167:libDaisy//src/dev/oled_ssd130x.h ****             // SSD130x control pin config
 168:libDaisy//src/dev/oled_ssd130x.h ****             pin_config.dc    = {DSY_GPIOC, 11}; //D2
 169:libDaisy//src/dev/oled_ssd130x.h ****             pin_config.reset = {DSY_GPIOC, 10}; //D3
 170:libDaisy//src/dev/oled_ssd130x.h ****         }
 171:libDaisy//src/dev/oled_ssd130x.h ****     };
 172:libDaisy//src/dev/oled_ssd130x.h ****     void Init(const Config& config)
 173:libDaisy//src/dev/oled_ssd130x.h ****     {
 174:libDaisy//src/dev/oled_ssd130x.h ****         // Initialize both GPIO
 175:libDaisy//src/dev/oled_ssd130x.h ****         pin_sclk_.mode = DSY_GPIO_MODE_OUTPUT_PP;
 176:libDaisy//src/dev/oled_ssd130x.h ****         pin_sclk_.pin  = config.pin_config.sclk;
 177:libDaisy//src/dev/oled_ssd130x.h ****         dsy_gpio_init(&pin_sclk_);
 178:libDaisy//src/dev/oled_ssd130x.h ****         dsy_gpio_write(&pin_sclk_, 1); //ClockPolarity::LOW
 179:libDaisy//src/dev/oled_ssd130x.h ****         clk_delay      = config.pin_config.sclk_delay;
 180:libDaisy//src/dev/oled_ssd130x.h ****         pin_mosi_.mode = DSY_GPIO_MODE_OUTPUT_PP;
 181:libDaisy//src/dev/oled_ssd130x.h ****         pin_mosi_.pin  = config.pin_config.mosi;
 182:libDaisy//src/dev/oled_ssd130x.h ****         dsy_gpio_init(&pin_mosi_);
 183:libDaisy//src/dev/oled_ssd130x.h ****         dsy_gpio_write(&pin_mosi_, 0);
 184:libDaisy//src/dev/oled_ssd130x.h **** 
 185:libDaisy//src/dev/oled_ssd130x.h ****         pin_dc_.mode = DSY_GPIO_MODE_OUTPUT_PP;
 186:libDaisy//src/dev/oled_ssd130x.h ****         pin_dc_.pin  = config.pin_config.dc;
 187:libDaisy//src/dev/oled_ssd130x.h ****         dsy_gpio_init(&pin_dc_);
 188:libDaisy//src/dev/oled_ssd130x.h ****         pin_reset_.mode = DSY_GPIO_MODE_OUTPUT_PP;
 189:libDaisy//src/dev/oled_ssd130x.h ****         pin_reset_.pin  = config.pin_config.reset;
 190:libDaisy//src/dev/oled_ssd130x.h ****         dsy_gpio_init(&pin_reset_);
 191:libDaisy//src/dev/oled_ssd130x.h **** 
 192:libDaisy//src/dev/oled_ssd130x.h ****         // Reset and Configure OLED.
 193:libDaisy//src/dev/oled_ssd130x.h ****         dsy_gpio_write(&pin_reset_, 0);
 194:libDaisy//src/dev/oled_ssd130x.h ****         System::Delay(10);
 195:libDaisy//src/dev/oled_ssd130x.h ****         dsy_gpio_write(&pin_reset_, 1);
 196:libDaisy//src/dev/oled_ssd130x.h ****         System::Delay(10);
 197:libDaisy//src/dev/oled_ssd130x.h ****     };
 198:libDaisy//src/dev/oled_ssd130x.h ****     void SendCommand(uint8_t cmd)
 199:libDaisy//src/dev/oled_ssd130x.h ****     {
 200:libDaisy//src/dev/oled_ssd130x.h ****         dsy_gpio_write(&pin_dc_, 0);
 201:libDaisy//src/dev/oled_ssd130x.h ****         SoftSpiTransmit(cmd);
 202:libDaisy//src/dev/oled_ssd130x.h ****     };
 203:libDaisy//src/dev/oled_ssd130x.h **** 
 204:libDaisy//src/dev/oled_ssd130x.h ****     void SendData(uint8_t* buff, size_t size)
 205:libDaisy//src/dev/oled_ssd130x.h ****     {
 206:libDaisy//src/dev/oled_ssd130x.h ****         dsy_gpio_write(&pin_dc_, 1);
 207:libDaisy//src/dev/oled_ssd130x.h ****         for(size_t i = 0; i < size; i++)
 208:libDaisy//src/dev/oled_ssd130x.h ****             SoftSpiTransmit(buff[i]);
 209:libDaisy//src/dev/oled_ssd130x.h ****     };
 210:libDaisy//src/dev/oled_ssd130x.h **** 
 211:libDaisy//src/dev/oled_ssd130x.h ****   private:
 212:libDaisy//src/dev/oled_ssd130x.h ****     void SoftSpiTransmit(uint8_t val)
 213:libDaisy//src/dev/oled_ssd130x.h ****     {
 214:libDaisy//src/dev/oled_ssd130x.h ****         // bit flip
 215:libDaisy//src/dev/oled_ssd130x.h ****         val = ((val & 0x01) << 7) | ((val & 0x02) << 5) | ((val & 0x04) << 3)
 216:libDaisy//src/dev/oled_ssd130x.h ****               | ((val & 0x08) << 1) | ((val & 0x10) >> 1) | ((val & 0x20) >> 3)
 217:libDaisy//src/dev/oled_ssd130x.h ****               | ((val & 0x40) >> 5) | ((val & 0x80) >> 7);
 218:libDaisy//src/dev/oled_ssd130x.h **** 
 219:libDaisy//src/dev/oled_ssd130x.h ****         for(uint8_t bit = 0u; bit < 8u; bit++)
 220:libDaisy//src/dev/oled_ssd130x.h ****         {
 221:libDaisy//src/dev/oled_ssd130x.h ****             dsy_gpio_write(&pin_mosi_, ((val & (1 << bit)) ? 1 : 0));
 222:libDaisy//src/dev/oled_ssd130x.h **** 
ARM GAS  /var/folders/z2/7_lhr9dn53s9tj4s0rwtyswm0000gn/T//ccRFfwbB.s 			page 22


 223:libDaisy//src/dev/oled_ssd130x.h ****             System::DelayTicks(clk_delay);
 224:libDaisy//src/dev/oled_ssd130x.h **** 
 225:libDaisy//src/dev/oled_ssd130x.h ****             dsy_gpio_toggle(&pin_sclk_);
 226:libDaisy//src/dev/oled_ssd130x.h **** 
 227:libDaisy//src/dev/oled_ssd130x.h ****             System::DelayTicks(clk_delay);
 228:libDaisy//src/dev/oled_ssd130x.h **** 
 229:libDaisy//src/dev/oled_ssd130x.h ****             dsy_gpio_toggle(&pin_sclk_);
 230:libDaisy//src/dev/oled_ssd130x.h ****         }
 231:libDaisy//src/dev/oled_ssd130x.h ****     }
 232:libDaisy//src/dev/oled_ssd130x.h **** 
 233:libDaisy//src/dev/oled_ssd130x.h ****     uint32_t clk_delay;
 234:libDaisy//src/dev/oled_ssd130x.h ****     dsy_gpio pin_sclk_;
 235:libDaisy//src/dev/oled_ssd130x.h ****     dsy_gpio pin_mosi_;
 236:libDaisy//src/dev/oled_ssd130x.h ****     dsy_gpio pin_reset_;
 237:libDaisy//src/dev/oled_ssd130x.h ****     dsy_gpio pin_dc_;
 238:libDaisy//src/dev/oled_ssd130x.h **** };
 239:libDaisy//src/dev/oled_ssd130x.h **** 
 240:libDaisy//src/dev/oled_ssd130x.h **** 
 241:libDaisy//src/dev/oled_ssd130x.h **** /**
 242:libDaisy//src/dev/oled_ssd130x.h ****  * A driver implementation for the SSD1306/SSD1309
 243:libDaisy//src/dev/oled_ssd130x.h ****  */
 244:libDaisy//src/dev/oled_ssd130x.h **** template <size_t width, size_t height, typename Transport>
 245:libDaisy//src/dev/oled_ssd130x.h **** class SSD130xDriver
 246:libDaisy//src/dev/oled_ssd130x.h **** {
 247:libDaisy//src/dev/oled_ssd130x.h ****   public:
 248:libDaisy//src/dev/oled_ssd130x.h ****     struct Config
 249:libDaisy//src/dev/oled_ssd130x.h ****     {
 250:libDaisy//src/dev/oled_ssd130x.h ****         typename Transport::Config transport_config;
 251:libDaisy//src/dev/oled_ssd130x.h ****     };
 252:libDaisy//src/dev/oled_ssd130x.h **** 
 253:libDaisy//src/dev/oled_ssd130x.h ****     void Init(Config config)
 254:libDaisy//src/dev/oled_ssd130x.h ****     {
 255:libDaisy//src/dev/oled_ssd130x.h ****         transport_.Init(config.transport_config);
 256:libDaisy//src/dev/oled_ssd130x.h **** 
 257:libDaisy//src/dev/oled_ssd130x.h ****         // Init routine...
 258:libDaisy//src/dev/oled_ssd130x.h **** 
 259:libDaisy//src/dev/oled_ssd130x.h ****         // Display Off
 260:libDaisy//src/dev/oled_ssd130x.h ****         transport_.SendCommand(0xaE);
 261:libDaisy//src/dev/oled_ssd130x.h ****         // Dimension dependent commands...
 262:libDaisy//src/dev/oled_ssd130x.h ****         switch(height)
 263:libDaisy//src/dev/oled_ssd130x.h ****         {
 264:libDaisy//src/dev/oled_ssd130x.h ****             case 16:
 265:libDaisy//src/dev/oled_ssd130x.h ****                 // Display Clock Divide Ratio
 266:libDaisy//src/dev/oled_ssd130x.h ****                 transport_.SendCommand(0xD5);
 267:libDaisy//src/dev/oled_ssd130x.h ****                 transport_.SendCommand(0x60);
 268:libDaisy//src/dev/oled_ssd130x.h ****                 // Multiplex Ratio
 269:libDaisy//src/dev/oled_ssd130x.h ****                 transport_.SendCommand(0xA8);
 270:libDaisy//src/dev/oled_ssd130x.h ****                 transport_.SendCommand(0x0F);
 271:libDaisy//src/dev/oled_ssd130x.h ****                 // COM Pins
 272:libDaisy//src/dev/oled_ssd130x.h ****                 transport_.SendCommand(0xDA);
 273:libDaisy//src/dev/oled_ssd130x.h ****                 transport_.SendCommand(0x02);
 274:libDaisy//src/dev/oled_ssd130x.h ****                 break;
 275:libDaisy//src/dev/oled_ssd130x.h ****             case 32:
 276:libDaisy//src/dev/oled_ssd130x.h ****                 // Display Clock Divide Ratio
 277:libDaisy//src/dev/oled_ssd130x.h ****                 transport_.SendCommand(0xD5);
 278:libDaisy//src/dev/oled_ssd130x.h ****                 transport_.SendCommand(0x80);
 279:libDaisy//src/dev/oled_ssd130x.h ****                 // Multiplex Ratio
ARM GAS  /var/folders/z2/7_lhr9dn53s9tj4s0rwtyswm0000gn/T//ccRFfwbB.s 			page 23


 280:libDaisy//src/dev/oled_ssd130x.h ****                 transport_.SendCommand(0xA8);
 281:libDaisy//src/dev/oled_ssd130x.h ****                 transport_.SendCommand(0x1F);
 282:libDaisy//src/dev/oled_ssd130x.h ****                 // COM Pins
 283:libDaisy//src/dev/oled_ssd130x.h ****                 transport_.SendCommand(0xDA);
 284:libDaisy//src/dev/oled_ssd130x.h ****                 if(width == 64)
 285:libDaisy//src/dev/oled_ssd130x.h ****                 {
 286:libDaisy//src/dev/oled_ssd130x.h ****                     transport_.SendCommand(0x12);
 287:libDaisy//src/dev/oled_ssd130x.h ****                 }
 288:libDaisy//src/dev/oled_ssd130x.h ****                 else
 289:libDaisy//src/dev/oled_ssd130x.h ****                 {
 290:libDaisy//src/dev/oled_ssd130x.h ****                     transport_.SendCommand(0x02);
 291:libDaisy//src/dev/oled_ssd130x.h ****                 }
 292:libDaisy//src/dev/oled_ssd130x.h **** 
 293:libDaisy//src/dev/oled_ssd130x.h ****                 break;
 294:libDaisy//src/dev/oled_ssd130x.h ****             case 48:
 295:libDaisy//src/dev/oled_ssd130x.h ****                 // Display Clock Divide Ratio
 296:libDaisy//src/dev/oled_ssd130x.h ****                 transport_.SendCommand(0xD5);
 297:libDaisy//src/dev/oled_ssd130x.h ****                 transport_.SendCommand(0x80);
 298:libDaisy//src/dev/oled_ssd130x.h ****                 // Multiplex Ratio
 299:libDaisy//src/dev/oled_ssd130x.h ****                 transport_.SendCommand(0xA8);
 300:libDaisy//src/dev/oled_ssd130x.h ****                 transport_.SendCommand(0x2F);
 301:libDaisy//src/dev/oled_ssd130x.h ****                 // COM Pins
 302:libDaisy//src/dev/oled_ssd130x.h ****                 transport_.SendCommand(0xDA);
 303:libDaisy//src/dev/oled_ssd130x.h ****                 transport_.SendCommand(0x12);
 304:libDaisy//src/dev/oled_ssd130x.h ****                 break;
 305:libDaisy//src/dev/oled_ssd130x.h ****             default: // 128
 306:libDaisy//src/dev/oled_ssd130x.h ****                 // Display Clock Divide Ratio
 307:libDaisy//src/dev/oled_ssd130x.h ****                 transport_.SendCommand(0xD5);
 308:libDaisy//src/dev/oled_ssd130x.h ****                 transport_.SendCommand(0x80);
 309:libDaisy//src/dev/oled_ssd130x.h ****                 // Multiplex Ratio
 310:libDaisy//src/dev/oled_ssd130x.h ****                 transport_.SendCommand(0xA8);
 311:libDaisy//src/dev/oled_ssd130x.h ****                 transport_.SendCommand(0x3F);
 312:libDaisy//src/dev/oled_ssd130x.h ****                 // COM Pins
 313:libDaisy//src/dev/oled_ssd130x.h ****                 transport_.SendCommand(0xDA);
 314:libDaisy//src/dev/oled_ssd130x.h ****                 transport_.SendCommand(0x12);
 315:libDaisy//src/dev/oled_ssd130x.h ****                 break;
 316:libDaisy//src/dev/oled_ssd130x.h ****         }
 317:libDaisy//src/dev/oled_ssd130x.h **** 
 318:libDaisy//src/dev/oled_ssd130x.h ****         // Display Offset
 319:libDaisy//src/dev/oled_ssd130x.h ****         transport_.SendCommand(0xD3);
 320:libDaisy//src/dev/oled_ssd130x.h ****         transport_.SendCommand(0x00);
 321:libDaisy//src/dev/oled_ssd130x.h ****         // Start Line Address
 322:libDaisy//src/dev/oled_ssd130x.h ****         transport_.SendCommand(0x40);
 323:libDaisy//src/dev/oled_ssd130x.h ****         // Normal Display
 324:libDaisy//src/dev/oled_ssd130x.h ****         transport_.SendCommand(0xA6);
 325:libDaisy//src/dev/oled_ssd130x.h ****         // All On Resume
 326:libDaisy//src/dev/oled_ssd130x.h ****         transport_.SendCommand(0xA4);
 327:libDaisy//src/dev/oled_ssd130x.h ****         // Charge Pump
 328:libDaisy//src/dev/oled_ssd130x.h ****         transport_.SendCommand(0x8D);
 329:libDaisy//src/dev/oled_ssd130x.h ****         transport_.SendCommand(0x14);
 330:libDaisy//src/dev/oled_ssd130x.h ****         // Set Segment Remap
 331:libDaisy//src/dev/oled_ssd130x.h ****         transport_.SendCommand(0xA1);
 332:libDaisy//src/dev/oled_ssd130x.h ****         // COM Output Scan Direction
 333:libDaisy//src/dev/oled_ssd130x.h ****         transport_.SendCommand(0xC8);
 334:libDaisy//src/dev/oled_ssd130x.h ****         // Contrast Control
 335:libDaisy//src/dev/oled_ssd130x.h ****         transport_.SendCommand(0x81);
 336:libDaisy//src/dev/oled_ssd130x.h ****         transport_.SendCommand(0x8F);
ARM GAS  /var/folders/z2/7_lhr9dn53s9tj4s0rwtyswm0000gn/T//ccRFfwbB.s 			page 24


 337:libDaisy//src/dev/oled_ssd130x.h ****         // Pre Charge
 338:libDaisy//src/dev/oled_ssd130x.h ****         transport_.SendCommand(0xD9);
 339:libDaisy//src/dev/oled_ssd130x.h ****         transport_.SendCommand(0x25);
 340:libDaisy//src/dev/oled_ssd130x.h ****         // VCOM Detect
 341:libDaisy//src/dev/oled_ssd130x.h ****         transport_.SendCommand(0xDB);
 342:libDaisy//src/dev/oled_ssd130x.h ****         transport_.SendCommand(0x34);
 343:libDaisy//src/dev/oled_ssd130x.h **** 
 344:libDaisy//src/dev/oled_ssd130x.h **** 
 345:libDaisy//src/dev/oled_ssd130x.h ****         // Display On
 346:libDaisy//src/dev/oled_ssd130x.h ****         transport_.SendCommand(0xAF); //--turn on oled panel
 347:libDaisy//src/dev/oled_ssd130x.h ****     };
 348:libDaisy//src/dev/oled_ssd130x.h **** 
 349:libDaisy//src/dev/oled_ssd130x.h ****     size_t Width() const { return width; };
 350:libDaisy//src/dev/oled_ssd130x.h ****     size_t Height() const { return height; };
 351:libDaisy//src/dev/oled_ssd130x.h **** 
 352:libDaisy//src/dev/oled_ssd130x.h ****     void DrawPixel(uint_fast8_t x, uint_fast8_t y, bool on)
 353:libDaisy//src/dev/oled_ssd130x.h ****     {
 354:libDaisy//src/dev/oled_ssd130x.h ****         if(x >= width || y >= height)
 355:libDaisy//src/dev/oled_ssd130x.h ****             return;
 356:libDaisy//src/dev/oled_ssd130x.h ****         if(on)
 357:libDaisy//src/dev/oled_ssd130x.h ****             buffer_[x + (y / 8) * width] |= (1 << (y % 8));
 358:libDaisy//src/dev/oled_ssd130x.h ****         else
 359:libDaisy//src/dev/oled_ssd130x.h ****             buffer_[x + (y / 8) * width] &= ~(1 << (y % 8));
 360:libDaisy//src/dev/oled_ssd130x.h ****     }
 361:libDaisy//src/dev/oled_ssd130x.h **** 
 362:libDaisy//src/dev/oled_ssd130x.h ****     void Fill(bool on)
 206              		.loc 12 362 10 view .LVU33
 207              	.LBB419:
 363:libDaisy//src/dev/oled_ssd130x.h ****     {
 364:libDaisy//src/dev/oled_ssd130x.h ****         for(size_t i = 0; i < sizeof(buffer_); i++)
 208              		.loc 12 364 29 view .LVU34
 365:libDaisy//src/dev/oled_ssd130x.h ****         {
 366:libDaisy//src/dev/oled_ssd130x.h ****             buffer_[i] = on ? 0xff : 0x00;
 209              		.loc 12 366 24 is_stmt 0 view .LVU35
 210 0000 4942     		rsbs	r1, r1, #0
 211              	.LVL7:
 212              		.loc 12 366 24 view .LVU36
 213 0002 4FF48062 		mov	r2, #1024
 214 0006 1430     		adds	r0, r0, #20
 215              	.LVL8:
 216              		.loc 12 366 24 view .LVU37
 217 0008 C9B2     		uxtb	r1, r1
 218 000a FFF7FEBF 		b	memset
 219              	.LVL9:
 220              		.loc 12 366 24 view .LVU38
 221              	.LBE419:
 222              	.LBE418:
 223              		.cfi_endproc
 224              	.LFE5446:
 226 000e 00BF     		.section	.text._Z13AudioCallbackPKPKfPPfj,"ax",%progbits
 227              		.align	1
 228              		.p2align 2,,3
 229              		.global	_Z13AudioCallbackPKPKfPPfj
 230              		.syntax unified
 231              		.thumb
 232              		.thumb_func
 234              	_Z13AudioCallbackPKPKfPPfj:
ARM GAS  /var/folders/z2/7_lhr9dn53s9tj4s0rwtyswm0000gn/T//ccRFfwbB.s 			page 25


 235              	.LVL10:
 236              	.LFB4851:
 237              		.file 13 "daisyfs.cpp"
   1:daisyfs.cpp   **** #include "daisy_patch.h"
   2:daisyfs.cpp   **** #include "daisysp.h"
   3:daisyfs.cpp   **** 
   4:daisyfs.cpp   **** using namespace daisy;
   5:daisyfs.cpp   **** using namespace daisysp;
   6:daisyfs.cpp   **** 
   7:daisyfs.cpp   **** DaisyPatch hw;
   8:daisyfs.cpp   **** 
   9:daisyfs.cpp   **** void AudioCallback(AudioHandle::InputBuffer in, AudioHandle::OutputBuffer out, size_t size)
  10:daisyfs.cpp   **** {
 238              		.loc 13 10 1 is_stmt 1 view -0
 239              		.cfi_startproc
 240              		@ args = 0, pretend = 0, frame = 0
 241              		@ frame_needed = 0, uses_anonymous_args = 0
  11:daisyfs.cpp   **** 	hw.ProcessAllControls();
 242              		.loc 13 11 2 view .LVU40
 243              	.LBB420:
 244              	.LBI420:
  42:libDaisy//src/daisy_patch.h **** 
  43:libDaisy//src/daisy_patch.h ****     /** Initializes the daisy seed, and patch hardware.*/
  44:libDaisy//src/daisy_patch.h ****     void Init(bool boost = false);
  45:libDaisy//src/daisy_patch.h **** 
  46:libDaisy//src/daisy_patch.h ****     /** 
  47:libDaisy//src/daisy_patch.h ****     Wait some ms before going on.
  48:libDaisy//src/daisy_patch.h ****     \param del Delay time in ms.
  49:libDaisy//src/daisy_patch.h ****     */
  50:libDaisy//src/daisy_patch.h ****     void DelayMs(size_t del);
  51:libDaisy//src/daisy_patch.h **** 
  52:libDaisy//src/daisy_patch.h **** 
  53:libDaisy//src/daisy_patch.h ****     /** Starts the callback
  54:libDaisy//src/daisy_patch.h ****     \param cb multichannel callback function
  55:libDaisy//src/daisy_patch.h ****     */
  56:libDaisy//src/daisy_patch.h ****     void StartAudio(AudioHandle::AudioCallback cb);
  57:libDaisy//src/daisy_patch.h **** 
  58:libDaisy//src/daisy_patch.h ****     /**
  59:libDaisy//src/daisy_patch.h ****        Switch callback functions
  60:libDaisy//src/daisy_patch.h ****        \param cb New multichannel callback function.
  61:libDaisy//src/daisy_patch.h ****     */
  62:libDaisy//src/daisy_patch.h ****     void ChangeAudioCallback(AudioHandle::AudioCallback cb);
  63:libDaisy//src/daisy_patch.h **** 
  64:libDaisy//src/daisy_patch.h ****     /** Stops the audio */
  65:libDaisy//src/daisy_patch.h ****     void StopAudio();
  66:libDaisy//src/daisy_patch.h **** 
  67:libDaisy//src/daisy_patch.h ****     /** Set the sample rate for the audio */
  68:libDaisy//src/daisy_patch.h ****     void SetAudioSampleRate(SaiHandle::Config::SampleRate samplerate);
  69:libDaisy//src/daisy_patch.h **** 
  70:libDaisy//src/daisy_patch.h ****     /** Get sample rate */
  71:libDaisy//src/daisy_patch.h ****     float AudioSampleRate();
  72:libDaisy//src/daisy_patch.h **** 
  73:libDaisy//src/daisy_patch.h ****     /** Audio Block size defaults to 48.
  74:libDaisy//src/daisy_patch.h ****     Change it using this function before StartingAudio
  75:libDaisy//src/daisy_patch.h ****     \param size Audio block size.
  76:libDaisy//src/daisy_patch.h ****     */
  77:libDaisy//src/daisy_patch.h ****     void SetAudioBlockSize(size_t size);
ARM GAS  /var/folders/z2/7_lhr9dn53s9tj4s0rwtyswm0000gn/T//ccRFfwbB.s 			page 26


  78:libDaisy//src/daisy_patch.h **** 
  79:libDaisy//src/daisy_patch.h ****     /** Returns the number of samples per channel in a block of audio. */
  80:libDaisy//src/daisy_patch.h ****     size_t AudioBlockSize();
  81:libDaisy//src/daisy_patch.h **** 
  82:libDaisy//src/daisy_patch.h ****     /** Returns the rate in Hz that the Audio callback is called */
  83:libDaisy//src/daisy_patch.h ****     float AudioCallbackRate();
  84:libDaisy//src/daisy_patch.h **** 
  85:libDaisy//src/daisy_patch.h ****     /** Start analog to digital conversion.*/
  86:libDaisy//src/daisy_patch.h ****     void StartAdc();
  87:libDaisy//src/daisy_patch.h **** 
  88:libDaisy//src/daisy_patch.h ****     /** Stops Transfering data from the ADC */
  89:libDaisy//src/daisy_patch.h ****     void StopAdc();
  90:libDaisy//src/daisy_patch.h **** 
  91:libDaisy//src/daisy_patch.h **** 
  92:libDaisy//src/daisy_patch.h ****     /** Call at same rate as reading controls for good reads. */
  93:libDaisy//src/daisy_patch.h ****     void ProcessAnalogControls();
  94:libDaisy//src/daisy_patch.h **** 
  95:libDaisy//src/daisy_patch.h ****     /** Process Analog and Digital Controls */
  96:libDaisy//src/daisy_patch.h ****     inline void ProcessAllControls()
 245              		.loc 1 96 17 view .LVU41
 246              	.LBB421:
  97:libDaisy//src/daisy_patch.h ****     {
  98:libDaisy//src/daisy_patch.h ****         ProcessAnalogControls();
 247              		.loc 1 98 9 view .LVU42
 248              	.LBE421:
 249              	.LBE420:
  10:daisyfs.cpp   **** 	hw.ProcessAllControls();
 250              		.loc 13 10 1 is_stmt 0 view .LVU43
 251 0000 2DE9F041 		push	{r4, r5, r6, r7, r8, lr}
 252              		.cfi_def_cfa_offset 24
 253              		.cfi_offset 4, -24
 254              		.cfi_offset 5, -20
 255              		.cfi_offset 6, -16
 256              		.cfi_offset 7, -12
 257              		.cfi_offset 8, -8
 258              		.cfi_offset 14, -4
  10:daisyfs.cpp   **** 	hw.ProcessAllControls();
 259              		.loc 13 10 1 view .LVU44
 260 0004 1546     		mov	r5, r2
 261 0006 0446     		mov	r4, r0
 262              	.LBB424:
 263              	.LBB422:
 264              		.loc 1 98 30 view .LVU45
 265 0008 1348     		ldr	r0, .L15
 266              	.LVL11:
 267              		.loc 1 98 30 view .LVU46
 268              	.LBE422:
 269              	.LBE424:
  10:daisyfs.cpp   **** 	hw.ProcessAllControls();
 270              		.loc 13 10 1 view .LVU47
 271 000a 8846     		mov	r8, r1
 272              	.LBB425:
 273              	.LBB423:
 274              		.loc 1 98 30 view .LVU48
 275 000c FFF7FEFF 		bl	_ZN5daisy10DaisyPatch21ProcessAnalogControlsEv
 276              	.LVL12:
  99:libDaisy//src/daisy_patch.h ****         ProcessDigitalControls();
ARM GAS  /var/folders/z2/7_lhr9dn53s9tj4s0rwtyswm0000gn/T//ccRFfwbB.s 			page 27


 277              		.loc 1 99 9 is_stmt 1 view .LVU49
 278              		.loc 1 99 31 is_stmt 0 view .LVU50
 279 0010 1148     		ldr	r0, .L15
 280 0012 FFF7FEFF 		bl	_ZN5daisy10DaisyPatch22ProcessDigitalControlsEv
 281              	.LVL13:
 282              		.loc 1 99 31 view .LVU51
 283              	.LBE423:
 284              	.LBE425:
  12:daisyfs.cpp   **** 	for (size_t i = 0; i < size; i++)
 285              		.loc 13 12 2 is_stmt 1 view .LVU52
 286              	.LBB426:
 287              		.loc 13 12 23 view .LVU53
 288 0016 EDB1     		cbz	r5, .L7
 289 0018 2368     		ldr	r3, [r4]
 290 001a 6768     		ldr	r7, [r4, #4]
 291 001c 03EB850E 		add	lr, r3, r5, lsl #2
 292 0020 D8F800C0 		ldr	ip, [r8]
 293 0024 D8F80460 		ldr	r6, [r8, #4]
 294 0028 D4E90254 		ldrd	r5, r4, [r4, #8]
 295              	.LVL14:
 296              		.loc 13 12 23 is_stmt 0 view .LVU54
 297 002c D8E90202 		ldrd	r0, r2, [r8, #8]
 298              	.LVL15:
 299              	.L9:
  13:daisyfs.cpp   **** 	{
  14:daisyfs.cpp   **** 		out[0][i] = in[0][i];
 300              		.loc 13 14 3 is_stmt 1 discriminator 2 view .LVU55
 301              		.loc 13 14 22 is_stmt 0 discriminator 2 view .LVU56
 302 0030 53F8041B 		ldr	r1, [r3], #4	@ float
 303              		.loc 13 14 13 discriminator 2 view .LVU57
 304 0034 4CF8041B 		str	r1, [ip], #4	@ float
  15:daisyfs.cpp   **** 		out[1][i] = in[1][i];
 305              		.loc 13 15 3 is_stmt 1 discriminator 2 view .LVU58
  12:daisyfs.cpp   **** 	for (size_t i = 0; i < size; i++)
 306              		.loc 13 12 23 is_stmt 0 discriminator 2 view .LVU59
 307 0038 7345     		cmp	r3, lr
 308              		.loc 13 15 22 discriminator 2 view .LVU60
 309 003a 57F8041B 		ldr	r1, [r7], #4	@ float
 310              		.loc 13 15 13 discriminator 2 view .LVU61
 311 003e 46F8041B 		str	r1, [r6], #4	@ float
  16:daisyfs.cpp   **** 		out[2][i] = in[2][i];
 312              		.loc 13 16 3 is_stmt 1 discriminator 2 view .LVU62
 313              		.loc 13 16 22 is_stmt 0 discriminator 2 view .LVU63
 314 0042 55F8041B 		ldr	r1, [r5], #4	@ float
 315              		.loc 13 16 13 discriminator 2 view .LVU64
 316 0046 40F8041B 		str	r1, [r0], #4	@ float
  17:daisyfs.cpp   **** 		out[3][i] = in[3][i];
 317              		.loc 13 17 3 is_stmt 1 discriminator 2 view .LVU65
 318              		.loc 13 17 22 is_stmt 0 discriminator 2 view .LVU66
 319 004a 54F8041B 		ldr	r1, [r4], #4	@ float
 320              		.loc 13 17 13 discriminator 2 view .LVU67
 321 004e 42F8041B 		str	r1, [r2], #4	@ float
  12:daisyfs.cpp   **** 	{
 322              		.loc 13 12 2 is_stmt 1 discriminator 2 view .LVU68
  12:daisyfs.cpp   **** 	{
 323              		.loc 13 12 23 discriminator 2 view .LVU69
 324 0052 EDD1     		bne	.L9
ARM GAS  /var/folders/z2/7_lhr9dn53s9tj4s0rwtyswm0000gn/T//ccRFfwbB.s 			page 28


 325              	.L7:
 326              	.LBE426:
  18:daisyfs.cpp   **** 	}
  19:daisyfs.cpp   **** }
 327              		.loc 13 19 1 is_stmt 0 view .LVU70
 328 0054 BDE8F081 		pop	{r4, r5, r6, r7, r8, pc}
 329              	.LVL16:
 330              	.L16:
 331              		.loc 13 19 1 view .LVU71
 332              		.align	2
 333              	.L15:
 334 0058 00000000 		.word	hw
 335              		.cfi_endproc
 336              	.LFE4851:
 338              		.section	.text._ZN5daisy11OledDisplayINS_13SSD130xDriverILj128ELj64ENS_24SSD130x4WireSpiTransportE
 339              		.align	1
 340              		.p2align 2,,3
 341              		.weak	_ZN5daisy11OledDisplayINS_13SSD130xDriverILj128ELj64ENS_24SSD130x4WireSpiTransportEEEED0Ev
 342              		.syntax unified
 343              		.thumb
 344              		.thumb_func
 346              	_ZN5daisy11OledDisplayINS_13SSD130xDriverILj128ELj64ENS_24SSD130x4WireSpiTransportEEEED0Ev:
 347              	.LVL17:
 348              	.LFB4883:
  18:libDaisy//src/hid/disp/oled_display.h **** 
 349              		.loc 2 18 13 is_stmt 1 view -0
 350              		.cfi_startproc
 351              		@ args = 0, pretend = 0, frame = 0
 352              		@ frame_needed = 0, uses_anonymous_args = 0
  18:libDaisy//src/hid/disp/oled_display.h **** 
 353              		.loc 2 18 13 is_stmt 0 view .LVU73
 354 0000 10B5     		push	{r4, lr}
 355              		.cfi_def_cfa_offset 8
 356              		.cfi_offset 4, -8
 357              		.cfi_offset 14, -4
  18:libDaisy//src/hid/disp/oled_display.h **** 
 358              		.loc 2 18 13 view .LVU74
 359 0002 0446     		mov	r4, r0
 360              	.LVL18:
 361              	.LBB427:
 362              	.LBI427:
  18:libDaisy//src/hid/disp/oled_display.h **** 
 363              		.loc 2 18 13 is_stmt 1 view .LVU75
 364              	.LBB428:
 365              	.LBI428:
 366              		.loc 3 219 13 view .LVU76
 367              	.LBB429:
 368              	.LBI429:
  23:libDaisy//src/hid/disp/display.h **** 
 369              		.loc 3 23 13 view .LVU77
  23:libDaisy//src/hid/disp/display.h **** 
 370              		.loc 3 23 13 is_stmt 0 view .LVU78
 371              	.LBE429:
 372              	.LBE428:
 373              	.LBE427:
  18:libDaisy//src/hid/disp/oled_display.h **** 
 374              		.loc 2 18 29 view .LVU79
ARM GAS  /var/folders/z2/7_lhr9dn53s9tj4s0rwtyswm0000gn/T//ccRFfwbB.s 			page 29


 375 0004 40F21441 		movw	r1, #1044
 376 0008 FFF7FEFF 		bl	_ZdlPvj
 377              	.LVL19:
  18:libDaisy//src/hid/disp/oled_display.h **** 
 378              		.loc 2 18 29 view .LVU80
 379 000c 2046     		mov	r0, r4
 380 000e 10BD     		pop	{r4, pc}
  18:libDaisy//src/hid/disp/oled_display.h **** 
 381              		.loc 2 18 29 view .LVU81
 382              		.cfi_endproc
 383              	.LFE4883:
 385              		.section	.text._ZN5daisy11OledDisplayINS_13SSD130xDriverILj128ELj64ENS_24SSD130x4WireSpiTransportE
 386              		.align	1
 387              		.p2align 2,,3
 388              		.weak	_ZN5daisy11OledDisplayINS_13SSD130xDriverILj128ELj64ENS_24SSD130x4WireSpiTransportEEEE6Updat
 389              		.syntax unified
 390              		.thumb
 391              		.thumb_func
 393              	_ZN5daisy11OledDisplayINS_13SSD130xDriverILj128ELj64ENS_24SSD130x4WireSpiTransportEEEE6UpdateEv:
 394              	.LVL20:
 395              	.LFB5454:
  35:libDaisy//src/hid/disp/oled_display.h **** 
  36:libDaisy//src/hid/disp/oled_display.h ****     /**
  37:libDaisy//src/hid/disp/oled_display.h ****     Sets the pixel at the specified coordinate to be on/off.
  38:libDaisy//src/hid/disp/oled_display.h ****     \param x   x Coordinate
  39:libDaisy//src/hid/disp/oled_display.h ****     \param y   y coordinate
  40:libDaisy//src/hid/disp/oled_display.h ****     \param on  on or off
  41:libDaisy//src/hid/disp/oled_display.h ****     */
  42:libDaisy//src/hid/disp/oled_display.h ****     void DrawPixel(uint_fast8_t x, uint_fast8_t y, bool on) override
  43:libDaisy//src/hid/disp/oled_display.h ****     {
  44:libDaisy//src/hid/disp/oled_display.h ****         driver_.DrawPixel(x, y, on);
  45:libDaisy//src/hid/disp/oled_display.h ****     }
  46:libDaisy//src/hid/disp/oled_display.h **** 
  47:libDaisy//src/hid/disp/oled_display.h ****     /** 
  48:libDaisy//src/hid/disp/oled_display.h ****     Writes the current display buffer to the OLED device using SPI or I2C depending on 
  49:libDaisy//src/hid/disp/oled_display.h ****     how the object was initialized.
  50:libDaisy//src/hid/disp/oled_display.h ****     */
  51:libDaisy//src/hid/disp/oled_display.h ****     void Update() override { driver_.Update(); }
 396              		.loc 2 51 10 is_stmt 1 view -0
 397              		.cfi_startproc
 398              		@ args = 0, pretend = 0, frame = 8
 399              		@ frame_needed = 0, uses_anonymous_args = 0
 400              	.LBB440:
 401              	.LBI440:
 367:libDaisy//src/dev/oled_ssd130x.h ****         }
 368:libDaisy//src/dev/oled_ssd130x.h ****     };
 369:libDaisy//src/dev/oled_ssd130x.h **** 
 370:libDaisy//src/dev/oled_ssd130x.h ****     /**
 371:libDaisy//src/dev/oled_ssd130x.h ****      * Update the display 
 372:libDaisy//src/dev/oled_ssd130x.h ****     */
 373:libDaisy//src/dev/oled_ssd130x.h ****     void Update()
 402              		.loc 12 373 10 view .LVU83
 403              	.LBB441:
 374:libDaisy//src/dev/oled_ssd130x.h ****     {
 375:libDaisy//src/dev/oled_ssd130x.h ****         uint8_t i;
 376:libDaisy//src/dev/oled_ssd130x.h ****         uint8_t high_column_addr;
 377:libDaisy//src/dev/oled_ssd130x.h ****         switch(height)
ARM GAS  /var/folders/z2/7_lhr9dn53s9tj4s0rwtyswm0000gn/T//ccRFfwbB.s 			page 30


 378:libDaisy//src/dev/oled_ssd130x.h ****         {
 379:libDaisy//src/dev/oled_ssd130x.h ****             case 32: high_column_addr = 0x12; break;
 380:libDaisy//src/dev/oled_ssd130x.h **** 
 381:libDaisy//src/dev/oled_ssd130x.h ****             default: high_column_addr = 0x10; break;
 382:libDaisy//src/dev/oled_ssd130x.h ****         }
 383:libDaisy//src/dev/oled_ssd130x.h ****         for(i = 0; i < (height / 8); i++)
 404              		.loc 12 383 22 view .LVU84
 405              	.LBE441:
 406              	.LBE440:
 407              		.loc 2 51 10 is_stmt 0 view .LVU85
 408 0000 2DE9F041 		push	{r4, r5, r6, r7, r8, lr}
 409              		.cfi_def_cfa_offset 24
 410              		.cfi_offset 4, -24
 411              		.cfi_offset 5, -20
 412              		.cfi_offset 6, -16
 413              		.cfi_offset 7, -12
 414              		.cfi_offset 8, -8
 415              		.cfi_offset 14, -4
 416              	.LBB463:
 417              	.LBB461:
 418              	.LBB442:
 419              	.LBB443:
 125:libDaisy//src/dev/oled_ssd130x.h ****     };
 420              		.loc 12 125 30 view .LVU86
 421 0004 B024     		movs	r4, #176
 422              	.LBE443:
 423              	.LBE442:
 424              	.LBE461:
 425              	.LBE463:
 426              		.loc 2 51 10 view .LVU87
 427 0006 82B0     		sub	sp, sp, #8
 428              		.cfi_def_cfa_offset 32
 429              	.LBB464:
 430              	.LBB462:
 431              	.LBB448:
 432              	.LBB444:
 124:libDaisy//src/dev/oled_ssd130x.h ****         spi_.BlockingTransmit(&cmd, 1);
 433              		.loc 12 124 24 view .LVU88
 434 0008 00F10806 		add	r6, r0, #8
 435 000c 00F11005 		add	r5, r0, #16
 436 0010 00F11408 		add	r8, r0, #20
 437              	.LVL21:
 438              	.L20:
 124:libDaisy//src/dev/oled_ssd130x.h ****         spi_.BlockingTransmit(&cmd, 1);
 439              		.loc 12 124 24 view .LVU89
 440 0014 0027     		movs	r7, #0
 124:libDaisy//src/dev/oled_ssd130x.h ****         spi_.BlockingTransmit(&cmd, 1);
 441              		.loc 12 124 23 view .LVU90
 442 0016 2846     		mov	r0, r5
 443 0018 8DF80740 		strb	r4, [sp, #7]
 444              	.LVL22:
 124:libDaisy//src/dev/oled_ssd130x.h ****         spi_.BlockingTransmit(&cmd, 1);
 445              		.loc 12 124 23 view .LVU91
 446              	.LBE444:
 447              	.LBI442:
 122:libDaisy//src/dev/oled_ssd130x.h ****     {
 448              		.loc 12 122 10 is_stmt 1 view .LVU92
ARM GAS  /var/folders/z2/7_lhr9dn53s9tj4s0rwtyswm0000gn/T//ccRFfwbB.s 			page 31


 449              	.LBB445:
 124:libDaisy//src/dev/oled_ssd130x.h ****         spi_.BlockingTransmit(&cmd, 1);
 450              		.loc 12 124 9 view .LVU93
 451              	.LBE445:
 452              	.LBE448:
 453              		.loc 12 383 22 is_stmt 0 view .LVU94
 454 001c 0134     		adds	r4, r4, #1
 455              	.LVL23:
 456              	.LBB449:
 457              	.LBB446:
 124:libDaisy//src/dev/oled_ssd130x.h ****         spi_.BlockingTransmit(&cmd, 1);
 458              		.loc 12 124 23 view .LVU95
 459 001e 3946     		mov	r1, r7
 460 0020 FFF7FEFF 		bl	dsy_gpio_write
 461              	.LVL24:
 125:libDaisy//src/dev/oled_ssd130x.h ****     };
 462              		.loc 12 125 9 is_stmt 1 view .LVU96
 125:libDaisy//src/dev/oled_ssd130x.h ****     };
 463              		.loc 12 125 30 is_stmt 0 view .LVU97
 464 0024 6423     		movs	r3, #100
 465 0026 0122     		movs	r2, #1
 466 0028 0DF10701 		add	r1, sp, #7
 467 002c 3046     		mov	r0, r6
 468              	.LBE446:
 469              	.LBE449:
 470              		.loc 12 383 22 view .LVU98
 471 002e E4B2     		uxtb	r4, r4
 472              	.LBB450:
 473              	.LBB447:
 125:libDaisy//src/dev/oled_ssd130x.h ****     };
 474              		.loc 12 125 30 view .LVU99
 475 0030 FFF7FEFF 		bl	_ZN5daisy9SpiHandle16BlockingTransmitEPhjm
 476              	.LVL25:
 125:libDaisy//src/dev/oled_ssd130x.h ****     };
 477              		.loc 12 125 30 view .LVU100
 478              	.LBE447:
 479              	.LBE450:
 480              	.LBB451:
 481              	.LBB452:
 124:libDaisy//src/dev/oled_ssd130x.h ****         spi_.BlockingTransmit(&cmd, 1);
 482              		.loc 12 124 23 view .LVU101
 483 0034 3946     		mov	r1, r7
 484 0036 2846     		mov	r0, r5
 485 0038 8DF80770 		strb	r7, [sp, #7]
 486              	.LVL26:
 124:libDaisy//src/dev/oled_ssd130x.h ****         spi_.BlockingTransmit(&cmd, 1);
 487              		.loc 12 124 23 view .LVU102
 488              	.LBE452:
 489              	.LBI451:
 122:libDaisy//src/dev/oled_ssd130x.h ****     {
 490              		.loc 12 122 10 is_stmt 1 view .LVU103
 491              	.LBB453:
 124:libDaisy//src/dev/oled_ssd130x.h ****         spi_.BlockingTransmit(&cmd, 1);
 492              		.loc 12 124 9 view .LVU104
 124:libDaisy//src/dev/oled_ssd130x.h ****         spi_.BlockingTransmit(&cmd, 1);
 493              		.loc 12 124 23 is_stmt 0 view .LVU105
 494 003c FFF7FEFF 		bl	dsy_gpio_write
ARM GAS  /var/folders/z2/7_lhr9dn53s9tj4s0rwtyswm0000gn/T//ccRFfwbB.s 			page 32


 495              	.LVL27:
 125:libDaisy//src/dev/oled_ssd130x.h ****     };
 496              		.loc 12 125 9 is_stmt 1 view .LVU106
 125:libDaisy//src/dev/oled_ssd130x.h ****     };
 497              		.loc 12 125 30 is_stmt 0 view .LVU107
 498 0040 0122     		movs	r2, #1
 499 0042 6423     		movs	r3, #100
 500 0044 0DF10701 		add	r1, sp, #7
 501 0048 3046     		mov	r0, r6
 502 004a FFF7FEFF 		bl	_ZN5daisy9SpiHandle16BlockingTransmitEPhjm
 503              	.LVL28:
 125:libDaisy//src/dev/oled_ssd130x.h ****     };
 504              		.loc 12 125 30 view .LVU108
 505 004e 1023     		movs	r3, #16
 506              	.LBE453:
 507              	.LBE451:
 508              	.LBB454:
 509              	.LBB455:
 124:libDaisy//src/dev/oled_ssd130x.h ****         spi_.BlockingTransmit(&cmd, 1);
 510              		.loc 12 124 23 view .LVU109
 511 0050 3946     		mov	r1, r7
 512 0052 2846     		mov	r0, r5
 513 0054 8DF80730 		strb	r3, [sp, #7]
 514              	.LVL29:
 124:libDaisy//src/dev/oled_ssd130x.h ****         spi_.BlockingTransmit(&cmd, 1);
 515              		.loc 12 124 23 view .LVU110
 516              	.LBE455:
 517              	.LBI454:
 122:libDaisy//src/dev/oled_ssd130x.h ****     {
 518              		.loc 12 122 10 is_stmt 1 view .LVU111
 519              	.LBB456:
 124:libDaisy//src/dev/oled_ssd130x.h ****         spi_.BlockingTransmit(&cmd, 1);
 520              		.loc 12 124 9 view .LVU112
 124:libDaisy//src/dev/oled_ssd130x.h ****         spi_.BlockingTransmit(&cmd, 1);
 521              		.loc 12 124 23 is_stmt 0 view .LVU113
 522 0058 FFF7FEFF 		bl	dsy_gpio_write
 523              	.LVL30:
 125:libDaisy//src/dev/oled_ssd130x.h ****     };
 524              		.loc 12 125 9 is_stmt 1 view .LVU114
 125:libDaisy//src/dev/oled_ssd130x.h ****     };
 525              		.loc 12 125 30 is_stmt 0 view .LVU115
 526 005c 6423     		movs	r3, #100
 527 005e 0122     		movs	r2, #1
 528 0060 0DF10701 		add	r1, sp, #7
 529 0064 3046     		mov	r0, r6
 530 0066 FFF7FEFF 		bl	_ZN5daisy9SpiHandle16BlockingTransmitEPhjm
 531              	.LVL31:
 125:libDaisy//src/dev/oled_ssd130x.h ****     };
 532              		.loc 12 125 30 view .LVU116
 533              	.LBE456:
 534              	.LBE454:
 535              	.LBB457:
 536              	.LBI457:
 128:libDaisy//src/dev/oled_ssd130x.h ****     {
 537              		.loc 12 128 10 is_stmt 1 view .LVU117
 538              	.LBB458:
 130:libDaisy//src/dev/oled_ssd130x.h ****         spi_.BlockingTransmit(buff, size);
ARM GAS  /var/folders/z2/7_lhr9dn53s9tj4s0rwtyswm0000gn/T//ccRFfwbB.s 			page 33


 539              		.loc 12 130 9 view .LVU118
 130:libDaisy//src/dev/oled_ssd130x.h ****         spi_.BlockingTransmit(buff, size);
 540              		.loc 12 130 23 is_stmt 0 view .LVU119
 541 006a 0121     		movs	r1, #1
 542 006c 2846     		mov	r0, r5
 543 006e FFF7FEFF 		bl	dsy_gpio_write
 544              	.LVL32:
 131:libDaisy//src/dev/oled_ssd130x.h ****     };
 545              		.loc 12 131 9 is_stmt 1 view .LVU120
 131:libDaisy//src/dev/oled_ssd130x.h ****     };
 546              		.loc 12 131 30 is_stmt 0 view .LVU121
 547 0072 8022     		movs	r2, #128
 548 0074 4146     		mov	r1, r8
 549 0076 6423     		movs	r3, #100
 550 0078 3046     		mov	r0, r6
 551              	.LBE458:
 552              	.LBE457:
 553              		.loc 12 383 22 view .LVU122
 554 007a 9044     		add	r8, r8, r2
 555              	.LVL33:
 556              	.LBB460:
 557              	.LBB459:
 131:libDaisy//src/dev/oled_ssd130x.h ****     };
 558              		.loc 12 131 30 view .LVU123
 559 007c FFF7FEFF 		bl	_ZN5daisy9SpiHandle16BlockingTransmitEPhjm
 560              	.LVL34:
 131:libDaisy//src/dev/oled_ssd130x.h ****     };
 561              		.loc 12 131 30 view .LVU124
 562              	.LBE459:
 563              	.LBE460:
 564              		.loc 12 383 9 is_stmt 1 view .LVU125
 565              		.loc 12 383 22 view .LVU126
 566 0080 B82C     		cmp	r4, #184
 567 0082 C7D1     		bne	.L20
 568              	.LBE462:
 569              	.LBE464:
 570              		.loc 2 51 48 is_stmt 0 view .LVU127
 571 0084 02B0     		add	sp, sp, #8
 572              		.cfi_def_cfa_offset 24
 573              		@ sp needed
 574 0086 BDE8F081 		pop	{r4, r5, r6, r7, r8, pc}
 575              		.loc 2 51 48 view .LVU128
 576              		.cfi_endproc
 577              	.LFE5454:
 579 008a 00BF     		.section	.text._ZN5daisy25OneBitGraphicsDisplayImplINS_11OledDisplayINS_13SSD130xDriverILj128ELj64
 580              		.align	1
 581              		.p2align 2,,3
 582              		.weak	_ZN5daisy25OneBitGraphicsDisplayImplINS_11OledDisplayINS_13SSD130xDriverILj128ELj64ENS_24SSD
 583              		.syntax unified
 584              		.thumb
 585              		.thumb_func
 587              	_ZN5daisy25OneBitGraphicsDisplayImplINS_11OledDisplayINS_13SSD130xDriverILj128ELj64ENS_24SSD130x4Wi
 588              	.LVL35:
 589              	.LFB5452:
 220:libDaisy//src/hid/disp/display.h **** 
 221:libDaisy//src/hid/disp/display.h ****     void DrawLine(uint_fast8_t x1,
 222:libDaisy//src/hid/disp/display.h ****                   uint_fast8_t y1,
ARM GAS  /var/folders/z2/7_lhr9dn53s9tj4s0rwtyswm0000gn/T//ccRFfwbB.s 			page 34


 223:libDaisy//src/hid/disp/display.h ****                   uint_fast8_t x2,
 224:libDaisy//src/hid/disp/display.h ****                   uint_fast8_t y2,
 225:libDaisy//src/hid/disp/display.h ****                   bool         on) override
 226:libDaisy//src/hid/disp/display.h ****     {
 227:libDaisy//src/hid/disp/display.h ****         int_fast16_t deltaX = abs((int_fast16_t)x2 - (int_fast16_t)x1);
 228:libDaisy//src/hid/disp/display.h ****         int_fast16_t deltaY = abs((int_fast16_t)y2 - (int_fast16_t)y1);
 229:libDaisy//src/hid/disp/display.h ****         int_fast16_t signX  = ((x1 < x2) ? 1 : -1);
 230:libDaisy//src/hid/disp/display.h ****         int_fast16_t signY  = ((y1 < y2) ? 1 : -1);
 231:libDaisy//src/hid/disp/display.h ****         int_fast16_t error  = deltaX - deltaY;
 232:libDaisy//src/hid/disp/display.h ****         int_fast16_t error2;
 233:libDaisy//src/hid/disp/display.h **** 
 234:libDaisy//src/hid/disp/display.h ****         // If we write "ChildType::DrawPixel(x2, y2, on);", we end up with
 235:libDaisy//src/hid/disp/display.h ****         // all sorts of weird compiler errors when the Child class is a template
 236:libDaisy//src/hid/disp/display.h ****         // class. The only way around this is to use this very verbose syntax:
 237:libDaisy//src/hid/disp/display.h ****         ((ChildType*)(this))->ChildType::DrawPixel(x2, y2, on);
 238:libDaisy//src/hid/disp/display.h **** 
 239:libDaisy//src/hid/disp/display.h ****         while((x1 != x2) || (y1 != y2))
 240:libDaisy//src/hid/disp/display.h ****         {
 241:libDaisy//src/hid/disp/display.h ****             ((ChildType*)(this))->ChildType::DrawPixel(x1, y1, on);
 242:libDaisy//src/hid/disp/display.h ****             error2 = error * 2;
 243:libDaisy//src/hid/disp/display.h ****             if(error2 > -deltaY)
 244:libDaisy//src/hid/disp/display.h ****             {
 245:libDaisy//src/hid/disp/display.h ****                 error -= deltaY;
 246:libDaisy//src/hid/disp/display.h ****                 x1 += signX;
 247:libDaisy//src/hid/disp/display.h ****             }
 248:libDaisy//src/hid/disp/display.h **** 
 249:libDaisy//src/hid/disp/display.h ****             if(error2 < deltaX)
 250:libDaisy//src/hid/disp/display.h ****             {
 251:libDaisy//src/hid/disp/display.h ****                 error += deltaX;
 252:libDaisy//src/hid/disp/display.h ****                 y1 += signY;
 253:libDaisy//src/hid/disp/display.h ****             }
 254:libDaisy//src/hid/disp/display.h ****         }
 255:libDaisy//src/hid/disp/display.h ****     }
 256:libDaisy//src/hid/disp/display.h **** 
 257:libDaisy//src/hid/disp/display.h ****     void DrawRect(uint_fast8_t x1,
 258:libDaisy//src/hid/disp/display.h ****                   uint_fast8_t y1,
 259:libDaisy//src/hid/disp/display.h ****                   uint_fast8_t x2,
 260:libDaisy//src/hid/disp/display.h ****                   uint_fast8_t y2,
 261:libDaisy//src/hid/disp/display.h ****                   bool         on,
 262:libDaisy//src/hid/disp/display.h ****                   bool         fill = false) override
 263:libDaisy//src/hid/disp/display.h ****     {
 264:libDaisy//src/hid/disp/display.h ****         if(fill)
 265:libDaisy//src/hid/disp/display.h ****         {
 266:libDaisy//src/hid/disp/display.h ****             for(uint_fast8_t x = x1; x <= x2; x++)
 267:libDaisy//src/hid/disp/display.h ****             {
 268:libDaisy//src/hid/disp/display.h ****                 for(uint_fast8_t y = y1; y <= y2; y++)
 269:libDaisy//src/hid/disp/display.h ****                 {
 270:libDaisy//src/hid/disp/display.h ****                     ((ChildType*)(this))->ChildType::DrawPixel(x, y, on);
 271:libDaisy//src/hid/disp/display.h ****                 }
 272:libDaisy//src/hid/disp/display.h ****             }
 273:libDaisy//src/hid/disp/display.h ****         }
 274:libDaisy//src/hid/disp/display.h ****         else
 275:libDaisy//src/hid/disp/display.h ****         {
 276:libDaisy//src/hid/disp/display.h ****             ((ChildType*)(this))->ChildType::DrawLine(x1, y1, x2, y1, on);
 277:libDaisy//src/hid/disp/display.h ****             ((ChildType*)(this))->ChildType::DrawLine(x2, y1, x2, y2, on);
 278:libDaisy//src/hid/disp/display.h ****             ((ChildType*)(this))->ChildType::DrawLine(x2, y2, x1, y2, on);
 279:libDaisy//src/hid/disp/display.h ****             ((ChildType*)(this))->ChildType::DrawLine(x1, y2, x1, y1, on);
ARM GAS  /var/folders/z2/7_lhr9dn53s9tj4s0rwtyswm0000gn/T//ccRFfwbB.s 			page 35


 280:libDaisy//src/hid/disp/display.h ****         }
 281:libDaisy//src/hid/disp/display.h ****     }
 282:libDaisy//src/hid/disp/display.h **** 
 283:libDaisy//src/hid/disp/display.h ****     void DrawArc(uint_fast8_t x,
 284:libDaisy//src/hid/disp/display.h ****                  uint_fast8_t y,
 285:libDaisy//src/hid/disp/display.h ****                  uint_fast8_t radius,
 286:libDaisy//src/hid/disp/display.h ****                  int_fast16_t start_angle,
 287:libDaisy//src/hid/disp/display.h ****                  int_fast16_t sweep,
 288:libDaisy//src/hid/disp/display.h ****                  bool         on) override
 289:libDaisy//src/hid/disp/display.h ****     {
 290:libDaisy//src/hid/disp/display.h ****         // Values to calculate the circle
 291:libDaisy//src/hid/disp/display.h ****         int_fast16_t t_x, t_y, err, e2;
 292:libDaisy//src/hid/disp/display.h **** 
 293:libDaisy//src/hid/disp/display.h ****         // Temporary values to speed up comparisons
 294:libDaisy//src/hid/disp/display.h ****         float t_sxy, t_syx, t_sxny, t_synx;
 295:libDaisy//src/hid/disp/display.h ****         float t_exy, t_eyx, t_exny, t_eynx;
 296:libDaisy//src/hid/disp/display.h **** 
 297:libDaisy//src/hid/disp/display.h ****         float start_angle_rad, end_angle_rad;
 298:libDaisy//src/hid/disp/display.h ****         float start_x, start_y, end_x, end_y;
 299:libDaisy//src/hid/disp/display.h **** 
 300:libDaisy//src/hid/disp/display.h ****         bool d1, d2, d3, d4;
 301:libDaisy//src/hid/disp/display.h **** 
 302:libDaisy//src/hid/disp/display.h ****         d1 = d2 = d3 = d4 = true;
 303:libDaisy//src/hid/disp/display.h **** 
 304:libDaisy//src/hid/disp/display.h ****         bool circle = false;
 305:libDaisy//src/hid/disp/display.h **** 
 306:libDaisy//src/hid/disp/display.h ****         if(sweep < 0)
 307:libDaisy//src/hid/disp/display.h ****         {
 308:libDaisy//src/hid/disp/display.h ****             start_angle += sweep;
 309:libDaisy//src/hid/disp/display.h ****             sweep = -sweep;
 310:libDaisy//src/hid/disp/display.h ****         }
 311:libDaisy//src/hid/disp/display.h **** 
 312:libDaisy//src/hid/disp/display.h ****         start_angle_rad = deg2rad(start_angle);
 313:libDaisy//src/hid/disp/display.h ****         end_angle_rad   = deg2rad(start_angle + sweep);
 314:libDaisy//src/hid/disp/display.h **** 
 315:libDaisy//src/hid/disp/display.h ****         start_x = cos(start_angle_rad) * radius;
 316:libDaisy//src/hid/disp/display.h ****         start_y = -sin(start_angle_rad) * radius;
 317:libDaisy//src/hid/disp/display.h ****         end_x   = cos(end_angle_rad) * radius;
 318:libDaisy//src/hid/disp/display.h ****         end_y   = -sin(end_angle_rad) * radius;
 319:libDaisy//src/hid/disp/display.h **** 
 320:libDaisy//src/hid/disp/display.h ****         // Check if start and endpoint are very near
 321:libDaisy//src/hid/disp/display.h ****         if((end_x - start_x) * (end_x - start_x)
 322:libDaisy//src/hid/disp/display.h ****                + (end_y - start_y) * (end_y - start_y)
 323:libDaisy//src/hid/disp/display.h ****            < 2.0f)
 324:libDaisy//src/hid/disp/display.h ****         {
 325:libDaisy//src/hid/disp/display.h ****             if(sweep > 180)
 326:libDaisy//src/hid/disp/display.h ****                 circle = true;
 327:libDaisy//src/hid/disp/display.h ****             else
 328:libDaisy//src/hid/disp/display.h ****                 // Nothing to draw
 329:libDaisy//src/hid/disp/display.h ****                 return;
 330:libDaisy//src/hid/disp/display.h ****         }
 331:libDaisy//src/hid/disp/display.h **** 
 332:libDaisy//src/hid/disp/display.h ****         t_x = -radius;
 333:libDaisy//src/hid/disp/display.h ****         t_y = 0;
 334:libDaisy//src/hid/disp/display.h ****         err = 2 - 2 * radius;
 335:libDaisy//src/hid/disp/display.h **** 
 336:libDaisy//src/hid/disp/display.h ****         do
ARM GAS  /var/folders/z2/7_lhr9dn53s9tj4s0rwtyswm0000gn/T//ccRFfwbB.s 			page 36


 337:libDaisy//src/hid/disp/display.h ****         {
 338:libDaisy//src/hid/disp/display.h ****             if(!circle)
 339:libDaisy//src/hid/disp/display.h ****             {
 340:libDaisy//src/hid/disp/display.h ****                 t_sxy  = start_x * t_y;
 341:libDaisy//src/hid/disp/display.h ****                 t_syx  = start_y * t_x;
 342:libDaisy//src/hid/disp/display.h ****                 t_sxny = start_x * -t_y;
 343:libDaisy//src/hid/disp/display.h ****                 t_synx = start_y * -t_x;
 344:libDaisy//src/hid/disp/display.h ****                 t_exy  = end_x * t_y;
 345:libDaisy//src/hid/disp/display.h ****                 t_eyx  = end_y * t_x;
 346:libDaisy//src/hid/disp/display.h ****                 t_exny = end_x * -t_y;
 347:libDaisy//src/hid/disp/display.h ****                 t_eynx = end_y * -t_x;
 348:libDaisy//src/hid/disp/display.h **** 
 349:libDaisy//src/hid/disp/display.h ****                 if(sweep > 180)
 350:libDaisy//src/hid/disp/display.h ****                 {
 351:libDaisy//src/hid/disp/display.h ****                     d1 = (t_sxy - t_synx < 0 || t_exy - t_eynx > 0);
 352:libDaisy//src/hid/disp/display.h ****                     d2 = (t_sxy - t_syx < 0 || t_exy - t_eyx > 0);
 353:libDaisy//src/hid/disp/display.h ****                     d3 = (t_sxny - t_syx < 0 || t_exny - t_eyx > 0);
 354:libDaisy//src/hid/disp/display.h ****                     d4 = (t_sxny - t_synx < 0 || t_exny - t_eynx > 0);
 355:libDaisy//src/hid/disp/display.h ****                 }
 356:libDaisy//src/hid/disp/display.h ****                 else
 357:libDaisy//src/hid/disp/display.h ****                 {
 358:libDaisy//src/hid/disp/display.h ****                     d1 = (t_sxy - t_synx < 0 && t_exy - t_eynx > 0);
 359:libDaisy//src/hid/disp/display.h ****                     d2 = (t_sxy - t_syx < 0 && t_exy - t_eyx > 0);
 360:libDaisy//src/hid/disp/display.h ****                     d3 = (t_sxny - t_syx < 0 && t_exny - t_eyx > 0);
 361:libDaisy//src/hid/disp/display.h ****                     d4 = (t_sxny - t_synx < 0 && t_exny - t_eynx > 0);
 362:libDaisy//src/hid/disp/display.h ****                 }
 363:libDaisy//src/hid/disp/display.h ****             }
 364:libDaisy//src/hid/disp/display.h **** 
 365:libDaisy//src/hid/disp/display.h ****             if(d1)
 366:libDaisy//src/hid/disp/display.h ****                 ((ChildType*)(this))
 367:libDaisy//src/hid/disp/display.h ****                     ->ChildType::DrawPixel(x - t_x, y + t_y, on);
 368:libDaisy//src/hid/disp/display.h ****             if(d2)
 369:libDaisy//src/hid/disp/display.h ****                 ((ChildType*)(this))
 370:libDaisy//src/hid/disp/display.h ****                     ->ChildType::DrawPixel(x + t_x, y + t_y, on);
 371:libDaisy//src/hid/disp/display.h ****             if(d3)
 372:libDaisy//src/hid/disp/display.h ****                 ((ChildType*)(this))
 373:libDaisy//src/hid/disp/display.h ****                     ->ChildType::DrawPixel(x + t_x, y - t_y, on);
 374:libDaisy//src/hid/disp/display.h ****             if(d4)
 375:libDaisy//src/hid/disp/display.h ****                 ((ChildType*)(this))
 376:libDaisy//src/hid/disp/display.h ****                     ->ChildType::DrawPixel(x - t_x, y - t_y, on);
 377:libDaisy//src/hid/disp/display.h **** 
 378:libDaisy//src/hid/disp/display.h ****             e2 = err;
 379:libDaisy//src/hid/disp/display.h ****             if(e2 <= t_y)
 380:libDaisy//src/hid/disp/display.h ****             {
 381:libDaisy//src/hid/disp/display.h ****                 t_y++;
 382:libDaisy//src/hid/disp/display.h ****                 err = err + (t_y * 2 + 1);
 383:libDaisy//src/hid/disp/display.h ****                 if(-t_x == t_y && e2 <= t_x)
 384:libDaisy//src/hid/disp/display.h ****                 {
 385:libDaisy//src/hid/disp/display.h ****                     e2 = 0;
 386:libDaisy//src/hid/disp/display.h ****                 }
 387:libDaisy//src/hid/disp/display.h ****             }
 388:libDaisy//src/hid/disp/display.h ****             if(e2 > t_x)
 389:libDaisy//src/hid/disp/display.h ****             {
 390:libDaisy//src/hid/disp/display.h ****                 t_x++;
 391:libDaisy//src/hid/disp/display.h ****                 err = err + (t_x * 2 + 1);
 392:libDaisy//src/hid/disp/display.h ****             }
 393:libDaisy//src/hid/disp/display.h ****         } while(t_x <= 0);
ARM GAS  /var/folders/z2/7_lhr9dn53s9tj4s0rwtyswm0000gn/T//ccRFfwbB.s 			page 37


 394:libDaisy//src/hid/disp/display.h ****     }
 395:libDaisy//src/hid/disp/display.h **** 
 396:libDaisy//src/hid/disp/display.h ****     char WriteChar(char ch, FontDef font, bool on) override
 397:libDaisy//src/hid/disp/display.h ****     {
 398:libDaisy//src/hid/disp/display.h ****         uint32_t i, b, j;
 399:libDaisy//src/hid/disp/display.h **** 
 400:libDaisy//src/hid/disp/display.h ****         // Check if character is valid
 401:libDaisy//src/hid/disp/display.h ****         if(ch < 32 || ch > 126)
 402:libDaisy//src/hid/disp/display.h ****             return 0;
 403:libDaisy//src/hid/disp/display.h **** 
 404:libDaisy//src/hid/disp/display.h ****         // Check remaining space on current line
 405:libDaisy//src/hid/disp/display.h ****         if(Width() < (currentX_ + font.FontWidth)
 406:libDaisy//src/hid/disp/display.h ****            || Height() < (currentY_ + font.FontHeight))
 407:libDaisy//src/hid/disp/display.h ****         {
 408:libDaisy//src/hid/disp/display.h ****             // Not enough space on current line
 409:libDaisy//src/hid/disp/display.h ****             return 0;
 410:libDaisy//src/hid/disp/display.h ****         }
 411:libDaisy//src/hid/disp/display.h **** 
 412:libDaisy//src/hid/disp/display.h ****         // Use the font to write
 413:libDaisy//src/hid/disp/display.h ****         for(i = 0; i < font.FontHeight; i++)
 414:libDaisy//src/hid/disp/display.h ****         {
 415:libDaisy//src/hid/disp/display.h ****             b = font.data[(ch - 32) * font.FontHeight + i];
 416:libDaisy//src/hid/disp/display.h ****             for(j = 0; j < font.FontWidth; j++)
 417:libDaisy//src/hid/disp/display.h ****             {
 418:libDaisy//src/hid/disp/display.h ****                 if((b << j) & 0x8000)
 419:libDaisy//src/hid/disp/display.h ****                 {
 420:libDaisy//src/hid/disp/display.h ****                     ((ChildType*)(this))
 421:libDaisy//src/hid/disp/display.h ****                         ->ChildType::DrawPixel(
 422:libDaisy//src/hid/disp/display.h ****                             currentX_ + j, (currentY_ + i), on);
 423:libDaisy//src/hid/disp/display.h ****                 }
 424:libDaisy//src/hid/disp/display.h ****                 else
 425:libDaisy//src/hid/disp/display.h ****                 {
 426:libDaisy//src/hid/disp/display.h ****                     ((ChildType*)(this))
 427:libDaisy//src/hid/disp/display.h ****                         ->ChildType::DrawPixel(
 428:libDaisy//src/hid/disp/display.h ****                             currentX_ + j, (currentY_ + i), !on);
 429:libDaisy//src/hid/disp/display.h ****                 }
 430:libDaisy//src/hid/disp/display.h ****             }
 431:libDaisy//src/hid/disp/display.h ****         }
 432:libDaisy//src/hid/disp/display.h **** 
 433:libDaisy//src/hid/disp/display.h ****         // The current space is now taken
 434:libDaisy//src/hid/disp/display.h ****         SetCursor(currentX_ + font.FontWidth, currentY_);
 435:libDaisy//src/hid/disp/display.h **** 
 436:libDaisy//src/hid/disp/display.h ****         // Return written char for validation
 437:libDaisy//src/hid/disp/display.h ****         return ch;
 438:libDaisy//src/hid/disp/display.h ****     }
 439:libDaisy//src/hid/disp/display.h **** 
 440:libDaisy//src/hid/disp/display.h ****     char WriteString(const char* str, FontDef font, bool on) override
 590              		.loc 3 440 10 is_stmt 1 view -0
 591              		.cfi_startproc
 592              		@ args = 4, pretend = 0, frame = 32
 593              		@ frame_needed = 0, uses_anonymous_args = 0
 594              		.loc 3 440 10 is_stmt 0 view .LVU130
 595 0000 2DE9F04F 		push	{r4, r5, r6, r7, r8, r9, r10, fp, lr}
 596              		.cfi_def_cfa_offset 36
 597              		.cfi_offset 4, -36
 598              		.cfi_offset 5, -32
 599              		.cfi_offset 6, -28
ARM GAS  /var/folders/z2/7_lhr9dn53s9tj4s0rwtyswm0000gn/T//ccRFfwbB.s 			page 38


 600              		.cfi_offset 7, -24
 601              		.cfi_offset 8, -20
 602              		.cfi_offset 9, -16
 603              		.cfi_offset 10, -12
 604              		.cfi_offset 11, -8
 605              		.cfi_offset 14, -4
 606 0004 89B0     		sub	sp, sp, #36
 607              		.cfi_def_cfa_offset 72
 608              		.loc 3 440 10 view .LVU131
 609 0006 08AC     		add	r4, sp, #32
 610 0008 9DF84870 		ldrb	r7, [sp, #72]	@ zero_extendqisi2
 611 000c 0191     		str	r1, [sp, #4]
 612 000e 04E90C00 		stmdb	r4, {r2, r3}
 441:libDaisy//src/hid/disp/display.h ****     {
 442:libDaisy//src/hid/disp/display.h ****         // Write until null-byte
 443:libDaisy//src/hid/disp/display.h ****         while(*str)
 613              		.loc 3 443 9 is_stmt 1 view .LVU132
 614 0012 0B78     		ldrb	r3, [r1]	@ zero_extendqisi2
 615 0014 002B     		cmp	r3, #0
 616 0016 00F0AB80 		beq	.L47
 617 001a 1A46     		mov	r2, r3
 618 001c 9DF81880 		ldrb	r8, [sp, #24]	@ zero_extendqisi2
 619 0020 9DF81930 		ldrb	r3, [sp, #25]	@ zero_extendqisi2
 620 0024 0646     		mov	r6, r0
 621 0026 4546     		mov	r5, r8
 622 0028 9046     		mov	r8, r2
 623 002a 0393     		str	r3, [sp, #12]
 624 002c 079B     		ldr	r3, [sp, #28]
 625 002e 0593     		str	r3, [sp, #20]
 626              	.LVL36:
 627              	.L48:
 628              	.LBB493:
 629              	.LBI493:
 396:libDaisy//src/hid/disp/display.h ****     {
 630              		.loc 3 396 10 view .LVU133
 631              	.LBB494:
 401:libDaisy//src/hid/disp/display.h ****             return 0;
 632              		.loc 3 401 20 is_stmt 0 view .LVU134
 633 0030 A8F12004 		sub	r4, r8, #32
 401:libDaisy//src/hid/disp/display.h ****             return 0;
 634              		.loc 3 401 9 view .LVU135
 635 0034 E3B2     		uxtb	r3, r4
 636 0036 5E2B     		cmp	r3, #94
 637 0038 00F29E80 		bhi	.L29
 405:libDaisy//src/hid/disp/display.h ****            || Height() < (currentY_ + font.FontHeight))
 638              		.loc 3 405 17 view .LVU136
 639 003c 3368     		ldr	r3, [r6]
 640 003e 5E4A     		ldr	r2, .L69
 641 0040 DB68     		ldr	r3, [r3, #12]
 642 0042 9342     		cmp	r3, r2
 643 0044 40F09B80 		bne	.L62
 644 0048 8020     		movs	r0, #128
 645              	.L28:
 405:libDaisy//src/hid/disp/display.h ****            || Height() < (currentY_ + font.FontHeight))
 646              		.loc 3 405 23 view .LVU137
 647 004a B388     		ldrh	r3, [r6, #4]
 405:libDaisy//src/hid/disp/display.h ****            || Height() < (currentY_ + font.FontHeight))
ARM GAS  /var/folders/z2/7_lhr9dn53s9tj4s0rwtyswm0000gn/T//ccRFfwbB.s 			page 39


 648              		.loc 3 405 33 view .LVU138
 649 004c 2B44     		add	r3, r3, r5
 406:libDaisy//src/hid/disp/display.h ****         {
 650              		.loc 3 406 12 view .LVU139
 651 004e 8342     		cmp	r3, r0
 652 0050 00F39280 		bgt	.L29
 406:libDaisy//src/hid/disp/display.h ****         {
 653              		.loc 3 406 21 view .LVU140
 654 0054 3368     		ldr	r3, [r6]
 655 0056 594A     		ldr	r2, .L69+4
 656 0058 9B68     		ldr	r3, [r3, #8]
 657 005a 9342     		cmp	r3, r2
 658 005c 40F09280 		bne	.L63
 659 0060 4020     		movs	r0, #64
 660              	.L30:
 406:libDaisy//src/hid/disp/display.h ****         {
 661              		.loc 3 406 27 view .LVU141
 662 0062 F188     		ldrh	r1, [r6, #6]
 406:libDaisy//src/hid/disp/display.h ****         {
 663              		.loc 3 406 37 view .LVU142
 664 0064 039A     		ldr	r2, [sp, #12]
 406:libDaisy//src/hid/disp/display.h ****         {
 665              		.loc 3 406 27 view .LVU143
 666 0066 0291     		str	r1, [sp, #8]
 406:libDaisy//src/hid/disp/display.h ****         {
 667              		.loc 3 406 37 view .LVU144
 668 0068 8B18     		adds	r3, r1, r2
 406:libDaisy//src/hid/disp/display.h ****         {
 669              		.loc 3 406 12 view .LVU145
 670 006a 8342     		cmp	r3, r0
 671 006c 00F38480 		bgt	.L29
 672              	.LVL37:
 413:libDaisy//src/hid/disp/display.h ****         {
 673              		.loc 3 413 22 is_stmt 1 view .LVU146
 674 0070 002A     		cmp	r2, #0
 675 0072 00F09180 		beq	.L31
 415:libDaisy//src/hid/disp/display.h ****             for(j = 0; j < font.FontWidth; j++)
 676              		.loc 3 415 37 is_stmt 0 view .LVU147
 677 0076 02FB04F4 		mul	r4, r2, r4
 678 007a 6FF00049 		mvn	r9, #-2147483648
 679 007e 059B     		ldr	r3, [sp, #20]
 680 0080 A144     		add	r9, r9, r4
 681 0082 1444     		add	r4, r4, r2
 434:libDaisy//src/hid/disp/display.h **** 
 682              		.loc 3 434 19 view .LVU148
 683 0084 B6F804B0 		ldrh	fp, [r6, #4]
 684 0088 03EB4909 		add	r9, r3, r9, lsl #1
 685 008c 023B     		subs	r3, r3, #2
 686 008e CDF81080 		str	r8, [sp, #16]
 687 0092 03EB4403 		add	r3, r3, r4, lsl #1
 688 0096 0C46     		mov	r4, r1
 689 0098 9A46     		mov	r10, r3
 690              	.LVL38:
 691              	.L34:
 415:libDaisy//src/hid/disp/display.h ****             for(j = 0; j < font.FontWidth; j++)
 692              		.loc 3 415 15 view .LVU149
 693 009a 39F802CF 		ldrh	ip, [r9, #2]!
ARM GAS  /var/folders/z2/7_lhr9dn53s9tj4s0rwtyswm0000gn/T//ccRFfwbB.s 			page 40


 694              	.LVL39:
 416:libDaisy//src/hid/disp/display.h ****             {
 695              		.loc 3 416 26 is_stmt 1 view .LVU150
 696 009e A5B3     		cbz	r5, .L39
 697              	.LBB495:
 698              	.LBB496:
 699              	.LBB497:
 700              	.LBB498:
 701              	.LBB499:
 359:libDaisy//src/dev/oled_ssd130x.h ****     }
 702              		.loc 12 359 55 is_stmt 0 view .LVU151
 703 00a0 04F00703 		and	r3, r4, #7
 359:libDaisy//src/dev/oled_ssd130x.h ****     }
 704              		.loc 12 359 49 view .LVU152
 705 00a4 4FF0010E 		mov	lr, #1
 359:libDaisy//src/dev/oled_ssd130x.h ****     }
 706              		.loc 12 359 28 view .LVU153
 707 00a8 E208     		lsrs	r2, r4, #3
 708 00aa 5946     		mov	r1, fp
 359:libDaisy//src/dev/oled_ssd130x.h ****     }
 709              		.loc 12 359 49 view .LVU154
 710 00ac 0EFA03FE 		lsl	lr, lr, r3
 711 00b0 0BF11403 		add	r3, fp, #20
 359:libDaisy//src/dev/oled_ssd130x.h ****     }
 712              		.loc 12 359 42 view .LVU155
 713 00b4 4FFA8EFE 		sxtb	lr, lr
 714 00b8 03EBC212 		add	r2, r3, r2, lsl #7
 715              	.LBE499:
 716              	.LBE498:
 717              	.LBE497:
 718              	.LBE496:
 719              	.LBE495:
 416:libDaisy//src/hid/disp/display.h ****             {
 720              		.loc 3 416 19 view .LVU156
 721 00bc 0023     		movs	r3, #0
 722              	.LBB517:
 723              	.LBB512:
 724              	.LBB507:
 725              	.LBB503:
 726              	.LBB500:
 359:libDaisy//src/dev/oled_ssd130x.h ****     }
 727              		.loc 12 359 42 view .LVU157
 728 00be 6FEA0E08 		mvn	r8, lr
 729 00c2 3244     		add	r2, r2, r6
 730 00c4 0DE0     		b	.L40
 731              	.LVL40:
 732              	.L64:
 359:libDaisy//src/dev/oled_ssd130x.h ****     }
 733              		.loc 12 359 42 view .LVU158
 734              	.LBE500:
 735              	.LBE503:
 736              	.LBE507:
 737              	.LBE512:
 738              	.LBE517:
 739              	.LBB518:
 740              	.LBI518:
  42:libDaisy//src/hid/disp/oled_display.h ****     {
ARM GAS  /var/folders/z2/7_lhr9dn53s9tj4s0rwtyswm0000gn/T//ccRFfwbB.s 			page 41


 741              		.loc 2 42 10 is_stmt 1 view .LVU159
 742              	.LBB519:
 743              	.LBI519:
 352:libDaisy//src/dev/oled_ssd130x.h ****     {
 744              		.loc 12 352 10 view .LVU160
 745              	.LBB520:
 354:libDaisy//src/dev/oled_ssd130x.h ****             return;
 746              		.loc 12 354 9 is_stmt 0 view .LVU161
 747 00c6 7F29     		cmp	r1, #127
 748 00c8 06D8     		bhi	.L36
 749 00ca 3F2C     		cmp	r4, #63
 750 00cc 04D8     		bhi	.L36
 357:libDaisy//src/dev/oled_ssd130x.h ****         else
 751              		.loc 12 357 42 view .LVU162
 752 00ce 1078     		ldrb	r0, [r2]	@ zero_extendqisi2
 356:libDaisy//src/dev/oled_ssd130x.h ****             buffer_[x + (y / 8) * width] |= (1 << (y % 8));
 753              		.loc 12 356 9 view .LVU163
 754 00d0 97B1     		cbz	r7, .L38
 755              	.L61:
 356:libDaisy//src/dev/oled_ssd130x.h ****             buffer_[x + (y / 8) * width] |= (1 << (y % 8));
 756              		.loc 12 356 9 view .LVU164
 757              	.LBE520:
 758              	.LBE519:
 759              	.LBE518:
 760              	.LBB521:
 761              	.LBB513:
 762              	.LBB508:
 357:libDaisy//src/dev/oled_ssd130x.h ****         else
 763              		.loc 12 357 42 view .LVU165
 764 00d2 4EEA0000 		orr	r0, lr, r0
 765 00d6 1070     		strb	r0, [r2]
 766              	.L36:
 767              	.LBE508:
 768              	.LBE513:
 769              	.LBE521:
 416:libDaisy//src/hid/disp/display.h ****             {
 770              		.loc 3 416 13 is_stmt 1 view .LVU166
 771 00d8 0133     		adds	r3, r3, #1
 772              	.LVL41:
 416:libDaisy//src/hid/disp/display.h ****             {
 773              		.loc 3 416 26 view .LVU167
 774 00da 0132     		adds	r2, r2, #1
 775 00dc 0131     		adds	r1, r1, #1
 776 00de AB42     		cmp	r3, r5
 777 00e0 13D0     		beq	.L39
 778              	.LVL42:
 779              	.L40:
 418:libDaisy//src/hid/disp/display.h ****                 {
 780              		.loc 3 418 23 is_stmt 0 view .LVU168
 781 00e2 0CFA03F0 		lsl	r0, ip, r3
 418:libDaisy//src/hid/disp/display.h ****                 {
 782              		.loc 3 418 17 view .LVU169
 783 00e6 0004     		lsls	r0, r0, #16
 784 00e8 EDD4     		bmi	.L64
 785              	.LVL43:
 786              	.LBB522:
 787              	.LBI495:
ARM GAS  /var/folders/z2/7_lhr9dn53s9tj4s0rwtyswm0000gn/T//ccRFfwbB.s 			page 42


  42:libDaisy//src/hid/disp/oled_display.h ****     {
 788              		.loc 2 42 10 is_stmt 1 view .LVU170
 789              	.LBB514:
 790              	.LBI496:
 352:libDaisy//src/dev/oled_ssd130x.h ****     {
 791              		.loc 12 352 10 view .LVU171
 792              	.LBB509:
 354:libDaisy//src/dev/oled_ssd130x.h ****             return;
 793              		.loc 12 354 9 is_stmt 0 view .LVU172
 794 00ea 7F29     		cmp	r1, #127
 795 00ec F4D8     		bhi	.L36
 796 00ee 3F2C     		cmp	r4, #63
 797 00f0 F2D8     		bhi	.L36
 357:libDaisy//src/dev/oled_ssd130x.h ****         else
 798              		.loc 12 357 42 view .LVU173
 799 00f2 1078     		ldrb	r0, [r2]	@ zero_extendqisi2
 356:libDaisy//src/dev/oled_ssd130x.h ****             buffer_[x + (y / 8) * width] |= (1 << (y % 8));
 800              		.loc 12 356 9 view .LVU174
 801 00f4 002F     		cmp	r7, #0
 802 00f6 ECD0     		beq	.L61
 803              	.L38:
 804              	.LVL44:
 805              	.LBB504:
 806              	.LBI498:
 352:libDaisy//src/dev/oled_ssd130x.h ****     {
 807              		.loc 12 352 10 is_stmt 1 view .LVU175
 352:libDaisy//src/dev/oled_ssd130x.h ****     {
 808              		.loc 12 352 10 is_stmt 0 view .LVU176
 809              	.LBE504:
 810              	.LBE509:
 811              	.LBE514:
 812              	.LBE522:
 416:libDaisy//src/hid/disp/display.h ****             {
 813              		.loc 3 416 13 view .LVU177
 814 00f8 0133     		adds	r3, r3, #1
 815              	.LVL45:
 816              	.LBB523:
 817              	.LBB515:
 818              	.LBB510:
 819              	.LBB505:
 820              	.LBB501:
 359:libDaisy//src/dev/oled_ssd130x.h ****     }
 821              		.loc 12 359 42 view .LVU178
 822 00fa 08EA0000 		and	r0, r8, r0
 823              	.LBE501:
 824              	.LBE505:
 825              	.LBE510:
 826              	.LBE515:
 827              	.LBE523:
 416:libDaisy//src/hid/disp/display.h ****             {
 828              		.loc 3 416 26 view .LVU179
 829 00fe 0132     		adds	r2, r2, #1
 830 0100 0131     		adds	r1, r1, #1
 831 0102 AB42     		cmp	r3, r5
 832              	.LBB524:
 833              	.LBB516:
 834              	.LBB511:
ARM GAS  /var/folders/z2/7_lhr9dn53s9tj4s0rwtyswm0000gn/T//ccRFfwbB.s 			page 43


 835              	.LBB506:
 836              	.LBB502:
 359:libDaisy//src/dev/oled_ssd130x.h ****     }
 837              		.loc 12 359 42 view .LVU180
 838 0104 02F8010C 		strb	r0, [r2, #-1]
 359:libDaisy//src/dev/oled_ssd130x.h ****     }
 839              		.loc 12 359 42 view .LVU181
 840              	.LBE502:
 841              	.LBE506:
 842              	.LBE511:
 843              	.LBE516:
 844              	.LBE524:
 416:libDaisy//src/hid/disp/display.h ****             {
 845              		.loc 3 416 13 is_stmt 1 view .LVU182
 846              	.LVL46:
 416:libDaisy//src/hid/disp/display.h ****             {
 847              		.loc 3 416 26 view .LVU183
 848 0108 EBD1     		bne	.L40
 849              	.LVL47:
 850              	.L39:
 413:libDaisy//src/hid/disp/display.h ****         {
 851              		.loc 3 413 9 view .LVU184
 413:libDaisy//src/hid/disp/display.h ****         {
 852              		.loc 3 413 22 view .LVU185
 853 010a D145     		cmp	r9, r10
 854 010c 04F10104 		add	r4, r4, #1
 855 0110 C3D1     		bne	.L34
 856 0112 DDF81080 		ldr	r8, [sp, #16]
 857              	.LVL48:
 858              	.L33:
 859              	.LBB525:
 860              	.LBB526:
 173:libDaisy//src/hid/disp/display.h ****         currentY_ = (y >= Height()) ? Height() - 1 : y;
 861              		.loc 3 173 33 is_stmt 0 view .LVU186
 862 0116 3268     		ldr	r2, [r6]
 863              	.LBE526:
 864              	.LBE525:
 434:libDaisy//src/hid/disp/display.h **** 
 865              		.loc 3 434 18 view .LVU187
 866 0118 0BEB0504 		add	r4, fp, r5
 867 011c 2649     		ldr	r1, .L69
 868              	.LBB531:
 869              	.LBB527:
 173:libDaisy//src/hid/disp/display.h ****         currentY_ = (y >= Height()) ? Height() - 1 : y;
 870              		.loc 3 173 33 view .LVU188
 871 011e D368     		ldr	r3, [r2, #12]
 872              	.LBE527:
 873              	.LBE531:
 434:libDaisy//src/hid/disp/display.h **** 
 874              		.loc 3 434 18 view .LVU189
 875 0120 A4B2     		uxth	r4, r4
 876              	.LVL49:
 877              	.LBB532:
 878              	.LBI525:
 171:libDaisy//src/hid/disp/display.h ****     {
 879              		.loc 3 171 10 is_stmt 1 view .LVU190
 880              	.LBB528:
ARM GAS  /var/folders/z2/7_lhr9dn53s9tj4s0rwtyswm0000gn/T//ccRFfwbB.s 			page 44


 173:libDaisy//src/hid/disp/display.h ****         currentY_ = (y >= Height()) ? Height() - 1 : y;
 881              		.loc 3 173 9 view .LVU191
 882 0122 8B42     		cmp	r3, r1
 883 0124 34D1     		bne	.L65
 173:libDaisy//src/hid/disp/display.h ****         currentY_ = (y >= Height()) ? Height() - 1 : y;
 884              		.loc 3 173 33 is_stmt 0 view .LVU192
 885 0126 8020     		movs	r0, #128
 886              	.L41:
 173:libDaisy//src/hid/disp/display.h ****         currentY_ = (y >= Height()) ? Height() - 1 : y;
 887              		.loc 3 173 19 view .LVU193
 888 0128 8442     		cmp	r4, r0
 889 012a 04D3     		bcc	.L42
 173:libDaisy//src/hid/disp/display.h ****         currentY_ = (y >= Height()) ? Height() - 1 : y;
 890              		.loc 3 173 44 view .LVU194
 891 012c D368     		ldr	r3, [r2, #12]
 892 012e 2249     		ldr	r1, .L69
 893 0130 8B42     		cmp	r3, r1
 894 0132 3AD1     		bne	.L66
 895 0134 7F24     		movs	r4, #127
 896              	.LVL50:
 897              	.L42:
 174:libDaisy//src/hid/disp/display.h ****     }
 898              		.loc 3 174 34 view .LVU195
 899 0136 9368     		ldr	r3, [r2, #8]
 900 0138 204A     		ldr	r2, .L69+4
 173:libDaisy//src/hid/disp/display.h ****         currentY_ = (y >= Height()) ? Height() - 1 : y;
 901              		.loc 3 173 19 view .LVU196
 902 013a B480     		strh	r4, [r6, #4]	@ movhi
 174:libDaisy//src/hid/disp/display.h ****     }
 903              		.loc 3 174 9 is_stmt 1 view .LVU197
 904 013c 9342     		cmp	r3, r2
 905 013e 24D1     		bne	.L67
 174:libDaisy//src/hid/disp/display.h ****     }
 906              		.loc 3 174 34 is_stmt 0 view .LVU198
 907 0140 4020     		movs	r0, #64
 908              	.L44:
 174:libDaisy//src/hid/disp/display.h ****     }
 909              		.loc 3 174 19 view .LVU199
 910 0142 029B     		ldr	r3, [sp, #8]
 911 0144 8342     		cmp	r3, r0
 912 0146 06D3     		bcc	.L45
 174:libDaisy//src/hid/disp/display.h ****     }
 913              		.loc 3 174 46 view .LVU200
 914 0148 3368     		ldr	r3, [r6]
 915 014a 1C4A     		ldr	r2, .L69+4
 916 014c 9B68     		ldr	r3, [r3, #8]
 917 014e 9342     		cmp	r3, r2
 918 0150 25D1     		bne	.L68
 919 0152 3F23     		movs	r3, #63
 920 0154 0293     		str	r3, [sp, #8]
 921              	.LVL51:
 922              	.L45:
 174:libDaisy//src/hid/disp/display.h ****     }
 923              		.loc 3 174 19 view .LVU201
 924 0156 029B     		ldr	r3, [sp, #8]
 925 0158 F380     		strh	r3, [r6, #6]	@ movhi
 926              	.LVL52:
ARM GAS  /var/folders/z2/7_lhr9dn53s9tj4s0rwtyswm0000gn/T//ccRFfwbB.s 			page 45


 927              	.L27:
 174:libDaisy//src/hid/disp/display.h ****     }
 928              		.loc 3 174 19 view .LVU202
 929              	.LBE528:
 930              	.LBE532:
 931              	.LBE494:
 932              	.LBE493:
 444:libDaisy//src/hid/disp/display.h ****         {
 445:libDaisy//src/hid/disp/display.h ****             if(((ChildType*)(this))->ChildType::WriteChar(*str, font, on)
 446:libDaisy//src/hid/disp/display.h ****                != *str)
 933              		.loc 3 446 16 view .LVU203
 934 015a 019B     		ldr	r3, [sp, #4]
 935 015c 1878     		ldrb	r0, [r3]	@ zero_extendqisi2
 445:libDaisy//src/hid/disp/display.h ****                != *str)
 936              		.loc 3 445 13 view .LVU204
 937 015e 4045     		cmp	r0, r8
 938 0160 07D1     		bne	.L25
 939              	.LVL53:
 443:libDaisy//src/hid/disp/display.h ****         {
 940              		.loc 3 443 9 is_stmt 1 view .LVU205
 941 0162 13F8018F 		ldrb	r8, [r3, #1]!	@ zero_extendqisi2
 942              	.LVL54:
 443:libDaisy//src/hid/disp/display.h ****         {
 943              		.loc 3 443 9 is_stmt 0 view .LVU206
 944 0166 0193     		str	r3, [sp, #4]
 945 0168 B8F1000F 		cmp	r8, #0
 946 016c 7FF460AF 		bne	.L48
 947              	.LVL55:
 948              	.L47:
 949              	.LBB537:
 950              	.LBB535:
 402:libDaisy//src/hid/disp/display.h **** 
 951              		.loc 3 402 20 view .LVU207
 952 0170 0020     		movs	r0, #0
 953              	.L25:
 954              	.LBE535:
 955              	.LBE537:
 447:libDaisy//src/hid/disp/display.h ****             {
 448:libDaisy//src/hid/disp/display.h ****                 // Char could not be written
 449:libDaisy//src/hid/disp/display.h ****                 return *str;
 450:libDaisy//src/hid/disp/display.h ****             }
 451:libDaisy//src/hid/disp/display.h **** 
 452:libDaisy//src/hid/disp/display.h ****             // Next char
 453:libDaisy//src/hid/disp/display.h ****             str++;
 454:libDaisy//src/hid/disp/display.h ****         }
 455:libDaisy//src/hid/disp/display.h **** 
 456:libDaisy//src/hid/disp/display.h ****         // Everything ok
 457:libDaisy//src/hid/disp/display.h ****         return *str;
 458:libDaisy//src/hid/disp/display.h ****     }
 956              		.loc 3 458 5 view .LVU208
 957 0172 09B0     		add	sp, sp, #36
 958              		.cfi_remember_state
 959              		.cfi_def_cfa_offset 36
 960              		@ sp needed
 961 0174 BDE8F08F 		pop	{r4, r5, r6, r7, r8, r9, r10, fp, pc}
 962              	.LVL56:
 963              	.L29:
ARM GAS  /var/folders/z2/7_lhr9dn53s9tj4s0rwtyswm0000gn/T//ccRFfwbB.s 			page 46


 964              		.cfi_restore_state
 965              	.LBB538:
 966              	.LBB536:
 402:libDaisy//src/hid/disp/display.h **** 
 967              		.loc 3 402 20 view .LVU209
 968 0178 4FF00008 		mov	r8, #0
 969              	.LVL57:
 402:libDaisy//src/hid/disp/display.h **** 
 970              		.loc 3 402 20 view .LVU210
 971 017c EDE7     		b	.L27
 972              	.LVL58:
 973              	.L62:
 405:libDaisy//src/hid/disp/display.h ****            || Height() < (currentY_ + font.FontHeight))
 974              		.loc 3 405 17 view .LVU211
 975 017e 3046     		mov	r0, r6
 976 0180 9847     		blx	r3
 977              	.LVL59:
 978 0182 62E7     		b	.L28
 979              	.L63:
 406:libDaisy//src/hid/disp/display.h ****         {
 980              		.loc 3 406 21 view .LVU212
 981 0184 3046     		mov	r0, r6
 982 0186 9847     		blx	r3
 983              	.LVL60:
 984 0188 6BE7     		b	.L30
 985              	.LVL61:
 986              	.L67:
 987              	.LBB533:
 988              	.LBB529:
 174:libDaisy//src/hid/disp/display.h ****     }
 989              		.loc 3 174 33 view .LVU213
 990 018a 3046     		mov	r0, r6
 991 018c 9847     		blx	r3
 992              	.LVL62:
 993 018e D8E7     		b	.L44
 994              	.LVL63:
 995              	.L65:
 173:libDaisy//src/hid/disp/display.h ****         currentY_ = (y >= Height()) ? Height() - 1 : y;
 996              		.loc 3 173 32 view .LVU214
 997 0190 3046     		mov	r0, r6
 998 0192 9847     		blx	r3
 999              	.LVL64:
 173:libDaisy//src/hid/disp/display.h ****         currentY_ = (y >= Height()) ? Height() - 1 : y;
 1000              		.loc 3 173 44 view .LVU215
 1001 0194 3268     		ldr	r2, [r6]
 1002 0196 C7E7     		b	.L41
 1003              	.LVL65:
 1004              	.L31:
 173:libDaisy//src/hid/disp/display.h ****         currentY_ = (y >= Height()) ? Height() - 1 : y;
 1005              		.loc 3 173 44 view .LVU216
 1006              	.LBE529:
 1007              	.LBE533:
 434:libDaisy//src/hid/disp/display.h **** 
 1008              		.loc 3 434 19 view .LVU217
 1009 0198 B6F804B0 		ldrh	fp, [r6, #4]
 1010 019c BBE7     		b	.L33
 1011              	.LVL66:
ARM GAS  /var/folders/z2/7_lhr9dn53s9tj4s0rwtyswm0000gn/T//ccRFfwbB.s 			page 47


 1012              	.L68:
 1013              	.LBB534:
 1014              	.LBB530:
 174:libDaisy//src/hid/disp/display.h ****     }
 1015              		.loc 3 174 45 view .LVU218
 1016 019e 3046     		mov	r0, r6
 1017 01a0 9847     		blx	r3
 1018              	.LVL67:
 174:libDaisy//src/hid/disp/display.h ****     }
 1019              		.loc 3 174 19 view .LVU219
 1020 01a2 0138     		subs	r0, r0, #1
 1021 01a4 83B2     		uxth	r3, r0
 1022 01a6 0293     		str	r3, [sp, #8]
 1023              	.LVL68:
 174:libDaisy//src/hid/disp/display.h ****     }
 1024              		.loc 3 174 19 view .LVU220
 1025 01a8 D5E7     		b	.L45
 1026              	.LVL69:
 1027              	.L66:
 173:libDaisy//src/hid/disp/display.h ****         currentY_ = (y >= Height()) ? Height() - 1 : y;
 1028              		.loc 3 173 43 view .LVU221
 1029 01aa 3046     		mov	r0, r6
 1030 01ac 9847     		blx	r3
 1031              	.LVL70:
 173:libDaisy//src/hid/disp/display.h ****         currentY_ = (y >= Height()) ? Height() - 1 : y;
 1032              		.loc 3 173 19 view .LVU222
 1033 01ae 0138     		subs	r0, r0, #1
 174:libDaisy//src/hid/disp/display.h ****     }
 1034              		.loc 3 174 34 view .LVU223
 1035 01b0 3268     		ldr	r2, [r6]
 173:libDaisy//src/hid/disp/display.h ****         currentY_ = (y >= Height()) ? Height() - 1 : y;
 1036              		.loc 3 173 19 view .LVU224
 1037 01b2 84B2     		uxth	r4, r0
 1038              	.LVL71:
 173:libDaisy//src/hid/disp/display.h ****         currentY_ = (y >= Height()) ? Height() - 1 : y;
 1039              		.loc 3 173 19 view .LVU225
 1040 01b4 BFE7     		b	.L42
 1041              	.L70:
 1042 01b6 00BF     		.align	2
 1043              	.L69:
 1044 01b8 00000000 		.word	_ZNK5daisy11OledDisplayINS_13SSD130xDriverILj128ELj64ENS_24SSD130x4WireSpiTransportEEEE5Widt
 1045 01bc 00000000 		.word	_ZNK5daisy11OledDisplayINS_13SSD130xDriverILj128ELj64ENS_24SSD130x4WireSpiTransportEEEE6Heig
 1046              	.LBE530:
 1047              	.LBE534:
 1048              	.LBE536:
 1049              	.LBE538:
 1050              		.cfi_endproc
 1051              	.LFE5452:
 1053              		.section	.text._ZN5daisy25OneBitGraphicsDisplayImplINS_11OledDisplayINS_13SSD130xDriverILj128ELj64
 1054              		.align	1
 1055              		.p2align 2,,3
 1056              		.weak	_ZN5daisy25OneBitGraphicsDisplayImplINS_11OledDisplayINS_13SSD130xDriverILj128ELj64ENS_24SSD
 1057              		.syntax unified
 1058              		.thumb
 1059              		.thumb_func
 1061              	_ZN5daisy25OneBitGraphicsDisplayImplINS_11OledDisplayINS_13SSD130xDriverILj128ELj64ENS_24SSD130x4Wi
 1062              	.LVL72:
ARM GAS  /var/folders/z2/7_lhr9dn53s9tj4s0rwtyswm0000gn/T//ccRFfwbB.s 			page 48


 1063              	.LFB5451:
 396:libDaisy//src/hid/disp/display.h ****     {
 1064              		.loc 3 396 10 is_stmt 1 view -0
 1065              		.cfi_startproc
 1066              		@ args = 4, pretend = 0, frame = 16
 1067              		@ frame_needed = 0, uses_anonymous_args = 0
 396:libDaisy//src/hid/disp/display.h ****     {
 1068              		.loc 3 396 10 is_stmt 0 view .LVU227
 1069 0000 2DE9F04F 		push	{r4, r5, r6, r7, r8, r9, r10, fp, lr}
 1070              		.cfi_def_cfa_offset 36
 1071              		.cfi_offset 4, -36
 1072              		.cfi_offset 5, -32
 1073              		.cfi_offset 6, -28
 1074              		.cfi_offset 7, -24
 1075              		.cfi_offset 8, -20
 1076              		.cfi_offset 9, -16
 1077              		.cfi_offset 10, -12
 1078              		.cfi_offset 11, -8
 1079              		.cfi_offset 14, -4
 1080 0004 85B0     		sub	sp, sp, #20
 1081              		.cfi_def_cfa_offset 56
 1082              	.LVL73:
 401:libDaisy//src/hid/disp/display.h ****             return 0;
 1083              		.loc 3 401 20 view .LVU228
 1084 0006 A1F12005 		sub	r5, r1, #32
 396:libDaisy//src/hid/disp/display.h ****     {
 1085              		.loc 3 396 10 view .LVU229
 1086 000a 04AC     		add	r4, sp, #16
 1087 000c 9DF83870 		ldrb	r7, [sp, #56]	@ zero_extendqisi2
 1088 0010 0091     		str	r1, [sp]
 1089 0012 04E90C00 		stmdb	r4, {r2, r3}
 1090              	.LVL74:
 401:libDaisy//src/hid/disp/display.h ****             return 0;
 1091              		.loc 3 401 9 view .LVU230
 1092 0016 EBB2     		uxtb	r3, r5
 1093 0018 5E2B     		cmp	r3, #94
 1094 001a 00F29580 		bhi	.L75
 405:libDaisy//src/hid/disp/display.h ****            || Height() < (currentY_ + font.FontHeight))
 1095              		.loc 3 405 17 view .LVU231
 1096 001e 0368     		ldr	r3, [r0]
 1097 0020 8046     		mov	r8, r0
 1098 0022 5D4A     		ldr	r2, .L110
 1099 0024 DB68     		ldr	r3, [r3, #12]
 1100 0026 9DF80840 		ldrb	r4, [sp, #8]	@ zero_extendqisi2
 1101 002a 9342     		cmp	r3, r2
 1102 002c 9DF80960 		ldrb	r6, [sp, #9]	@ zero_extendqisi2
 1103 0030 40F09480 		bne	.L102
 1104 0034 8020     		movs	r0, #128
 1105              	.LVL75:
 1106              	.L74:
 405:libDaisy//src/hid/disp/display.h ****            || Height() < (currentY_ + font.FontHeight))
 1107              		.loc 3 405 23 view .LVU232
 1108 0036 B8F80430 		ldrh	r3, [r8, #4]
 405:libDaisy//src/hid/disp/display.h ****            || Height() < (currentY_ + font.FontHeight))
 1109              		.loc 3 405 33 view .LVU233
 1110 003a 2344     		add	r3, r3, r4
 406:libDaisy//src/hid/disp/display.h ****         {
ARM GAS  /var/folders/z2/7_lhr9dn53s9tj4s0rwtyswm0000gn/T//ccRFfwbB.s 			page 49


 1111              		.loc 3 406 12 view .LVU234
 1112 003c 8342     		cmp	r3, r0
 1113 003e 00F38380 		bgt	.L75
 406:libDaisy//src/hid/disp/display.h ****         {
 1114              		.loc 3 406 21 discriminator 2 view .LVU235
 1115 0042 D8F80030 		ldr	r3, [r8]
 1116 0046 554A     		ldr	r2, .L110+4
 1117 0048 9B68     		ldr	r3, [r3, #8]
 1118 004a 9342     		cmp	r3, r2
 1119 004c 40F08880 		bne	.L103
 406:libDaisy//src/hid/disp/display.h ****         {
 1120              		.loc 3 406 21 view .LVU236
 1121 0050 4020     		movs	r0, #64
 1122              	.L76:
 406:libDaisy//src/hid/disp/display.h ****         {
 1123              		.loc 3 406 27 discriminator 2 view .LVU237
 1124 0052 B8F80620 		ldrh	r2, [r8, #6]
 406:libDaisy//src/hid/disp/display.h ****         {
 1125              		.loc 3 406 37 discriminator 2 view .LVU238
 1126 0056 9319     		adds	r3, r2, r6
 406:libDaisy//src/hid/disp/display.h ****         {
 1127              		.loc 3 406 27 discriminator 2 view .LVU239
 1128 0058 0192     		str	r2, [sp, #4]
 406:libDaisy//src/hid/disp/display.h ****         {
 1129              		.loc 3 406 12 discriminator 2 view .LVU240
 1130 005a 8342     		cmp	r3, r0
 1131 005c 74DC     		bgt	.L75
 1132              	.LVL76:
 413:libDaisy//src/hid/disp/display.h ****         {
 1133              		.loc 3 413 22 is_stmt 1 view .LVU241
 1134 005e 002E     		cmp	r6, #0
 1135 0060 00F08980 		beq	.L77
 415:libDaisy//src/hid/disp/display.h ****             for(j = 0; j < font.FontWidth; j++)
 1136              		.loc 3 415 37 is_stmt 0 view .LVU242
 1137 0064 06FB05F5 		mul	r5, r6, r5
 1138 0068 6FF00040 		mvn	r0, #-2147483648
 415:libDaisy//src/hid/disp/display.h ****             for(j = 0; j < font.FontWidth; j++)
 1139              		.loc 3 415 22 view .LVU243
 1140 006c 039B     		ldr	r3, [sp, #12]
 1141 006e 9646     		mov	lr, r2
 1142 0070 2844     		add	r0, r0, r5
 1143 0072 2E44     		add	r6, r6, r5
 434:libDaisy//src/hid/disp/display.h **** 
 1144              		.loc 3 434 19 view .LVU244
 1145 0074 B8F804A0 		ldrh	r10, [r8, #4]
 1146 0078 03EB4000 		add	r0, r3, r0, lsl #1
 1147 007c 023B     		subs	r3, r3, #2
 1148 007e 03EB460B 		add	fp, r3, r6, lsl #1
 1149              	.LVL77:
 1150              	.L80:
 415:libDaisy//src/hid/disp/display.h ****             for(j = 0; j < font.FontWidth; j++)
 1151              		.loc 3 415 15 view .LVU245
 1152 0082 30F8026F 		ldrh	r6, [r0, #2]!
 1153              	.LVL78:
 416:libDaisy//src/hid/disp/display.h ****             {
 1154              		.loc 3 416 26 is_stmt 1 view .LVU246
 1155 0086 BCB3     		cbz	r4, .L85
ARM GAS  /var/folders/z2/7_lhr9dn53s9tj4s0rwtyswm0000gn/T//ccRFfwbB.s 			page 50


 1156              	.LBB569:
 1157              	.LBB570:
 1158              	.LBB571:
 1159              	.LBB572:
 1160              	.LBB573:
 359:libDaisy//src/dev/oled_ssd130x.h ****     }
 1161              		.loc 12 359 55 is_stmt 0 view .LVU247
 1162 0088 0EF00703 		and	r3, lr, #7
 359:libDaisy//src/dev/oled_ssd130x.h ****     }
 1163              		.loc 12 359 49 view .LVU248
 1164 008c 4FF0010C 		mov	ip, #1
 359:libDaisy//src/dev/oled_ssd130x.h ****     }
 1165              		.loc 12 359 28 view .LVU249
 1166 0090 4FEADE02 		lsr	r2, lr, #3
 1167 0094 5146     		mov	r1, r10
 359:libDaisy//src/dev/oled_ssd130x.h ****     }
 1168              		.loc 12 359 49 view .LVU250
 1169 0096 0CFA03FC 		lsl	ip, ip, r3
 1170 009a 0AF11403 		add	r3, r10, #20
 359:libDaisy//src/dev/oled_ssd130x.h ****     }
 1171              		.loc 12 359 42 view .LVU251
 1172 009e 4FFA8CFC 		sxtb	ip, ip
 1173 00a2 03EBC212 		add	r2, r3, r2, lsl #7
 1174              	.LBE573:
 1175              	.LBE572:
 1176              	.LBE571:
 1177              	.LBE570:
 1178              	.LBE569:
 416:libDaisy//src/hid/disp/display.h ****             {
 1179              		.loc 3 416 19 view .LVU252
 1180 00a6 0023     		movs	r3, #0
 1181              	.LBB591:
 1182              	.LBB586:
 1183              	.LBB581:
 1184              	.LBB577:
 1185              	.LBB574:
 359:libDaisy//src/dev/oled_ssd130x.h ****     }
 1186              		.loc 12 359 42 view .LVU253
 1187 00a8 6FEA0C09 		mvn	r9, ip
 1188 00ac 4244     		add	r2, r2, r8
 1189 00ae 0EE0     		b	.L86
 1190              	.LVL79:
 1191              	.L104:
 359:libDaisy//src/dev/oled_ssd130x.h ****     }
 1192              		.loc 12 359 42 view .LVU254
 1193              	.LBE574:
 1194              	.LBE577:
 1195              	.LBE581:
 1196              	.LBE586:
 1197              	.LBE591:
 1198              	.LBB592:
 1199              	.LBI592:
  42:libDaisy//src/hid/disp/oled_display.h ****     {
 1200              		.loc 2 42 10 is_stmt 1 view .LVU255
 1201              	.LBB593:
 1202              	.LBI593:
 352:libDaisy//src/dev/oled_ssd130x.h ****     {
ARM GAS  /var/folders/z2/7_lhr9dn53s9tj4s0rwtyswm0000gn/T//ccRFfwbB.s 			page 51


 1203              		.loc 12 352 10 view .LVU256
 1204              	.LBB594:
 354:libDaisy//src/dev/oled_ssd130x.h ****             return;
 1205              		.loc 12 354 9 is_stmt 0 view .LVU257
 1206 00b0 7F29     		cmp	r1, #127
 1207 00b2 07D8     		bhi	.L82
 1208 00b4 BEF13F0F 		cmp	lr, #63
 1209 00b8 04D8     		bhi	.L82
 357:libDaisy//src/dev/oled_ssd130x.h ****         else
 1210              		.loc 12 357 42 view .LVU258
 1211 00ba 1578     		ldrb	r5, [r2]	@ zero_extendqisi2
 356:libDaisy//src/dev/oled_ssd130x.h ****             buffer_[x + (y / 8) * width] |= (1 << (y % 8));
 1212              		.loc 12 356 9 view .LVU259
 1213 00bc 9FB1     		cbz	r7, .L84
 1214              	.L101:
 356:libDaisy//src/dev/oled_ssd130x.h ****             buffer_[x + (y / 8) * width] |= (1 << (y % 8));
 1215              		.loc 12 356 9 view .LVU260
 1216              	.LBE594:
 1217              	.LBE593:
 1218              	.LBE592:
 1219              	.LBB595:
 1220              	.LBB587:
 1221              	.LBB582:
 357:libDaisy//src/dev/oled_ssd130x.h ****         else
 1222              		.loc 12 357 42 view .LVU261
 1223 00be 4CEA0505 		orr	r5, ip, r5
 1224 00c2 1570     		strb	r5, [r2]
 1225              	.L82:
 1226              	.LBE582:
 1227              	.LBE587:
 1228              	.LBE595:
 416:libDaisy//src/hid/disp/display.h ****             {
 1229              		.loc 3 416 13 is_stmt 1 discriminator 2 view .LVU262
 1230 00c4 0133     		adds	r3, r3, #1
 1231              	.LVL80:
 416:libDaisy//src/hid/disp/display.h ****             {
 1232              		.loc 3 416 26 discriminator 2 view .LVU263
 1233 00c6 0132     		adds	r2, r2, #1
 1234 00c8 0131     		adds	r1, r1, #1
 1235 00ca 9C42     		cmp	r4, r3
 1236 00cc 14D0     		beq	.L85
 1237              	.LVL81:
 1238              	.L86:
 418:libDaisy//src/hid/disp/display.h ****                 {
 1239              		.loc 3 418 23 is_stmt 0 view .LVU264
 1240 00ce 06FA03F5 		lsl	r5, r6, r3
 418:libDaisy//src/hid/disp/display.h ****                 {
 1241              		.loc 3 418 17 view .LVU265
 1242 00d2 2D04     		lsls	r5, r5, #16
 1243 00d4 ECD4     		bmi	.L104
 1244              	.LVL82:
 1245              	.LBB596:
 1246              	.LBI569:
  42:libDaisy//src/hid/disp/oled_display.h ****     {
 1247              		.loc 2 42 10 is_stmt 1 view .LVU266
 1248              	.LBB588:
 1249              	.LBI570:
ARM GAS  /var/folders/z2/7_lhr9dn53s9tj4s0rwtyswm0000gn/T//ccRFfwbB.s 			page 52


 352:libDaisy//src/dev/oled_ssd130x.h ****     {
 1250              		.loc 12 352 10 view .LVU267
 1251              	.LBB583:
 354:libDaisy//src/dev/oled_ssd130x.h ****             return;
 1252              		.loc 12 354 9 is_stmt 0 view .LVU268
 1253 00d6 7F29     		cmp	r1, #127
 1254 00d8 F4D8     		bhi	.L82
 1255 00da BEF13F0F 		cmp	lr, #63
 1256 00de F1D8     		bhi	.L82
 357:libDaisy//src/dev/oled_ssd130x.h ****         else
 1257              		.loc 12 357 42 view .LVU269
 1258 00e0 1578     		ldrb	r5, [r2]	@ zero_extendqisi2
 356:libDaisy//src/dev/oled_ssd130x.h ****             buffer_[x + (y / 8) * width] |= (1 << (y % 8));
 1259              		.loc 12 356 9 view .LVU270
 1260 00e2 002F     		cmp	r7, #0
 1261 00e4 EBD0     		beq	.L101
 1262              	.L84:
 1263              	.LVL83:
 1264              	.LBB578:
 1265              	.LBI572:
 352:libDaisy//src/dev/oled_ssd130x.h ****     {
 1266              		.loc 12 352 10 is_stmt 1 view .LVU271
 352:libDaisy//src/dev/oled_ssd130x.h ****     {
 1267              		.loc 12 352 10 is_stmt 0 view .LVU272
 1268              	.LBE578:
 1269              	.LBE583:
 1270              	.LBE588:
 1271              	.LBE596:
 416:libDaisy//src/hid/disp/display.h ****             {
 1272              		.loc 3 416 13 view .LVU273
 1273 00e6 0133     		adds	r3, r3, #1
 1274              	.LVL84:
 1275              	.LBB597:
 1276              	.LBB589:
 1277              	.LBB584:
 1278              	.LBB579:
 1279              	.LBB575:
 359:libDaisy//src/dev/oled_ssd130x.h ****     }
 1280              		.loc 12 359 42 view .LVU274
 1281 00e8 09EA0505 		and	r5, r9, r5
 1282              	.LBE575:
 1283              	.LBE579:
 1284              	.LBE584:
 1285              	.LBE589:
 1286              	.LBE597:
 416:libDaisy//src/hid/disp/display.h ****             {
 1287              		.loc 3 416 26 view .LVU275
 1288 00ec 0132     		adds	r2, r2, #1
 1289 00ee 0131     		adds	r1, r1, #1
 1290 00f0 9C42     		cmp	r4, r3
 1291              	.LBB598:
 1292              	.LBB590:
 1293              	.LBB585:
 1294              	.LBB580:
 1295              	.LBB576:
 359:libDaisy//src/dev/oled_ssd130x.h ****     }
 1296              		.loc 12 359 42 view .LVU276
ARM GAS  /var/folders/z2/7_lhr9dn53s9tj4s0rwtyswm0000gn/T//ccRFfwbB.s 			page 53


 1297 00f2 02F8015C 		strb	r5, [r2, #-1]
 359:libDaisy//src/dev/oled_ssd130x.h ****     }
 1298              		.loc 12 359 42 view .LVU277
 1299              	.LBE576:
 1300              	.LBE580:
 1301              	.LBE585:
 1302              	.LBE590:
 1303              	.LBE598:
 416:libDaisy//src/hid/disp/display.h ****             {
 1304              		.loc 3 416 13 is_stmt 1 view .LVU278
 1305              	.LVL85:
 416:libDaisy//src/hid/disp/display.h ****             {
 1306              		.loc 3 416 26 view .LVU279
 1307 00f6 EAD1     		bne	.L86
 1308              	.LVL86:
 1309              	.L85:
 413:libDaisy//src/hid/disp/display.h ****         {
 1310              		.loc 3 413 9 view .LVU280
 413:libDaisy//src/hid/disp/display.h ****         {
 1311              		.loc 3 413 22 view .LVU281
 1312 00f8 5845     		cmp	r0, fp
 1313 00fa 0EF1010E 		add	lr, lr, #1
 1314 00fe C0D1     		bne	.L80
 1315              	.LVL87:
 1316              	.L79:
 1317              	.LBB599:
 1318              	.LBB600:
 173:libDaisy//src/hid/disp/display.h ****         currentY_ = (y >= Height()) ? Height() - 1 : y;
 1319              		.loc 3 173 33 is_stmt 0 view .LVU282
 1320 0100 D8F80030 		ldr	r3, [r8]
 1321              	.LBE600:
 1322              	.LBE599:
 434:libDaisy//src/hid/disp/display.h **** 
 1323              		.loc 3 434 18 view .LVU283
 1324 0104 5444     		add	r4, r4, r10
 1325 0106 2449     		ldr	r1, .L110
 1326              	.LBB606:
 1327              	.LBB601:
 173:libDaisy//src/hid/disp/display.h ****         currentY_ = (y >= Height()) ? Height() - 1 : y;
 1328              		.loc 3 173 33 view .LVU284
 1329 0108 DA68     		ldr	r2, [r3, #12]
 1330              	.LBE601:
 1331              	.LBE606:
 434:libDaisy//src/hid/disp/display.h **** 
 1332              		.loc 3 434 18 view .LVU285
 1333 010a A4B2     		uxth	r4, r4
 1334              	.LVL88:
 1335              	.LBB607:
 1336              	.LBI599:
 171:libDaisy//src/hid/disp/display.h ****     {
 1337              		.loc 3 171 10 is_stmt 1 view .LVU286
 1338              	.LBB602:
 173:libDaisy//src/hid/disp/display.h ****         currentY_ = (y >= Height()) ? Height() - 1 : y;
 1339              		.loc 3 173 9 view .LVU287
 1340 010c 8A42     		cmp	r2, r1
 1341 010e 2DD1     		bne	.L105
 173:libDaisy//src/hid/disp/display.h ****         currentY_ = (y >= Height()) ? Height() - 1 : y;
ARM GAS  /var/folders/z2/7_lhr9dn53s9tj4s0rwtyswm0000gn/T//ccRFfwbB.s 			page 54


 1342              		.loc 3 173 33 is_stmt 0 view .LVU288
 1343 0110 8020     		movs	r0, #128
 1344              	.L87:
 173:libDaisy//src/hid/disp/display.h ****         currentY_ = (y >= Height()) ? Height() - 1 : y;
 1345              		.loc 3 173 19 view .LVU289
 1346 0112 8442     		cmp	r4, r0
 1347 0114 1CD2     		bcs	.L106
 1348              	.LVL89:
 1349              	.L88:
 174:libDaisy//src/hid/disp/display.h ****     }
 1350              		.loc 3 174 34 view .LVU290
 1351 0116 9B68     		ldr	r3, [r3, #8]
 1352 0118 204A     		ldr	r2, .L110+4
 173:libDaisy//src/hid/disp/display.h ****         currentY_ = (y >= Height()) ? Height() - 1 : y;
 1353              		.loc 3 173 19 view .LVU291
 1354 011a A8F80440 		strh	r4, [r8, #4]	@ movhi
 174:libDaisy//src/hid/disp/display.h ****     }
 1355              		.loc 3 174 9 is_stmt 1 view .LVU292
 1356 011e 9342     		cmp	r3, r2
 1357 0120 21D1     		bne	.L107
 174:libDaisy//src/hid/disp/display.h ****     }
 1358              		.loc 3 174 34 is_stmt 0 view .LVU293
 1359 0122 4020     		movs	r0, #64
 1360              	.L90:
 174:libDaisy//src/hid/disp/display.h ****     }
 1361              		.loc 3 174 19 view .LVU294
 1362 0124 019B     		ldr	r3, [sp, #4]
 1363 0126 8342     		cmp	r3, r0
 1364 0128 07D3     		bcc	.L91
 174:libDaisy//src/hid/disp/display.h ****     }
 1365              		.loc 3 174 46 view .LVU295
 1366 012a D8F80030 		ldr	r3, [r8]
 1367 012e 1B4A     		ldr	r2, .L110+4
 1368 0130 9B68     		ldr	r3, [r3, #8]
 1369 0132 9342     		cmp	r3, r2
 1370 0134 29D1     		bne	.L108
 1371 0136 3F23     		movs	r3, #63
 1372 0138 0193     		str	r3, [sp, #4]
 1373              	.LVL90:
 1374              	.L91:
 174:libDaisy//src/hid/disp/display.h ****     }
 1375              		.loc 3 174 19 view .LVU296
 1376 013a DDE90003 		ldrd	r0, r3, [sp]
 1377 013e A8F80630 		strh	r3, [r8, #6]	@ movhi
 1378              	.LVL91:
 174:libDaisy//src/hid/disp/display.h ****     }
 1379              		.loc 3 174 19 view .LVU297
 1380              	.LBE602:
 1381              	.LBE607:
 438:libDaisy//src/hid/disp/display.h **** 
 1382              		.loc 3 438 5 view .LVU298
 1383 0142 05B0     		add	sp, sp, #20
 1384              		.cfi_remember_state
 1385              		.cfi_def_cfa_offset 36
 1386              		@ sp needed
 1387 0144 BDE8F08F 		pop	{r4, r5, r6, r7, r8, r9, r10, fp, pc}
 1388              	.LVL92:
ARM GAS  /var/folders/z2/7_lhr9dn53s9tj4s0rwtyswm0000gn/T//ccRFfwbB.s 			page 55


 1389              	.L75:
 1390              		.cfi_restore_state
 402:libDaisy//src/hid/disp/display.h **** 
 1391              		.loc 3 402 20 view .LVU299
 1392 0148 0020     		movs	r0, #0
 438:libDaisy//src/hid/disp/display.h **** 
 1393              		.loc 3 438 5 view .LVU300
 1394 014a 05B0     		add	sp, sp, #20
 1395              		.cfi_remember_state
 1396              		.cfi_def_cfa_offset 36
 1397              		@ sp needed
 1398 014c BDE8F08F 		pop	{r4, r5, r6, r7, r8, r9, r10, fp, pc}
 1399              	.LVL93:
 1400              	.L106:
 1401              		.cfi_restore_state
 1402              	.LBB608:
 1403              	.LBB603:
 173:libDaisy//src/hid/disp/display.h ****         currentY_ = (y >= Height()) ? Height() - 1 : y;
 1404              		.loc 3 173 44 view .LVU301
 1405 0150 DA68     		ldr	r2, [r3, #12]
 1406 0152 1149     		ldr	r1, .L110
 1407 0154 8A42     		cmp	r2, r1
 1408 0156 11D1     		bne	.L109
 1409 0158 7F24     		movs	r4, #127
 1410              	.LVL94:
 173:libDaisy//src/hid/disp/display.h ****         currentY_ = (y >= Height()) ? Height() - 1 : y;
 1411              		.loc 3 173 44 view .LVU302
 1412 015a DCE7     		b	.L88
 1413              	.LVL95:
 1414              	.L102:
 173:libDaisy//src/hid/disp/display.h ****         currentY_ = (y >= Height()) ? Height() - 1 : y;
 1415              		.loc 3 173 44 view .LVU303
 1416              	.LBE603:
 1417              	.LBE608:
 405:libDaisy//src/hid/disp/display.h ****            || Height() < (currentY_ + font.FontHeight))
 1418              		.loc 3 405 17 view .LVU304
 1419 015c 9847     		blx	r3
 1420              	.LVL96:
 405:libDaisy//src/hid/disp/display.h ****            || Height() < (currentY_ + font.FontHeight))
 1421              		.loc 3 405 17 view .LVU305
 1422 015e 6AE7     		b	.L74
 1423              	.L103:
 406:libDaisy//src/hid/disp/display.h ****         {
 1424              		.loc 3 406 21 discriminator 2 view .LVU306
 1425 0160 4046     		mov	r0, r8
 1426 0162 9847     		blx	r3
 1427              	.LVL97:
 1428 0164 75E7     		b	.L76
 1429              	.LVL98:
 1430              	.L107:
 1431              	.LBB609:
 1432              	.LBB604:
 174:libDaisy//src/hid/disp/display.h ****     }
 1433              		.loc 3 174 33 view .LVU307
 1434 0166 4046     		mov	r0, r8
 1435 0168 9847     		blx	r3
 1436              	.LVL99:
ARM GAS  /var/folders/z2/7_lhr9dn53s9tj4s0rwtyswm0000gn/T//ccRFfwbB.s 			page 56


 1437 016a DBE7     		b	.L90
 1438              	.LVL100:
 1439              	.L105:
 173:libDaisy//src/hid/disp/display.h ****         currentY_ = (y >= Height()) ? Height() - 1 : y;
 1440              		.loc 3 173 32 view .LVU308
 1441 016c 4046     		mov	r0, r8
 1442 016e 9047     		blx	r2
 1443              	.LVL101:
 173:libDaisy//src/hid/disp/display.h ****         currentY_ = (y >= Height()) ? Height() - 1 : y;
 1444              		.loc 3 173 44 view .LVU309
 1445 0170 D8F80030 		ldr	r3, [r8]
 1446 0174 CDE7     		b	.L87
 1447              	.LVL102:
 1448              	.L77:
 173:libDaisy//src/hid/disp/display.h ****         currentY_ = (y >= Height()) ? Height() - 1 : y;
 1449              		.loc 3 173 44 view .LVU310
 1450              	.LBE604:
 1451              	.LBE609:
 434:libDaisy//src/hid/disp/display.h **** 
 1452              		.loc 3 434 19 view .LVU311
 1453 0176 B8F804A0 		ldrh	r10, [r8, #4]
 1454 017a C1E7     		b	.L79
 1455              	.LVL103:
 1456              	.L109:
 1457              	.LBB610:
 1458              	.LBB605:
 173:libDaisy//src/hid/disp/display.h ****         currentY_ = (y >= Height()) ? Height() - 1 : y;
 1459              		.loc 3 173 43 view .LVU312
 1460 017c 4046     		mov	r0, r8
 1461 017e 9047     		blx	r2
 1462              	.LVL104:
 173:libDaisy//src/hid/disp/display.h ****         currentY_ = (y >= Height()) ? Height() - 1 : y;
 1463              		.loc 3 173 19 view .LVU313
 1464 0180 0138     		subs	r0, r0, #1
 174:libDaisy//src/hid/disp/display.h ****     }
 1465              		.loc 3 174 34 view .LVU314
 1466 0182 D8F80030 		ldr	r3, [r8]
 173:libDaisy//src/hid/disp/display.h ****         currentY_ = (y >= Height()) ? Height() - 1 : y;
 1467              		.loc 3 173 19 view .LVU315
 1468 0186 84B2     		uxth	r4, r0
 1469              	.LVL105:
 173:libDaisy//src/hid/disp/display.h ****         currentY_ = (y >= Height()) ? Height() - 1 : y;
 1470              		.loc 3 173 19 view .LVU316
 1471 0188 C5E7     		b	.L88
 1472              	.L108:
 174:libDaisy//src/hid/disp/display.h ****     }
 1473              		.loc 3 174 45 view .LVU317
 1474 018a 4046     		mov	r0, r8
 1475 018c 9847     		blx	r3
 1476              	.LVL106:
 174:libDaisy//src/hid/disp/display.h ****     }
 1477              		.loc 3 174 19 view .LVU318
 1478 018e 0138     		subs	r0, r0, #1
 1479 0190 83B2     		uxth	r3, r0
 1480 0192 0193     		str	r3, [sp, #4]
 1481              	.LVL107:
 174:libDaisy//src/hid/disp/display.h ****     }
ARM GAS  /var/folders/z2/7_lhr9dn53s9tj4s0rwtyswm0000gn/T//ccRFfwbB.s 			page 57


 1482              		.loc 3 174 19 view .LVU319
 1483 0194 D1E7     		b	.L91
 1484              	.L111:
 1485 0196 00BF     		.align	2
 1486              	.L110:
 1487 0198 00000000 		.word	_ZNK5daisy11OledDisplayINS_13SSD130xDriverILj128ELj64ENS_24SSD130x4WireSpiTransportEEEE5Widt
 1488 019c 00000000 		.word	_ZNK5daisy11OledDisplayINS_13SSD130xDriverILj128ELj64ENS_24SSD130x4WireSpiTransportEEEE6Heig
 1489              	.LBE605:
 1490              	.LBE610:
 1491              		.cfi_endproc
 1492              	.LFE5451:
 1494              		.section	.text._ZN5daisy25OneBitGraphicsDisplayImplINS_11OledDisplayINS_13SSD130xDriverILj128ELj64
 1495              		.align	1
 1496              		.p2align 2,,3
 1497              		.weak	_ZN5daisy25OneBitGraphicsDisplayImplINS_11OledDisplayINS_13SSD130xDriverILj128ELj64ENS_24SSD
 1498              		.syntax unified
 1499              		.thumb
 1500              		.thumb_func
 1502              	_ZN5daisy25OneBitGraphicsDisplayImplINS_11OledDisplayINS_13SSD130xDriverILj128ELj64ENS_24SSD130x4Wi
 1503              	.LVL108:
 1504              	.LFB5453:
 459:libDaisy//src/hid/disp/display.h **** 
 460:libDaisy//src/hid/disp/display.h ****     Rectangle WriteStringAligned(const char*    str,
 1505              		.loc 3 460 15 is_stmt 1 view -0
 1506              		.cfi_startproc
 1507              		@ args = 12, pretend = 0, frame = 32
 1508              		@ frame_needed = 0, uses_anonymous_args = 0
 1509              		.loc 3 460 15 is_stmt 0 view .LVU321
 1510 0000 2DE9F04F 		push	{r4, r5, r6, r7, r8, r9, r10, fp, lr}
 1511              		.cfi_def_cfa_offset 36
 1512              		.cfi_offset 4, -36
 1513              		.cfi_offset 5, -32
 1514              		.cfi_offset 6, -28
 1515              		.cfi_offset 7, -24
 1516              		.cfi_offset 8, -20
 1517              		.cfi_offset 9, -16
 1518              		.cfi_offset 10, -12
 1519              		.cfi_offset 11, -8
 1520              		.cfi_offset 14, -4
 1521 0004 89B0     		sub	sp, sp, #36
 1522              		.cfi_def_cfa_offset 72
 1523              		.loc 3 460 15 view .LVU322
 1524 0006 1D46     		mov	r5, r3
 1525 0008 8846     		mov	r8, r1
 1526              	.LVL109:
 1527              	.LBB749:
 1528              	.LBI749:
 461:libDaisy//src/hid/disp/display.h ****                                  const FontDef& font,
 462:libDaisy//src/hid/disp/display.h ****                                  Rectangle      boundingBox,
 463:libDaisy//src/hid/disp/display.h ****                                  Alignment      alignment,
 464:libDaisy//src/hid/disp/display.h ****                                  bool           on) override
 465:libDaisy//src/hid/disp/display.h ****     {
 466:libDaisy//src/hid/disp/display.h ****         const auto alignedRect
 467:libDaisy//src/hid/disp/display.h ****             = GetTextRect(str, font).AlignedWithin(boundingBox, alignment);
 468:libDaisy//src/hid/disp/display.h ****         SetCursor(alignedRect.GetX(), alignedRect.GetY());
 469:libDaisy//src/hid/disp/display.h ****         ((ChildType*)(this))->ChildType::WriteString(str, font, on);
 470:libDaisy//src/hid/disp/display.h ****         return alignedRect;
ARM GAS  /var/folders/z2/7_lhr9dn53s9tj4s0rwtyswm0000gn/T//ccRFfwbB.s 			page 58


 471:libDaisy//src/hid/disp/display.h ****     }
 472:libDaisy//src/hid/disp/display.h **** 
 473:libDaisy//src/hid/disp/display.h ****   private:
 474:libDaisy//src/hid/disp/display.h ****     uint32_t strlen(const char* string)
 475:libDaisy//src/hid/disp/display.h ****     {
 476:libDaisy//src/hid/disp/display.h ****         uint32_t result = 0;
 477:libDaisy//src/hid/disp/display.h ****         while(*string++ != '\0')
 478:libDaisy//src/hid/disp/display.h ****             result++;
 479:libDaisy//src/hid/disp/display.h ****         return result;
 480:libDaisy//src/hid/disp/display.h ****     }
 481:libDaisy//src/hid/disp/display.h **** 
 482:libDaisy//src/hid/disp/display.h ****     Rectangle GetTextRect(const char* text, const FontDef& font)
 1529              		.loc 3 482 15 is_stmt 1 view .LVU323
 1530              	.LBB750:
 1531              	.LBB751:
 1532              	.LBI751:
 474:libDaisy//src/hid/disp/display.h ****     {
 1533              		.loc 3 474 14 view .LVU324
 1534              	.LBB752:
 477:libDaisy//src/hid/disp/display.h ****             result++;
 1535              		.loc 3 477 25 view .LVU325
 1536              	.LBE752:
 1537              	.LBE751:
 1538              	.LBE750:
 1539              	.LBE749:
 460:libDaisy//src/hid/disp/display.h ****                                  const FontDef& font,
 1540              		.loc 3 460 15 is_stmt 0 view .LVU326
 1541 000a 0690     		str	r0, [sp, #24]
 1542              	.LBB767:
 1543              	.LBB763:
 1544              	.LBB756:
 1545              	.LBB753:
 477:libDaisy//src/hid/disp/display.h ****             result++;
 1546              		.loc 3 477 25 view .LVU327
 1547 000c 1046     		mov	r0, r2
 1548              	.LVL110:
 477:libDaisy//src/hid/disp/display.h ****             result++;
 1549              		.loc 3 477 25 view .LVU328
 1550              	.LBE753:
 1551              	.LBE756:
 1552              	.LBE763:
 1553              	.LBE767:
 460:libDaisy//src/hid/disp/display.h ****                                  const FontDef& font,
 1554              		.loc 3 460 15 view .LVU329
 1555 000e 129C     		ldr	r4, [sp, #72]
 1556              	.LBB768:
 1557              	.LBB764:
 1558              	.LBB757:
 1559              	.LBB754:
 477:libDaisy//src/hid/disp/display.h ****             result++;
 1560              		.loc 3 477 25 view .LVU330
 1561 0010 10F8013B 		ldrb	r3, [r0], #1	@ zero_extendqisi2
 1562              	.LVL111:
 477:libDaisy//src/hid/disp/display.h ****             result++;
 1563              		.loc 3 477 25 view .LVU331
 1564              	.LBE754:
 1565              	.LBE757:
ARM GAS  /var/folders/z2/7_lhr9dn53s9tj4s0rwtyswm0000gn/T//ccRFfwbB.s 			page 59


 1566              	.LBE764:
 1567              	.LBE768:
 460:libDaisy//src/hid/disp/display.h ****                                  const FontDef& font,
 1568              		.loc 3 460 15 view .LVU332
 1569 0014 1399     		ldr	r1, [sp, #76]
 1570              	.LVL112:
 460:libDaisy//src/hid/disp/display.h ****                                  const FontDef& font,
 1571              		.loc 3 460 15 view .LVU333
 1572 0016 9DF85060 		ldrb	r6, [sp, #80]	@ zero_extendqisi2
 1573 001a 0092     		str	r2, [sp]
 1574              	.LBB769:
 1575              	.LBB765:
 1576              	.LBB758:
 1577              	.LBB755:
 477:libDaisy//src/hid/disp/display.h ****             result++;
 1578              		.loc 3 477 25 view .LVU334
 1579 001c 33B1     		cbz	r3, .L113
 476:libDaisy//src/hid/disp/display.h ****         while(*string++ != '\0')
 1580              		.loc 3 476 18 view .LVU335
 1581 001e 0022     		movs	r2, #0
 1582              	.LVL113:
 1583              	.L114:
 477:libDaisy//src/hid/disp/display.h ****             result++;
 1584              		.loc 3 477 25 view .LVU336
 1585 0020 10F8013B 		ldrb	r3, [r0], #1	@ zero_extendqisi2
 1586              	.LVL114:
 478:libDaisy//src/hid/disp/display.h ****         return result;
 1587              		.loc 3 478 13 view .LVU337
 1588 0024 0132     		adds	r2, r2, #1
 1589              	.LVL115:
 477:libDaisy//src/hid/disp/display.h ****             result++;
 1590              		.loc 3 477 25 is_stmt 1 view .LVU338
 1591 0026 002B     		cmp	r3, #0
 1592 0028 FAD1     		bne	.L114
 1593              	.LBE755:
 1594              	.LBE758:
 483:libDaisy//src/hid/disp/display.h ****     {
 484:libDaisy//src/hid/disp/display.h ****         const auto numChars = strlen(text);
 485:libDaisy//src/hid/disp/display.h ****         return {int16_t(numChars * font.FontWidth), font.FontHeight};
 1595              		.loc 3 485 68 is_stmt 0 view .LVU339
 1596 002a 93B2     		uxth	r3, r2
 1597              	.LVL116:
 1598              	.L113:
 1599              		.loc 3 485 68 view .LVU340
 1600 002c 2A78     		ldrb	r2, [r5]	@ zero_extendqisi2
 1601              		.loc 3 485 58 view .LVU341
 1602 002e 6878     		ldrb	r0, [r5, #1]	@ zero_extendqisi2
 1603              		.loc 3 485 68 view .LVU342
 1604 0030 12FB03F3 		smulbb	r3, r2, r3
 1605 0034 02B2     		sxth	r2, r0
 1606              	.LVL117:
 1607              	.LBB759:
 1608              	.LBI759:
 1609              		.file 14 "libDaisy//src/hid/disp/graphics_common.h"
   1:libDaisy//src/hid/disp/graphics_common.h **** #pragma once
   2:libDaisy//src/hid/disp/graphics_common.h **** 
   3:libDaisy//src/hid/disp/graphics_common.h **** #include <cstdint>
ARM GAS  /var/folders/z2/7_lhr9dn53s9tj4s0rwtyswm0000gn/T//ccRFfwbB.s 			page 60


   4:libDaisy//src/hid/disp/graphics_common.h **** 
   5:libDaisy//src/hid/disp/graphics_common.h **** namespace daisy
   6:libDaisy//src/hid/disp/graphics_common.h **** {
   7:libDaisy//src/hid/disp/graphics_common.h **** /** Justifications */
   8:libDaisy//src/hid/disp/graphics_common.h **** enum class Alignment
   9:libDaisy//src/hid/disp/graphics_common.h **** {
  10:libDaisy//src/hid/disp/graphics_common.h ****     centered,
  11:libDaisy//src/hid/disp/graphics_common.h ****     topLeft,
  12:libDaisy//src/hid/disp/graphics_common.h ****     topCentered,
  13:libDaisy//src/hid/disp/graphics_common.h ****     topRight,
  14:libDaisy//src/hid/disp/graphics_common.h ****     bottomLeft,
  15:libDaisy//src/hid/disp/graphics_common.h ****     bottomCentered,
  16:libDaisy//src/hid/disp/graphics_common.h ****     bottomRight,
  17:libDaisy//src/hid/disp/graphics_common.h ****     centeredLeft,
  18:libDaisy//src/hid/disp/graphics_common.h ****     centeredRight
  19:libDaisy//src/hid/disp/graphics_common.h **** };
  20:libDaisy//src/hid/disp/graphics_common.h **** 
  21:libDaisy//src/hid/disp/graphics_common.h **** class Rectangle
  22:libDaisy//src/hid/disp/graphics_common.h **** {
  23:libDaisy//src/hid/disp/graphics_common.h ****   public:
  24:libDaisy//src/hid/disp/graphics_common.h ****     Rectangle() : x_(0), y_(0), width_(0), height_(0) {}
  25:libDaisy//src/hid/disp/graphics_common.h **** 
  26:libDaisy//src/hid/disp/graphics_common.h ****     Rectangle(int16_t width, int16_t height)
 1610              		.loc 14 26 5 is_stmt 1 view .LVU343
 1611              	.LBB760:
 1612              	.LBI760:
  27:libDaisy//src/hid/disp/graphics_common.h ****     : x_(0), y_(0), width_(max(0, width)), height_(max(0, height))
  28:libDaisy//src/hid/disp/graphics_common.h ****     {
  29:libDaisy//src/hid/disp/graphics_common.h ****     }
  30:libDaisy//src/hid/disp/graphics_common.h **** 
  31:libDaisy//src/hid/disp/graphics_common.h ****     Rectangle(int16_t x, int16_t y, int16_t width, int16_t height)
  32:libDaisy//src/hid/disp/graphics_common.h ****     : x_(x), y_(y), width_(max(0, width)), height_(max(0, height))
  33:libDaisy//src/hid/disp/graphics_common.h ****     {
  34:libDaisy//src/hid/disp/graphics_common.h ****     }
  35:libDaisy//src/hid/disp/graphics_common.h **** 
  36:libDaisy//src/hid/disp/graphics_common.h ****     Rectangle(const Rectangle& other) { *this = other; }
  37:libDaisy//src/hid/disp/graphics_common.h **** 
  38:libDaisy//src/hid/disp/graphics_common.h ****     Rectangle& operator=(const Rectangle& other)
  39:libDaisy//src/hid/disp/graphics_common.h ****     {
  40:libDaisy//src/hid/disp/graphics_common.h ****         x_      = other.x_;
  41:libDaisy//src/hid/disp/graphics_common.h ****         y_      = other.y_;
  42:libDaisy//src/hid/disp/graphics_common.h ****         width_  = other.width_;
  43:libDaisy//src/hid/disp/graphics_common.h ****         height_ = other.height_;
  44:libDaisy//src/hid/disp/graphics_common.h ****         return *this;
  45:libDaisy//src/hid/disp/graphics_common.h ****     }
  46:libDaisy//src/hid/disp/graphics_common.h **** 
  47:libDaisy//src/hid/disp/graphics_common.h ****     bool operator==(const Rectangle& other) const
  48:libDaisy//src/hid/disp/graphics_common.h ****     {
  49:libDaisy//src/hid/disp/graphics_common.h ****         return (x_ == other.x_) && (y_ == other.y_) && (width_ == other.width_)
  50:libDaisy//src/hid/disp/graphics_common.h ****                && (height_ == other.height_);
  51:libDaisy//src/hid/disp/graphics_common.h ****     }
  52:libDaisy//src/hid/disp/graphics_common.h ****     bool operator!=(const Rectangle& other) const { return !(*this == other); }
  53:libDaisy//src/hid/disp/graphics_common.h **** 
  54:libDaisy//src/hid/disp/graphics_common.h ****     bool IsEmpty() const { return (width_ <= 0) || (height_ <= 0); }
  55:libDaisy//src/hid/disp/graphics_common.h **** 
  56:libDaisy//src/hid/disp/graphics_common.h ****     int16_t GetX() const { return x_; }
  57:libDaisy//src/hid/disp/graphics_common.h ****     int16_t GetY() const { return y_; }
ARM GAS  /var/folders/z2/7_lhr9dn53s9tj4s0rwtyswm0000gn/T//ccRFfwbB.s 			page 61


  58:libDaisy//src/hid/disp/graphics_common.h ****     int16_t GetWidth() const { return width_; }
  59:libDaisy//src/hid/disp/graphics_common.h ****     int16_t GetHeight() const { return height_; }
  60:libDaisy//src/hid/disp/graphics_common.h ****     int16_t GetRight() const { return x_ + width_; }
  61:libDaisy//src/hid/disp/graphics_common.h ****     int16_t GetBottom() const { return y_ + height_; }
  62:libDaisy//src/hid/disp/graphics_common.h ****     int16_t GetCenterX() const { return x_ + width_ / 2; }
  63:libDaisy//src/hid/disp/graphics_common.h ****     int16_t GetCenterY() const { return y_ + height_ / 2; }
  64:libDaisy//src/hid/disp/graphics_common.h **** 
  65:libDaisy//src/hid/disp/graphics_common.h ****     Rectangle WithX(int16_t x) const { return {x, y_, width_, height_}; }
  66:libDaisy//src/hid/disp/graphics_common.h ****     Rectangle WithY(int16_t y) const { return {x_, y, width_, height_}; }
  67:libDaisy//src/hid/disp/graphics_common.h ****     Rectangle WithWidth(int16_t width) const
  68:libDaisy//src/hid/disp/graphics_common.h ****     {
  69:libDaisy//src/hid/disp/graphics_common.h ****         return {x_, y_, width, height_};
  70:libDaisy//src/hid/disp/graphics_common.h ****     }
  71:libDaisy//src/hid/disp/graphics_common.h ****     Rectangle WithHeight(int16_t height) const
  72:libDaisy//src/hid/disp/graphics_common.h ****     {
  73:libDaisy//src/hid/disp/graphics_common.h ****         return {x_, y_, width_, height};
  74:libDaisy//src/hid/disp/graphics_common.h ****     }
  75:libDaisy//src/hid/disp/graphics_common.h ****     Rectangle WithSize(int16_t width, int16_t height) const
  76:libDaisy//src/hid/disp/graphics_common.h ****     {
  77:libDaisy//src/hid/disp/graphics_common.h ****         return {x_, y_, width, height};
  78:libDaisy//src/hid/disp/graphics_common.h ****     }
  79:libDaisy//src/hid/disp/graphics_common.h ****     Rectangle WithWidthKeepingCenter(int16_t width) const
  80:libDaisy//src/hid/disp/graphics_common.h ****     {
  81:libDaisy//src/hid/disp/graphics_common.h ****         return Rectangle(x_, y_, width, height_)
  82:libDaisy//src/hid/disp/graphics_common.h ****             .WithCenter(GetCenterX(), GetCenterY());
  83:libDaisy//src/hid/disp/graphics_common.h ****     }
  84:libDaisy//src/hid/disp/graphics_common.h ****     Rectangle WithHeightKeepingCenter(int16_t height) const
  85:libDaisy//src/hid/disp/graphics_common.h ****     {
  86:libDaisy//src/hid/disp/graphics_common.h ****         return Rectangle(x_, y_, width_, height)
  87:libDaisy//src/hid/disp/graphics_common.h ****             .WithCenter(GetCenterX(), GetCenterY());
  88:libDaisy//src/hid/disp/graphics_common.h ****     }
  89:libDaisy//src/hid/disp/graphics_common.h ****     Rectangle WithSizeKeepingCenter(int16_t width, int16_t height) const
  90:libDaisy//src/hid/disp/graphics_common.h ****     {
  91:libDaisy//src/hid/disp/graphics_common.h ****         return Rectangle(x_, y_, width, height)
  92:libDaisy//src/hid/disp/graphics_common.h ****             .WithCenter(GetCenterX(), GetCenterY());
  93:libDaisy//src/hid/disp/graphics_common.h ****     }
  94:libDaisy//src/hid/disp/graphics_common.h **** 
  95:libDaisy//src/hid/disp/graphics_common.h ****     Rectangle Reduced(int16_t sizeToReduce) const
  96:libDaisy//src/hid/disp/graphics_common.h ****     {
  97:libDaisy//src/hid/disp/graphics_common.h ****         return {int16_t(x_ + sizeToReduce),
  98:libDaisy//src/hid/disp/graphics_common.h ****                 int16_t(y_ + sizeToReduce),
  99:libDaisy//src/hid/disp/graphics_common.h ****                 int16_t(width_ - 2 * sizeToReduce),
 100:libDaisy//src/hid/disp/graphics_common.h ****                 int16_t(height_ - 2 * sizeToReduce)};
 101:libDaisy//src/hid/disp/graphics_common.h ****     }
 102:libDaisy//src/hid/disp/graphics_common.h ****     Rectangle Reduced(int16_t xToReduce, int16_t yToReduce) const
 103:libDaisy//src/hid/disp/graphics_common.h ****     {
 104:libDaisy//src/hid/disp/graphics_common.h ****         return {int16_t(x_ + xToReduce),
 105:libDaisy//src/hid/disp/graphics_common.h ****                 int16_t(y_ + yToReduce),
 106:libDaisy//src/hid/disp/graphics_common.h ****                 int16_t(width_ - 2 * xToReduce),
 107:libDaisy//src/hid/disp/graphics_common.h ****                 int16_t(height_ - 2 * yToReduce)};
 108:libDaisy//src/hid/disp/graphics_common.h ****     }
 109:libDaisy//src/hid/disp/graphics_common.h **** 
 110:libDaisy//src/hid/disp/graphics_common.h ****     Rectangle Translated(int16_t x, int16_t y) const
 111:libDaisy//src/hid/disp/graphics_common.h ****     {
 112:libDaisy//src/hid/disp/graphics_common.h ****         return {int16_t(x_ + x), int16_t(y_ + y), width_, height_};
 113:libDaisy//src/hid/disp/graphics_common.h ****     }
 114:libDaisy//src/hid/disp/graphics_common.h **** 
ARM GAS  /var/folders/z2/7_lhr9dn53s9tj4s0rwtyswm0000gn/T//ccRFfwbB.s 			page 62


 115:libDaisy//src/hid/disp/graphics_common.h ****     Rectangle WithLeft(int16_t left) const
 116:libDaisy//src/hid/disp/graphics_common.h ****     {
 117:libDaisy//src/hid/disp/graphics_common.h ****         const auto newWidth = int16_t((x_ - left) + width_);
 118:libDaisy//src/hid/disp/graphics_common.h ****         return {left, y_, newWidth, height_};
 119:libDaisy//src/hid/disp/graphics_common.h ****     }
 120:libDaisy//src/hid/disp/graphics_common.h **** 
 121:libDaisy//src/hid/disp/graphics_common.h ****     Rectangle WithRight(int16_t right) const
 122:libDaisy//src/hid/disp/graphics_common.h ****     {
 123:libDaisy//src/hid/disp/graphics_common.h ****         const auto newWidth = int16_t(right - x_);
 124:libDaisy//src/hid/disp/graphics_common.h ****         return {x_, y_, newWidth, height_};
 125:libDaisy//src/hid/disp/graphics_common.h ****     }
 126:libDaisy//src/hid/disp/graphics_common.h **** 
 127:libDaisy//src/hid/disp/graphics_common.h ****     Rectangle WithTop(int16_t top) const
 128:libDaisy//src/hid/disp/graphics_common.h ****     {
 129:libDaisy//src/hid/disp/graphics_common.h ****         const auto newHeight = int16_t((y_ - top) + height_);
 130:libDaisy//src/hid/disp/graphics_common.h ****         return {x_, top, width_, newHeight};
 131:libDaisy//src/hid/disp/graphics_common.h ****     }
 132:libDaisy//src/hid/disp/graphics_common.h **** 
 133:libDaisy//src/hid/disp/graphics_common.h ****     Rectangle WithBottom(int16_t bottom) const
 134:libDaisy//src/hid/disp/graphics_common.h ****     {
 135:libDaisy//src/hid/disp/graphics_common.h ****         const auto newHeight = int16_t(bottom - y_);
 136:libDaisy//src/hid/disp/graphics_common.h ****         return {x_, y_, width_, newHeight};
 137:libDaisy//src/hid/disp/graphics_common.h ****     }
 138:libDaisy//src/hid/disp/graphics_common.h **** 
 139:libDaisy//src/hid/disp/graphics_common.h ****     Rectangle WithTrimmedLeft(int16_t pxToTrim) const
 140:libDaisy//src/hid/disp/graphics_common.h ****     {
 141:libDaisy//src/hid/disp/graphics_common.h ****         return {
 142:libDaisy//src/hid/disp/graphics_common.h ****             int16_t(x_ + pxToTrim), y_, int16_t(width_ - pxToTrim), height_};
 143:libDaisy//src/hid/disp/graphics_common.h ****     }
 144:libDaisy//src/hid/disp/graphics_common.h **** 
 145:libDaisy//src/hid/disp/graphics_common.h ****     Rectangle WithTrimmedRight(int16_t pxToTrim) const
 146:libDaisy//src/hid/disp/graphics_common.h ****     {
 147:libDaisy//src/hid/disp/graphics_common.h ****         return {x_, y_, int16_t(width_ - pxToTrim), height_};
 148:libDaisy//src/hid/disp/graphics_common.h ****     }
 149:libDaisy//src/hid/disp/graphics_common.h **** 
 150:libDaisy//src/hid/disp/graphics_common.h ****     Rectangle WithTrimmedTop(int16_t pxToTrim) const
 151:libDaisy//src/hid/disp/graphics_common.h ****     {
 152:libDaisy//src/hid/disp/graphics_common.h ****         return {
 153:libDaisy//src/hid/disp/graphics_common.h ****             x_, int16_t(y_ + pxToTrim), width_, int16_t(height_ - pxToTrim)};
 154:libDaisy//src/hid/disp/graphics_common.h ****     }
 155:libDaisy//src/hid/disp/graphics_common.h **** 
 156:libDaisy//src/hid/disp/graphics_common.h ****     Rectangle WithTrimmedBottom(int16_t pxToTrim) const
 157:libDaisy//src/hid/disp/graphics_common.h ****     {
 158:libDaisy//src/hid/disp/graphics_common.h ****         return {x_, y_, width_, int16_t(height_ - pxToTrim)};
 159:libDaisy//src/hid/disp/graphics_common.h ****     }
 160:libDaisy//src/hid/disp/graphics_common.h **** 
 161:libDaisy//src/hid/disp/graphics_common.h ****     Rectangle WithCenterX(int16_t centerX) const
 162:libDaisy//src/hid/disp/graphics_common.h ****     {
 163:libDaisy//src/hid/disp/graphics_common.h ****         return {int16_t(x_ + centerX - GetCenterX()), y_, width_, height_};
 164:libDaisy//src/hid/disp/graphics_common.h ****     }
 165:libDaisy//src/hid/disp/graphics_common.h **** 
 166:libDaisy//src/hid/disp/graphics_common.h ****     Rectangle WithCenterY(int16_t centerY) const
 167:libDaisy//src/hid/disp/graphics_common.h ****     {
 168:libDaisy//src/hid/disp/graphics_common.h ****         return {x_, int16_t(y_ + centerY - GetCenterY()), width_, height_};
 169:libDaisy//src/hid/disp/graphics_common.h ****     }
 170:libDaisy//src/hid/disp/graphics_common.h **** 
 171:libDaisy//src/hid/disp/graphics_common.h ****     Rectangle WithCenter(int16_t centerX, int16_t centerY) const
ARM GAS  /var/folders/z2/7_lhr9dn53s9tj4s0rwtyswm0000gn/T//ccRFfwbB.s 			page 63


 172:libDaisy//src/hid/disp/graphics_common.h ****     {
 173:libDaisy//src/hid/disp/graphics_common.h ****         return {int16_t(x_ + centerX - GetCenterX()),
 174:libDaisy//src/hid/disp/graphics_common.h ****                 int16_t(y_ + centerY - GetCenterY()),
 175:libDaisy//src/hid/disp/graphics_common.h ****                 width_,
 176:libDaisy//src/hid/disp/graphics_common.h ****                 height_};
 177:libDaisy//src/hid/disp/graphics_common.h ****     }
 178:libDaisy//src/hid/disp/graphics_common.h **** 
 179:libDaisy//src/hid/disp/graphics_common.h ****     Rectangle RemoveFromLeft(int16_t pxToRemove)
 180:libDaisy//src/hid/disp/graphics_common.h ****     {
 181:libDaisy//src/hid/disp/graphics_common.h ****         const auto result = this->WithWidth(min(pxToRemove, width_));
 182:libDaisy//src/hid/disp/graphics_common.h ****         x_ += min(pxToRemove, width_);
 183:libDaisy//src/hid/disp/graphics_common.h ****         width_ = max(int16_t(width_ - pxToRemove), 0);
 184:libDaisy//src/hid/disp/graphics_common.h ****         return result;
 185:libDaisy//src/hid/disp/graphics_common.h ****     }
 186:libDaisy//src/hid/disp/graphics_common.h **** 
 187:libDaisy//src/hid/disp/graphics_common.h ****     Rectangle RemoveFromRight(int16_t pxToRemove)
 188:libDaisy//src/hid/disp/graphics_common.h ****     {
 189:libDaisy//src/hid/disp/graphics_common.h ****         const auto canRemove = min(pxToRemove, width_);
 190:libDaisy//src/hid/disp/graphics_common.h ****         width_ -= canRemove;
 191:libDaisy//src/hid/disp/graphics_common.h ****         return {int16_t(x_ + width_), y_, canRemove, height_};
 192:libDaisy//src/hid/disp/graphics_common.h ****     }
 193:libDaisy//src/hid/disp/graphics_common.h **** 
 194:libDaisy//src/hid/disp/graphics_common.h ****     Rectangle RemoveFromTop(int16_t pxToRemove)
 195:libDaisy//src/hid/disp/graphics_common.h ****     {
 196:libDaisy//src/hid/disp/graphics_common.h ****         const auto result = this->WithHeight(min(pxToRemove, height_));
 197:libDaisy//src/hid/disp/graphics_common.h ****         y_ += min(pxToRemove, height_);
 198:libDaisy//src/hid/disp/graphics_common.h ****         height_ = max(height_ - pxToRemove, 0);
 199:libDaisy//src/hid/disp/graphics_common.h ****         return result;
 200:libDaisy//src/hid/disp/graphics_common.h ****     }
 201:libDaisy//src/hid/disp/graphics_common.h **** 
 202:libDaisy//src/hid/disp/graphics_common.h ****     Rectangle RemoveFromBottom(int16_t pxToRemove)
 203:libDaisy//src/hid/disp/graphics_common.h ****     {
 204:libDaisy//src/hid/disp/graphics_common.h ****         const auto canRemove = min(pxToRemove, height_);
 205:libDaisy//src/hid/disp/graphics_common.h ****         height_ -= canRemove;
 206:libDaisy//src/hid/disp/graphics_common.h ****         return {x_, int16_t(y_ + height_), width_, canRemove};
 207:libDaisy//src/hid/disp/graphics_common.h ****     }
 208:libDaisy//src/hid/disp/graphics_common.h **** 
 209:libDaisy//src/hid/disp/graphics_common.h ****     Rectangle AlignedWithin(const Rectangle& other, Alignment alignment) const
 210:libDaisy//src/hid/disp/graphics_common.h ****     {
 211:libDaisy//src/hid/disp/graphics_common.h ****         switch(alignment)
 212:libDaisy//src/hid/disp/graphics_common.h ****         {
 213:libDaisy//src/hid/disp/graphics_common.h ****             case Alignment::topLeft:
 214:libDaisy//src/hid/disp/graphics_common.h ****                 return {other.x_, other.y_, width_, height_};
 215:libDaisy//src/hid/disp/graphics_common.h ****             case Alignment::topRight:
 216:libDaisy//src/hid/disp/graphics_common.h ****                 return {int16_t(other.GetRight() - width_),
 217:libDaisy//src/hid/disp/graphics_common.h ****                         other.y_,
 218:libDaisy//src/hid/disp/graphics_common.h ****                         width_,
 219:libDaisy//src/hid/disp/graphics_common.h ****                         height_};
 220:libDaisy//src/hid/disp/graphics_common.h ****             case Alignment::topCentered:
 221:libDaisy//src/hid/disp/graphics_common.h ****                 return {int16_t(x_ + (other.GetCenterX() - GetCenterX())),
 222:libDaisy//src/hid/disp/graphics_common.h ****                         other.y_,
 223:libDaisy//src/hid/disp/graphics_common.h ****                         width_,
 224:libDaisy//src/hid/disp/graphics_common.h ****                         height_};
 225:libDaisy//src/hid/disp/graphics_common.h ****             case Alignment::bottomLeft:
 226:libDaisy//src/hid/disp/graphics_common.h ****                 return {other.x_,
 227:libDaisy//src/hid/disp/graphics_common.h ****                         int16_t(other.GetBottom() - height_),
 228:libDaisy//src/hid/disp/graphics_common.h ****                         width_,
ARM GAS  /var/folders/z2/7_lhr9dn53s9tj4s0rwtyswm0000gn/T//ccRFfwbB.s 			page 64


 229:libDaisy//src/hid/disp/graphics_common.h ****                         height_};
 230:libDaisy//src/hid/disp/graphics_common.h ****             case Alignment::bottomRight:
 231:libDaisy//src/hid/disp/graphics_common.h ****                 return {int16_t(other.GetRight() - width_),
 232:libDaisy//src/hid/disp/graphics_common.h ****                         int16_t(other.GetBottom() - height_),
 233:libDaisy//src/hid/disp/graphics_common.h ****                         width_,
 234:libDaisy//src/hid/disp/graphics_common.h ****                         height_};
 235:libDaisy//src/hid/disp/graphics_common.h ****             case Alignment::bottomCentered:
 236:libDaisy//src/hid/disp/graphics_common.h ****                 return {int16_t(x_ + (other.GetCenterX() - GetCenterX())),
 237:libDaisy//src/hid/disp/graphics_common.h ****                         int16_t(other.GetBottom() - height_),
 238:libDaisy//src/hid/disp/graphics_common.h ****                         width_,
 239:libDaisy//src/hid/disp/graphics_common.h ****                         height_};
 240:libDaisy//src/hid/disp/graphics_common.h ****             case Alignment::centeredLeft:
 241:libDaisy//src/hid/disp/graphics_common.h ****                 return {other.x_,
 242:libDaisy//src/hid/disp/graphics_common.h ****                         int16_t(y_ + (other.GetCenterY() - GetCenterY())),
 243:libDaisy//src/hid/disp/graphics_common.h ****                         width_,
 244:libDaisy//src/hid/disp/graphics_common.h ****                         height_};
 245:libDaisy//src/hid/disp/graphics_common.h ****             case Alignment::centeredRight:
 246:libDaisy//src/hid/disp/graphics_common.h ****                 return {int16_t(other.GetRight() - width_),
 247:libDaisy//src/hid/disp/graphics_common.h ****                         int16_t(y_ + (other.GetCenterY() - GetCenterY())),
 248:libDaisy//src/hid/disp/graphics_common.h ****                         width_,
 249:libDaisy//src/hid/disp/graphics_common.h ****                         height_};
 250:libDaisy//src/hid/disp/graphics_common.h ****             case Alignment::centered:
 251:libDaisy//src/hid/disp/graphics_common.h ****                 return {int16_t(x_ + (other.GetCenterX() - GetCenterX())),
 252:libDaisy//src/hid/disp/graphics_common.h ****                         int16_t(y_ + (other.GetCenterY() - GetCenterY())),
 253:libDaisy//src/hid/disp/graphics_common.h ****                         width_,
 254:libDaisy//src/hid/disp/graphics_common.h ****                         height_};
 255:libDaisy//src/hid/disp/graphics_common.h ****             default: return {};
 256:libDaisy//src/hid/disp/graphics_common.h ****         }
 257:libDaisy//src/hid/disp/graphics_common.h ****     }
 258:libDaisy//src/hid/disp/graphics_common.h **** 
 259:libDaisy//src/hid/disp/graphics_common.h ****   private:
 260:libDaisy//src/hid/disp/graphics_common.h ****     int16_t x_, y_, width_, height_;
 261:libDaisy//src/hid/disp/graphics_common.h ****     int16_t max(int16_t a, int16_t b) { return (a > b) ? a : b; }
 1613              		.loc 14 261 13 view .LVU344
 1614              	.LBE760:
 1615              	.LBE759:
 1616              	.LBE765:
 1617              	.LBE769:
 1618              		.loc 14 261 41 view .LVU345
 1619              	.LBB770:
 1620              	.LBB766:
 1621              	.LBB762:
 1622              	.LBB761:
 1623              	.LBI761:
 1624              		.loc 14 261 13 view .LVU346
 1625              	.LBE761:
 1626              	.LBE762:
 1627              	.LBE766:
 1628              	.LBE770:
 1629              		.loc 14 261 41 view .LVU347
 1630              	.LBB771:
 1631              	.LBI771:
 209:libDaisy//src/hid/disp/graphics_common.h ****     {
 1632              		.loc 14 209 15 view .LVU348
 1633              	.LBB772:
 211:libDaisy//src/hid/disp/graphics_common.h ****         {
 1634              		.loc 14 211 9 view .LVU349
ARM GAS  /var/folders/z2/7_lhr9dn53s9tj4s0rwtyswm0000gn/T//ccRFfwbB.s 			page 65


 1635 0036 1BB2     		sxth	r3, r3
 1636 0038 23EAE373 		bic	r3, r3, r3, asr #31
 1637 003c 0829     		cmp	r1, #8
 1638 003e 00F2A681 		bhi	.L115
 1639 0042 DFE811F0 		tbh	[pc, r1, lsl #1]
 1640              	.L117:
 1641 0046 0101     		.2byte	(.L125-.L117)/2
 1642 0048 1301     		.2byte	(.L124-.L117)/2
 1643 004a 1F01     		.2byte	(.L123-.L117)/2
 1644 004c 3301     		.2byte	(.L122-.L117)/2
 1645 004e 4101     		.2byte	(.L121-.L117)/2
 1646 0050 4F01     		.2byte	(.L120-.L117)/2
 1647 0052 6601     		.2byte	(.L119-.L117)/2
 1648 0054 6F01     		.2byte	(.L118-.L117)/2
 1649 0056 0900     		.2byte	(.L116-.L117)/2
 1650              		.p2align 1
 1651              	.L116:
 245:libDaisy//src/hid/disp/graphics_common.h ****                 return {int16_t(other.GetRight() - width_),
 1652              		.loc 14 245 13 view .LVU350
 246:libDaisy//src/hid/disp/graphics_common.h ****                         int16_t(y_ + (other.GetCenterY() - GetCenterY())),
 1653              		.loc 14 246 17 view .LVU351
 1654              	.LVL118:
 1655              	.LBB773:
 1656              	.LBI773:
  60:libDaisy//src/hid/disp/graphics_common.h ****     int16_t GetBottom() const { return y_ + height_; }
 1657              		.loc 14 60 13 view .LVU352
 1658              	.LBB774:
  60:libDaisy//src/hid/disp/graphics_common.h ****     int16_t GetBottom() const { return y_ + height_; }
 1659              		.loc 14 60 32 view .LVU353
  60:libDaisy//src/hid/disp/graphics_common.h ****     int16_t GetBottom() const { return y_ + height_; }
 1660              		.loc 14 60 42 is_stmt 0 view .LVU354
 1661 0058 A188     		ldrh	r1, [r4, #4]
 1662              	.LVL119:
  60:libDaisy//src/hid/disp/graphics_common.h ****     int16_t GetBottom() const { return y_ + height_; }
 1663              		.loc 14 60 42 view .LVU355
 1664 005a 2788     		ldrh	r7, [r4]
 1665 005c 0F44     		add	r7, r7, r1
 1666              	.LBE774:
 1667              	.LBE773:
 1668              	.LBB775:
 1669              	.LBB776:
  63:libDaisy//src/hid/disp/graphics_common.h **** 
 1670              		.loc 14 63 54 view .LVU356
 1671 005e B4F90610 		ldrsh	r1, [r4, #6]
 1672              	.LBE776:
 1673              	.LBE775:
 246:libDaisy//src/hid/disp/graphics_common.h ****                         int16_t(y_ + (other.GetCenterY() - GetCenterY())),
 1674              		.loc 14 246 50 view .LVU357
 1675 0062 FF1A     		subs	r7, r7, r3
 1676              	.LBB780:
 1677              	.LBB777:
  63:libDaisy//src/hid/disp/graphics_common.h **** 
 1678              		.loc 14 63 54 view .LVU358
 1679 0064 0029     		cmp	r1, #0
 1680              	.LBE777:
 1681              	.LBE780:
 246:libDaisy//src/hid/disp/graphics_common.h ****                         int16_t(y_ + (other.GetCenterY() - GetCenterY())),
ARM GAS  /var/folders/z2/7_lhr9dn53s9tj4s0rwtyswm0000gn/T//ccRFfwbB.s 			page 66


 1682              		.loc 14 246 50 view .LVU359
 1683 0066 BFB2     		uxth	r7, r7
 1684              	.LVL120:
 1685              	.LBB781:
 1686              	.LBI775:
  63:libDaisy//src/hid/disp/graphics_common.h **** 
 1687              		.loc 14 63 13 is_stmt 1 view .LVU360
 1688              	.LBB778:
  63:libDaisy//src/hid/disp/graphics_common.h **** 
 1689              		.loc 14 63 34 view .LVU361
  63:libDaisy//src/hid/disp/graphics_common.h **** 
 1690              		.loc 14 63 34 is_stmt 0 view .LVU362
 1691              	.LBE778:
 1692              	.LBE781:
 1693              	.LBB782:
 1694              	.LBI782:
  63:libDaisy//src/hid/disp/graphics_common.h **** 
 1695              		.loc 14 63 13 is_stmt 1 view .LVU363
 1696              	.LBB783:
  63:libDaisy//src/hid/disp/graphics_common.h **** 
 1697              		.loc 14 63 34 view .LVU364
  63:libDaisy//src/hid/disp/graphics_common.h **** 
 1698              		.loc 14 63 34 is_stmt 0 view .LVU365
 1699              	.LBE783:
 1700              	.LBE782:
 1701              	.LBB784:
 1702              	.LBB779:
  63:libDaisy//src/hid/disp/graphics_common.h **** 
 1703              		.loc 14 63 54 view .LVU366
 1704 0068 C0F2FE80 		blt	.L188
 1705              	.L132:
  63:libDaisy//src/hid/disp/graphics_common.h **** 
 1706              		.loc 14 63 54 view .LVU367
 1707              	.LBE779:
 1708              	.LBE784:
 1709              	.LBB785:
 1710              	.LBB786:
  63:libDaisy//src/hid/disp/graphics_common.h **** 
 1711              		.loc 14 63 44 view .LVU368
 1712 006c 6488     		ldrh	r4, [r4, #2]
 1713              	.LVL121:
  63:libDaisy//src/hid/disp/graphics_common.h **** 
 1714              		.loc 14 63 44 view .LVU369
 1715              	.LBE786:
 1716              	.LBE785:
 1717              	.LBB792:
 1718              	.LBB793:
 1719              	.LBB794:
  32:libDaisy//src/hid/disp/graphics_common.h ****     {
 1720              		.loc 14 32 66 view .LVU370
 1721 006e 0698     		ldr	r0, [sp, #24]
 1722              	.LBE794:
 1723              	.LBE793:
 1724              	.LBE792:
 1725              	.LBB805:
 1726              	.LBB787:
  63:libDaisy//src/hid/disp/graphics_common.h **** 
ARM GAS  /var/folders/z2/7_lhr9dn53s9tj4s0rwtyswm0000gn/T//ccRFfwbB.s 			page 67


 1727              		.loc 14 63 44 view .LVU371
 1728 0070 04EB6104 		add	r4, r4, r1, asr #1
 1729              	.LBE787:
 1730              	.LBE805:
 1731              	.LBB806:
 1732              	.LBB801:
 1733              	.LBB797:
  32:libDaisy//src/hid/disp/graphics_common.h ****     {
 1734              		.loc 14 32 66 view .LVU372
 1735 0074 C280     		strh	r2, [r0, #6]	@ movhi
 1736              	.LBE797:
 1737              	.LBE801:
 1738              	.LBE806:
 252:libDaisy//src/hid/disp/graphics_common.h ****                         width_,
 1739              		.loc 14 252 58 view .LVU373
 1740 0076 A4EB5202 		sub	r2, r4, r2, lsr #1
 1741              	.LBB807:
 1742              	.LBB802:
 1743              	.LBB798:
  32:libDaisy//src/hid/disp/graphics_common.h ****     {
 1744              		.loc 14 32 66 view .LVU374
 1745 007a 8380     		strh	r3, [r0, #4]	@ movhi
 1746 007c 0780     		strh	r7, [r0]	@ movhi
 1747              	.LBE798:
 1748              	.LBE802:
 1749              	.LBE807:
 252:libDaisy//src/hid/disp/graphics_common.h ****                         width_,
 1750              		.loc 14 252 58 view .LVU375
 1751 007e 94B2     		uxth	r4, r2
 1752              	.LVL122:
 1753              	.LBB808:
 1754              	.LBI792:
  31:libDaisy//src/hid/disp/graphics_common.h ****     : x_(x), y_(y), width_(max(0, width)), height_(max(0, height))
 1755              		.loc 14 31 5 is_stmt 1 view .LVU376
 1756              	.LBB803:
 1757              	.LBB799:
  32:libDaisy//src/hid/disp/graphics_common.h ****     {
 1758              		.loc 14 32 66 is_stmt 0 view .LVU377
 1759 0080 4480     		strh	r4, [r0, #2]	@ movhi
 1760              	.LVL123:
 1761              	.LBB795:
 1762              	.LBI795:
 1763              		.loc 14 261 13 is_stmt 1 view .LVU378
 1764              	.LBE795:
 1765              	.LBE799:
 1766              	.LBE803:
 1767              	.LBE808:
 1768              	.LBE772:
 1769              	.LBE771:
 1770              		.loc 14 261 41 view .LVU379
 1771              	.LBB997:
 1772              	.LBB975:
 1773              	.LBB809:
 1774              	.LBB804:
 1775              	.LBB800:
 1776              	.LBB796:
 1777              	.LBI796:
ARM GAS  /var/folders/z2/7_lhr9dn53s9tj4s0rwtyswm0000gn/T//ccRFfwbB.s 			page 68


 1778              		.loc 14 261 13 view .LVU380
 1779              	.LBE796:
 1780              	.LBE800:
 1781              	.LBE804:
 1782              	.LBE809:
 1783              	.LBE975:
 1784              	.LBE997:
 1785              		.loc 14 261 41 view .LVU381
 1786              	.L126:
  56:libDaisy//src/hid/disp/graphics_common.h ****     int16_t GetY() const { return y_; }
 1787              		.loc 14 56 28 view .LVU382
  57:libDaisy//src/hid/disp/graphics_common.h ****     int16_t GetWidth() const { return width_; }
 1788              		.loc 14 57 28 view .LVU383
 1789              	.LBB998:
 1790              	.LBI998:
 171:libDaisy//src/hid/disp/display.h ****     {
 1791              		.loc 3 171 10 view .LVU384
 1792              	.LBB999:
 173:libDaisy//src/hid/disp/display.h ****         currentY_ = (y >= Height()) ? Height() - 1 : y;
 1793              		.loc 3 173 9 view .LVU385
 1794 0082 A64A     		ldr	r2, .L198
 173:libDaisy//src/hid/disp/display.h ****         currentY_ = (y >= Height()) ? Height() - 1 : y;
 1795              		.loc 3 173 33 is_stmt 0 view .LVU386
 1796 0084 D8F80030 		ldr	r3, [r8]
 1797 0088 1146     		mov	r1, r2
 1798 008a 0192     		str	r2, [sp, #4]
 1799 008c DA68     		ldr	r2, [r3, #12]
 1800 008e 8A42     		cmp	r2, r1
 1801 0090 40F08B81 		bne	.L134
 1802 0094 8020     		movs	r0, #128
 1803              	.LVL124:
 1804              	.L135:
 173:libDaisy//src/hid/disp/display.h ****         currentY_ = (y >= Height()) ? Height() - 1 : y;
 1805              		.loc 3 173 19 view .LVU387
 1806 0096 B842     		cmp	r0, r7
 1807 0098 05D8     		bhi	.L136
 173:libDaisy//src/hid/disp/display.h ****         currentY_ = (y >= Height()) ? Height() - 1 : y;
 1808              		.loc 3 173 44 view .LVU388
 1809 009a DA68     		ldr	r2, [r3, #12]
 1810 009c 0199     		ldr	r1, [sp, #4]
 1811 009e 8A42     		cmp	r2, r1
 1812 00a0 40F09881 		bne	.L189
 1813 00a4 7F27     		movs	r7, #127
 1814              	.L136:
 1815 00a6 9E4A     		ldr	r2, .L198+4
 174:libDaisy//src/hid/disp/display.h ****     }
 1816              		.loc 3 174 34 view .LVU389
 1817 00a8 9B68     		ldr	r3, [r3, #8]
 173:libDaisy//src/hid/disp/display.h ****         currentY_ = (y >= Height()) ? Height() - 1 : y;
 1818              		.loc 3 173 19 view .LVU390
 1819 00aa A8F80470 		strh	r7, [r8, #4]	@ movhi
 174:libDaisy//src/hid/disp/display.h ****     }
 1820              		.loc 3 174 9 is_stmt 1 view .LVU391
 1821 00ae 9342     		cmp	r3, r2
 1822 00b0 0392     		str	r2, [sp, #12]
 1823 00b2 40F08781 		bne	.L166
 174:libDaisy//src/hid/disp/display.h ****     }
ARM GAS  /var/folders/z2/7_lhr9dn53s9tj4s0rwtyswm0000gn/T//ccRFfwbB.s 			page 69


 1824              		.loc 3 174 34 is_stmt 0 view .LVU392
 1825 00b6 4020     		movs	r0, #64
 1826              	.L138:
 174:libDaisy//src/hid/disp/display.h ****     }
 1827              		.loc 3 174 19 view .LVU393
 1828 00b8 A042     		cmp	r0, r4
 1829 00ba 07D8     		bhi	.L140
 174:libDaisy//src/hid/disp/display.h ****     }
 1830              		.loc 3 174 46 view .LVU394
 1831 00bc D8F80030 		ldr	r3, [r8]
 1832 00c0 039A     		ldr	r2, [sp, #12]
 1833 00c2 9B68     		ldr	r3, [r3, #8]
 1834 00c4 9342     		cmp	r3, r2
 1835 00c6 40F08081 		bne	.L190
 1836 00ca 3F24     		movs	r4, #63
 1837              	.L140:
 174:libDaisy//src/hid/disp/display.h ****     }
 1838              		.loc 3 174 46 view .LVU395
 1839              	.LBE999:
 1840              	.LBE998:
 1841              	.LBB1003:
 1842              	.LBB1004:
 443:libDaisy//src/hid/disp/display.h ****         {
 1843              		.loc 3 443 9 view .LVU396
 1844 00cc 009B     		ldr	r3, [sp]
 1845              	.LBE1004:
 1846              	.LBE1003:
 1847              	.LBB1052:
 1848              	.LBB1000:
 174:libDaisy//src/hid/disp/display.h ****     }
 1849              		.loc 3 174 19 view .LVU397
 1850 00ce A8F80640 		strh	r4, [r8, #6]	@ movhi
 1851              	.LVL125:
 174:libDaisy//src/hid/disp/display.h ****     }
 1852              		.loc 3 174 19 view .LVU398
 1853              	.LBE1000:
 1854              	.LBE1052:
 1855              	.LBB1053:
 1856              	.LBB1049:
 443:libDaisy//src/hid/disp/display.h ****         {
 1857              		.loc 3 443 9 view .LVU399
 1858 00d2 93F800B0 		ldrb	fp, [r3]	@ zero_extendqisi2
 1859 00d6 6B78     		ldrb	r3, [r5, #1]	@ zero_extendqisi2
 1860              	.LVL126:
 443:libDaisy//src/hid/disp/display.h ****         {
 1861              		.loc 3 443 9 view .LVU400
 1862 00d8 2C78     		ldrb	r4, [r5]	@ zero_extendqisi2
 1863              	.LVL127:
 443:libDaisy//src/hid/disp/display.h ****         {
 1864              		.loc 3 443 9 view .LVU401
 1865 00da 0493     		str	r3, [sp, #16]
 1866              	.LVL128:
 443:libDaisy//src/hid/disp/display.h ****         {
 1867              		.loc 3 443 9 view .LVU402
 1868 00dc 6B68     		ldr	r3, [r5, #4]
 1869 00de 0793     		str	r3, [sp, #28]
 1870              	.LVL129:
ARM GAS  /var/folders/z2/7_lhr9dn53s9tj4s0rwtyswm0000gn/T//ccRFfwbB.s 			page 70


 443:libDaisy//src/hid/disp/display.h ****         {
 1871              		.loc 3 443 9 view .LVU403
 1872              	.LBE1049:
 1873              	.LBI1003:
 440:libDaisy//src/hid/disp/display.h ****     {
 1874              		.loc 3 440 10 is_stmt 1 view .LVU404
 1875              	.LBB1050:
 443:libDaisy//src/hid/disp/display.h ****         {
 1876              		.loc 3 443 9 view .LVU405
 1877 00e0 BBF1000F 		cmp	fp, #0
 1878 00e4 00F0AC80 		beq	.L112
 1879              	.LVL130:
 1880              	.L142:
 1881              	.LBB1005:
 1882              	.LBI1005:
 396:libDaisy//src/hid/disp/display.h ****     {
 1883              		.loc 3 396 10 view .LVU406
 1884              	.LBB1006:
 401:libDaisy//src/hid/disp/display.h ****             return 0;
 1885              		.loc 3 401 20 is_stmt 0 view .LVU407
 1886 00e8 ABF12005 		sub	r5, fp, #32
 401:libDaisy//src/hid/disp/display.h ****             return 0;
 1887              		.loc 3 401 9 view .LVU408
 1888 00ec EBB2     		uxtb	r3, r5
 1889 00ee 5E2B     		cmp	r3, #94
 1890 00f0 00F22C81 		bhi	.L146
 405:libDaisy//src/hid/disp/display.h ****            || Height() < (currentY_ + font.FontHeight))
 1891              		.loc 3 405 17 view .LVU409
 1892 00f4 D8F80030 		ldr	r3, [r8]
 1893 00f8 019A     		ldr	r2, [sp, #4]
 1894 00fa DB68     		ldr	r3, [r3, #12]
 1895 00fc 9342     		cmp	r3, r2
 1896 00fe 40F02881 		bne	.L191
 1897 0102 8020     		movs	r0, #128
 1898              	.L145:
 405:libDaisy//src/hid/disp/display.h ****            || Height() < (currentY_ + font.FontHeight))
 1899              		.loc 3 405 23 view .LVU410
 1900 0104 B8F80430 		ldrh	r3, [r8, #4]
 405:libDaisy//src/hid/disp/display.h ****            || Height() < (currentY_ + font.FontHeight))
 1901              		.loc 3 405 33 view .LVU411
 1902 0108 2344     		add	r3, r3, r4
 406:libDaisy//src/hid/disp/display.h ****         {
 1903              		.loc 3 406 12 view .LVU412
 1904 010a 9842     		cmp	r0, r3
 1905 010c C0F21E81 		blt	.L146
 406:libDaisy//src/hid/disp/display.h ****         {
 1906              		.loc 3 406 21 view .LVU413
 1907 0110 D8F80030 		ldr	r3, [r8]
 1908 0114 039A     		ldr	r2, [sp, #12]
 1909 0116 9B68     		ldr	r3, [r3, #8]
 1910 0118 9342     		cmp	r3, r2
 1911 011a 40F01D81 		bne	.L192
 1912 011e 4020     		movs	r0, #64
 1913              	.L147:
 406:libDaisy//src/hid/disp/display.h ****         {
 1914              		.loc 3 406 27 view .LVU414
 1915 0120 B8F80610 		ldrh	r1, [r8, #6]
ARM GAS  /var/folders/z2/7_lhr9dn53s9tj4s0rwtyswm0000gn/T//ccRFfwbB.s 			page 71


 406:libDaisy//src/hid/disp/display.h ****         {
 1916              		.loc 3 406 37 view .LVU415
 1917 0124 049A     		ldr	r2, [sp, #16]
 406:libDaisy//src/hid/disp/display.h ****         {
 1918              		.loc 3 406 27 view .LVU416
 1919 0126 0291     		str	r1, [sp, #8]
 406:libDaisy//src/hid/disp/display.h ****         {
 1920              		.loc 3 406 37 view .LVU417
 1921 0128 8B18     		adds	r3, r1, r2
 406:libDaisy//src/hid/disp/display.h ****         {
 1922              		.loc 3 406 12 view .LVU418
 1923 012a 9842     		cmp	r0, r3
 1924 012c C0F20E81 		blt	.L146
 1925              	.LVL131:
 413:libDaisy//src/hid/disp/display.h ****         {
 1926              		.loc 3 413 22 is_stmt 1 view .LVU419
 1927 0130 002A     		cmp	r2, #0
 1928 0132 00F01C81 		beq	.L148
 415:libDaisy//src/hid/disp/display.h ****             for(j = 0; j < font.FontWidth; j++)
 1929              		.loc 3 415 37 is_stmt 0 view .LVU420
 1930 0136 02FB05F5 		mul	r5, r2, r5
 1931 013a 6FF0004E 		mvn	lr, #-2147483648
 1932 013e 079B     		ldr	r3, [sp, #28]
 1933 0140 AE44     		add	lr, lr, r5
 1934 0142 1544     		add	r5, r5, r2
 1935 0144 CDF814B0 		str	fp, [sp, #20]
 1936 0148 03EB4E0E 		add	lr, r3, lr, lsl #1
 1937 014c 023B     		subs	r3, r3, #2
 434:libDaisy//src/hid/disp/display.h **** 
 1938              		.loc 3 434 19 view .LVU421
 1939 014e B8F804A0 		ldrh	r10, [r8, #4]
 1940 0152 03EB4503 		add	r3, r3, r5, lsl #1
 1941 0156 0D46     		mov	r5, r1
 1942 0158 9B46     		mov	fp, r3
 1943              	.LVL132:
 1944              	.L151:
 415:libDaisy//src/hid/disp/display.h ****             for(j = 0; j < font.FontWidth; j++)
 1945              		.loc 3 415 15 view .LVU422
 1946 015a 3EF8027F 		ldrh	r7, [lr, #2]!
 1947              	.LVL133:
 416:libDaisy//src/hid/disp/display.h ****             {
 1948              		.loc 3 416 26 is_stmt 1 view .LVU423
 1949 015e A4B3     		cbz	r4, .L156
 1950              	.LBB1007:
 1951              	.LBB1008:
 1952              	.LBB1009:
 1953              	.LBB1010:
 1954              	.LBB1011:
 359:libDaisy//src/dev/oled_ssd130x.h ****     }
 1955              		.loc 12 359 55 is_stmt 0 view .LVU424
 1956 0160 05F00703 		and	r3, r5, #7
 359:libDaisy//src/dev/oled_ssd130x.h ****     }
 1957              		.loc 12 359 49 view .LVU425
 1958 0164 4FF0010C 		mov	ip, #1
 359:libDaisy//src/dev/oled_ssd130x.h ****     }
 1959              		.loc 12 359 28 view .LVU426
 1960 0168 EA08     		lsrs	r2, r5, #3
ARM GAS  /var/folders/z2/7_lhr9dn53s9tj4s0rwtyswm0000gn/T//ccRFfwbB.s 			page 72


 1961 016a 5146     		mov	r1, r10
 359:libDaisy//src/dev/oled_ssd130x.h ****     }
 1962              		.loc 12 359 49 view .LVU427
 1963 016c 0CFA03FC 		lsl	ip, ip, r3
 1964 0170 0AF11403 		add	r3, r10, #20
 359:libDaisy//src/dev/oled_ssd130x.h ****     }
 1965              		.loc 12 359 42 view .LVU428
 1966 0174 4FFA8CFC 		sxtb	ip, ip
 1967 0178 03EBC212 		add	r2, r3, r2, lsl #7
 1968              	.LBE1011:
 1969              	.LBE1010:
 1970              	.LBE1009:
 1971              	.LBE1008:
 1972              	.LBE1007:
 416:libDaisy//src/hid/disp/display.h ****             {
 1973              		.loc 3 416 19 view .LVU429
 1974 017c 0023     		movs	r3, #0
 1975              	.LBB1029:
 1976              	.LBB1024:
 1977              	.LBB1019:
 1978              	.LBB1015:
 1979              	.LBB1012:
 359:libDaisy//src/dev/oled_ssd130x.h ****     }
 1980              		.loc 12 359 42 view .LVU430
 1981 017e 6FEA0C09 		mvn	r9, ip
 1982 0182 4244     		add	r2, r2, r8
 1983 0184 0DE0     		b	.L157
 1984              	.LVL134:
 1985              	.L193:
 359:libDaisy//src/dev/oled_ssd130x.h ****     }
 1986              		.loc 12 359 42 view .LVU431
 1987              	.LBE1012:
 1988              	.LBE1015:
 1989              	.LBE1019:
 1990              	.LBE1024:
 1991              	.LBE1029:
 1992              	.LBB1030:
 1993              	.LBI1030:
  42:libDaisy//src/hid/disp/oled_display.h ****     {
 1994              		.loc 2 42 10 is_stmt 1 view .LVU432
 1995              	.LBB1031:
 1996              	.LBI1031:
 352:libDaisy//src/dev/oled_ssd130x.h ****     {
 1997              		.loc 12 352 10 view .LVU433
 1998              	.LBB1032:
 354:libDaisy//src/dev/oled_ssd130x.h ****             return;
 1999              		.loc 12 354 9 is_stmt 0 view .LVU434
 2000 0186 7F29     		cmp	r1, #127
 2001 0188 06D8     		bhi	.L153
 2002 018a 3F2D     		cmp	r5, #63
 2003 018c 04D8     		bhi	.L153
 357:libDaisy//src/dev/oled_ssd130x.h ****         else
 2004              		.loc 12 357 42 view .LVU435
 2005 018e 1078     		ldrb	r0, [r2]	@ zero_extendqisi2
 356:libDaisy//src/dev/oled_ssd130x.h ****             buffer_[x + (y / 8) * width] |= (1 << (y % 8));
 2006              		.loc 12 356 9 view .LVU436
 2007 0190 96B1     		cbz	r6, .L155
ARM GAS  /var/folders/z2/7_lhr9dn53s9tj4s0rwtyswm0000gn/T//ccRFfwbB.s 			page 73


 2008              	.L187:
 356:libDaisy//src/dev/oled_ssd130x.h ****             buffer_[x + (y / 8) * width] |= (1 << (y % 8));
 2009              		.loc 12 356 9 view .LVU437
 2010              	.LBE1032:
 2011              	.LBE1031:
 2012              	.LBE1030:
 2013              	.LBB1033:
 2014              	.LBB1025:
 2015              	.LBB1020:
 357:libDaisy//src/dev/oled_ssd130x.h ****         else
 2016              		.loc 12 357 42 view .LVU438
 2017 0192 4CEA0000 		orr	r0, ip, r0
 2018 0196 1070     		strb	r0, [r2]
 2019              	.L153:
 2020              	.LBE1020:
 2021              	.LBE1025:
 2022              	.LBE1033:
 416:libDaisy//src/hid/disp/display.h ****             {
 2023              		.loc 3 416 13 is_stmt 1 view .LVU439
 2024 0198 0133     		adds	r3, r3, #1
 2025              	.LVL135:
 416:libDaisy//src/hid/disp/display.h ****             {
 2026              		.loc 3 416 26 view .LVU440
 2027 019a 0132     		adds	r2, r2, #1
 2028 019c 0131     		adds	r1, r1, #1
 2029 019e 9C42     		cmp	r4, r3
 2030 01a0 13D0     		beq	.L156
 2031              	.LVL136:
 2032              	.L157:
 418:libDaisy//src/hid/disp/display.h ****                 {
 2033              		.loc 3 418 23 is_stmt 0 view .LVU441
 2034 01a2 07FA03F0 		lsl	r0, r7, r3
 418:libDaisy//src/hid/disp/display.h ****                 {
 2035              		.loc 3 418 17 view .LVU442
 2036 01a6 0004     		lsls	r0, r0, #16
 2037 01a8 EDD4     		bmi	.L193
 2038              	.LVL137:
 2039              	.LBB1034:
 2040              	.LBI1007:
  42:libDaisy//src/hid/disp/oled_display.h ****     {
 2041              		.loc 2 42 10 is_stmt 1 view .LVU443
 2042              	.LBB1026:
 2043              	.LBI1008:
 352:libDaisy//src/dev/oled_ssd130x.h ****     {
 2044              		.loc 12 352 10 view .LVU444
 2045              	.LBB1021:
 354:libDaisy//src/dev/oled_ssd130x.h ****             return;
 2046              		.loc 12 354 9 is_stmt 0 view .LVU445
 2047 01aa 7F29     		cmp	r1, #127
 2048 01ac F4D8     		bhi	.L153
 2049 01ae 3F2D     		cmp	r5, #63
 2050 01b0 F2D8     		bhi	.L153
 357:libDaisy//src/dev/oled_ssd130x.h ****         else
 2051              		.loc 12 357 42 view .LVU446
 2052 01b2 1078     		ldrb	r0, [r2]	@ zero_extendqisi2
 356:libDaisy//src/dev/oled_ssd130x.h ****             buffer_[x + (y / 8) * width] |= (1 << (y % 8));
 2053              		.loc 12 356 9 view .LVU447
ARM GAS  /var/folders/z2/7_lhr9dn53s9tj4s0rwtyswm0000gn/T//ccRFfwbB.s 			page 74


 2054 01b4 002E     		cmp	r6, #0
 2055 01b6 ECD0     		beq	.L187
 2056              	.L155:
 2057              	.LVL138:
 2058              	.LBB1016:
 2059              	.LBI1010:
 352:libDaisy//src/dev/oled_ssd130x.h ****     {
 2060              		.loc 12 352 10 is_stmt 1 view .LVU448
 352:libDaisy//src/dev/oled_ssd130x.h ****     {
 2061              		.loc 12 352 10 is_stmt 0 view .LVU449
 2062              	.LBE1016:
 2063              	.LBE1021:
 2064              	.LBE1026:
 2065              	.LBE1034:
 416:libDaisy//src/hid/disp/display.h ****             {
 2066              		.loc 3 416 13 view .LVU450
 2067 01b8 0133     		adds	r3, r3, #1
 2068              	.LVL139:
 2069              	.LBB1035:
 2070              	.LBB1027:
 2071              	.LBB1022:
 2072              	.LBB1017:
 2073              	.LBB1013:
 359:libDaisy//src/dev/oled_ssd130x.h ****     }
 2074              		.loc 12 359 42 view .LVU451
 2075 01ba 09EA0000 		and	r0, r9, r0
 2076              	.LBE1013:
 2077              	.LBE1017:
 2078              	.LBE1022:
 2079              	.LBE1027:
 2080              	.LBE1035:
 416:libDaisy//src/hid/disp/display.h ****             {
 2081              		.loc 3 416 26 view .LVU452
 2082 01be 0132     		adds	r2, r2, #1
 2083 01c0 0131     		adds	r1, r1, #1
 2084 01c2 9C42     		cmp	r4, r3
 2085              	.LBB1036:
 2086              	.LBB1028:
 2087              	.LBB1023:
 2088              	.LBB1018:
 2089              	.LBB1014:
 359:libDaisy//src/dev/oled_ssd130x.h ****     }
 2090              		.loc 12 359 42 view .LVU453
 2091 01c4 02F8010C 		strb	r0, [r2, #-1]
 359:libDaisy//src/dev/oled_ssd130x.h ****     }
 2092              		.loc 12 359 42 view .LVU454
 2093              	.LBE1014:
 2094              	.LBE1018:
 2095              	.LBE1023:
 2096              	.LBE1028:
 2097              	.LBE1036:
 416:libDaisy//src/hid/disp/display.h ****             {
 2098              		.loc 3 416 13 is_stmt 1 view .LVU455
 2099              	.LVL140:
 416:libDaisy//src/hid/disp/display.h ****             {
 2100              		.loc 3 416 26 view .LVU456
 2101 01c8 EBD1     		bne	.L157
ARM GAS  /var/folders/z2/7_lhr9dn53s9tj4s0rwtyswm0000gn/T//ccRFfwbB.s 			page 75


 2102              	.LVL141:
 2103              	.L156:
 413:libDaisy//src/hid/disp/display.h ****         {
 2104              		.loc 3 413 9 view .LVU457
 413:libDaisy//src/hid/disp/display.h ****         {
 2105              		.loc 3 413 22 view .LVU458
 2106 01ca F345     		cmp	fp, lr
 2107 01cc 05F10105 		add	r5, r5, #1
 2108 01d0 C3D1     		bne	.L151
 2109 01d2 DDF814B0 		ldr	fp, [sp, #20]
 2110              	.LVL142:
 2111              	.L150:
 2112              	.LBB1037:
 2113              	.LBB1038:
 173:libDaisy//src/hid/disp/display.h ****         currentY_ = (y >= Height()) ? Height() - 1 : y;
 2114              		.loc 3 173 33 is_stmt 0 view .LVU459
 2115 01d6 D8F80020 		ldr	r2, [r8]
 2116              	.LBE1038:
 2117              	.LBE1037:
 434:libDaisy//src/hid/disp/display.h **** 
 2118              		.loc 3 434 18 view .LVU460
 2119 01da 0AEB0405 		add	r5, r10, r4
 2120 01de 0199     		ldr	r1, [sp, #4]
 2121              	.LBB1043:
 2122              	.LBB1039:
 173:libDaisy//src/hid/disp/display.h ****         currentY_ = (y >= Height()) ? Height() - 1 : y;
 2123              		.loc 3 173 33 view .LVU461
 2124 01e0 D368     		ldr	r3, [r2, #12]
 2125              	.LBE1039:
 2126              	.LBE1043:
 434:libDaisy//src/hid/disp/display.h **** 
 2127              		.loc 3 434 18 view .LVU462
 2128 01e2 ADB2     		uxth	r5, r5
 2129              	.LVL143:
 2130              	.LBB1044:
 2131              	.LBI1037:
 171:libDaisy//src/hid/disp/display.h ****     {
 2132              		.loc 3 171 10 is_stmt 1 view .LVU463
 2133              	.LBB1040:
 173:libDaisy//src/hid/disp/display.h ****         currentY_ = (y >= Height()) ? Height() - 1 : y;
 2134              		.loc 3 173 9 view .LVU464
 2135 01e4 8B42     		cmp	r3, r1
 2136 01e6 40F0BD80 		bne	.L194
 173:libDaisy//src/hid/disp/display.h ****         currentY_ = (y >= Height()) ? Height() - 1 : y;
 2137              		.loc 3 173 33 is_stmt 0 view .LVU465
 2138 01ea 8020     		movs	r0, #128
 2139              	.L158:
 173:libDaisy//src/hid/disp/display.h ****         currentY_ = (y >= Height()) ? Height() - 1 : y;
 2140              		.loc 3 173 19 view .LVU466
 2141 01ec 8542     		cmp	r5, r0
 2142 01ee 05D3     		bcc	.L159
 173:libDaisy//src/hid/disp/display.h ****         currentY_ = (y >= Height()) ? Height() - 1 : y;
 2143              		.loc 3 173 44 view .LVU467
 2144 01f0 D368     		ldr	r3, [r2, #12]
 2145 01f2 0199     		ldr	r1, [sp, #4]
 2146 01f4 8B42     		cmp	r3, r1
 2147 01f6 40F0C380 		bne	.L195
ARM GAS  /var/folders/z2/7_lhr9dn53s9tj4s0rwtyswm0000gn/T//ccRFfwbB.s 			page 76


 2148 01fa 7F25     		movs	r5, #127
 2149              	.LVL144:
 2150              	.L159:
 174:libDaisy//src/hid/disp/display.h ****     }
 2151              		.loc 3 174 34 view .LVU468
 2152 01fc 9368     		ldr	r3, [r2, #8]
 2153 01fe 039A     		ldr	r2, [sp, #12]
 173:libDaisy//src/hid/disp/display.h ****         currentY_ = (y >= Height()) ? Height() - 1 : y;
 2154              		.loc 3 173 19 view .LVU469
 2155 0200 A8F80450 		strh	r5, [r8, #4]	@ movhi
 174:libDaisy//src/hid/disp/display.h ****     }
 2156              		.loc 3 174 9 is_stmt 1 view .LVU470
 2157 0204 9342     		cmp	r3, r2
 2158 0206 40F0AA80 		bne	.L196
 174:libDaisy//src/hid/disp/display.h ****     }
 2159              		.loc 3 174 34 is_stmt 0 view .LVU471
 2160 020a 4020     		movs	r0, #64
 2161              	.L161:
 174:libDaisy//src/hid/disp/display.h ****     }
 2162              		.loc 3 174 19 view .LVU472
 2163 020c 029B     		ldr	r3, [sp, #8]
 2164 020e 8342     		cmp	r3, r0
 2165 0210 08D3     		bcc	.L162
 174:libDaisy//src/hid/disp/display.h ****     }
 2166              		.loc 3 174 46 view .LVU473
 2167 0212 D8F80030 		ldr	r3, [r8]
 2168 0216 039A     		ldr	r2, [sp, #12]
 2169 0218 9B68     		ldr	r3, [r3, #8]
 2170 021a 9342     		cmp	r3, r2
 2171 021c 40F0AA80 		bne	.L197
 2172 0220 3F23     		movs	r3, #63
 2173 0222 0293     		str	r3, [sp, #8]
 2174              	.LVL145:
 2175              	.L162:
 174:libDaisy//src/hid/disp/display.h ****     }
 2176              		.loc 3 174 19 view .LVU474
 2177 0224 029B     		ldr	r3, [sp, #8]
 2178 0226 A8F80630 		strh	r3, [r8, #6]	@ movhi
 2179              	.LVL146:
 2180              	.L144:
 174:libDaisy//src/hid/disp/display.h ****     }
 2181              		.loc 3 174 19 view .LVU475
 2182              	.LBE1040:
 2183              	.LBE1044:
 2184              	.LBE1006:
 2185              	.LBE1005:
 445:libDaisy//src/hid/disp/display.h ****                != *str)
 2186              		.loc 3 445 13 view .LVU476
 2187 022a 009A     		ldr	r2, [sp]
 2188 022c 1378     		ldrb	r3, [r2]	@ zero_extendqisi2
 2189 022e 5B45     		cmp	r3, fp
 2190 0230 06D1     		bne	.L112
 2191              	.LVL147:
 443:libDaisy//src/hid/disp/display.h ****         {
 2192              		.loc 3 443 9 is_stmt 1 view .LVU477
 2193 0232 12F801BF 		ldrb	fp, [r2, #1]!	@ zero_extendqisi2
 2194              	.LVL148:
ARM GAS  /var/folders/z2/7_lhr9dn53s9tj4s0rwtyswm0000gn/T//ccRFfwbB.s 			page 77


 443:libDaisy//src/hid/disp/display.h ****         {
 2195              		.loc 3 443 9 is_stmt 0 view .LVU478
 2196 0236 0092     		str	r2, [sp]
 2197 0238 BBF1000F 		cmp	fp, #0
 2198 023c 7FF454AF 		bne	.L142
 2199              	.LVL149:
 2200              	.L112:
 443:libDaisy//src/hid/disp/display.h ****         {
 2201              		.loc 3 443 9 view .LVU479
 2202              	.LBE1050:
 2203              	.LBE1053:
 471:libDaisy//src/hid/disp/display.h **** 
 2204              		.loc 3 471 5 view .LVU480
 2205 0240 0698     		ldr	r0, [sp, #24]
 2206 0242 09B0     		add	sp, sp, #36
 2207              		.cfi_remember_state
 2208              		.cfi_def_cfa_offset 36
 2209              		@ sp needed
 2210 0244 BDE8F08F 		pop	{r4, r5, r6, r7, r8, r9, r10, fp, pc}
 2211              	.LVL150:
 2212              	.L125:
 2213              		.cfi_restore_state
 2214              	.LBB1054:
 2215              	.LBB976:
 250:libDaisy//src/hid/disp/graphics_common.h ****                 return {int16_t(x_ + (other.GetCenterX() - GetCenterX())),
 2216              		.loc 14 250 13 is_stmt 1 view .LVU481
 251:libDaisy//src/hid/disp/graphics_common.h ****                         int16_t(y_ + (other.GetCenterY() - GetCenterY())),
 2217              		.loc 14 251 17 view .LVU482
 2218              	.LBB810:
 2219              	.LBI810:
  62:libDaisy//src/hid/disp/graphics_common.h ****     int16_t GetCenterY() const { return y_ + height_ / 2; }
 2220              		.loc 14 62 13 view .LVU483
 2221              	.LBB811:
  62:libDaisy//src/hid/disp/graphics_common.h ****     int16_t GetCenterY() const { return y_ + height_ / 2; }
 2222              		.loc 14 62 34 view .LVU484
  62:libDaisy//src/hid/disp/graphics_common.h ****     int16_t GetCenterY() const { return y_ + height_ / 2; }
 2223              		.loc 14 62 34 is_stmt 0 view .LVU485
 2224              	.LBE811:
 2225              	.LBE810:
 2226              	.LBB813:
 2227              	.LBI813:
  62:libDaisy//src/hid/disp/graphics_common.h ****     int16_t GetCenterY() const { return y_ + height_ / 2; }
 2228              		.loc 14 62 13 is_stmt 1 view .LVU486
 2229              	.LBB814:
  62:libDaisy//src/hid/disp/graphics_common.h ****     int16_t GetCenterY() const { return y_ + height_ / 2; }
 2230              		.loc 14 62 34 view .LVU487
  62:libDaisy//src/hid/disp/graphics_common.h ****     int16_t GetCenterY() const { return y_ + height_ / 2; }
 2231              		.loc 14 62 34 is_stmt 0 view .LVU488
 2232              	.LBE814:
 2233              	.LBE813:
 2234              	.LBB815:
 2235              	.LBB812:
  62:libDaisy//src/hid/disp/graphics_common.h ****     int16_t GetCenterY() const { return y_ + height_ / 2; }
 2236              		.loc 14 62 53 view .LVU489
 2237 0248 B4F90410 		ldrsh	r1, [r4, #4]
 2238              	.LVL151:
  62:libDaisy//src/hid/disp/graphics_common.h ****     int16_t GetCenterY() const { return y_ + height_ / 2; }
ARM GAS  /var/folders/z2/7_lhr9dn53s9tj4s0rwtyswm0000gn/T//ccRFfwbB.s 			page 78


 2239              		.loc 14 62 44 view .LVU490
 2240 024c 2788     		ldrh	r7, [r4]
  62:libDaisy//src/hid/disp/graphics_common.h ****     int16_t GetCenterY() const { return y_ + height_ / 2; }
 2241              		.loc 14 62 53 view .LVU491
 2242 024e 0029     		cmp	r1, #0
 2243 0250 B8BF     		it	lt
 2244 0252 0131     		addlt	r1, r1, #1
  62:libDaisy//src/hid/disp/graphics_common.h ****     int16_t GetCenterY() const { return y_ + height_ / 2; }
 2245              		.loc 14 62 44 view .LVU492
 2246 0254 07EB6107 		add	r7, r7, r1, asr #1
 2247              	.LBE812:
 2248              	.LBE815:
 2249              	.LBB816:
 2250              	.LBB788:
  63:libDaisy//src/hid/disp/graphics_common.h **** 
 2251              		.loc 14 63 54 view .LVU493
 2252 0258 B4F90610 		ldrsh	r1, [r4, #6]
 2253              	.LBE788:
 2254              	.LBE816:
 251:libDaisy//src/hid/disp/graphics_common.h ****                         int16_t(y_ + (other.GetCenterY() - GetCenterY())),
 2255              		.loc 14 251 58 view .LVU494
 2256 025c A7EB6307 		sub	r7, r7, r3, asr #1
 2257              	.LBB817:
 2258              	.LBB789:
  63:libDaisy//src/hid/disp/graphics_common.h **** 
 2259              		.loc 14 63 54 view .LVU495
 2260 0260 0029     		cmp	r1, #0
 2261              	.LBE789:
 2262              	.LBE817:
 251:libDaisy//src/hid/disp/graphics_common.h ****                         int16_t(y_ + (other.GetCenterY() - GetCenterY())),
 2263              		.loc 14 251 58 view .LVU496
 2264 0262 BFB2     		uxth	r7, r7
 2265              	.LVL152:
 2266              	.LBB818:
 2267              	.LBI785:
  63:libDaisy//src/hid/disp/graphics_common.h **** 
 2268              		.loc 14 63 13 is_stmt 1 view .LVU497
 2269              	.LBB790:
  63:libDaisy//src/hid/disp/graphics_common.h **** 
 2270              		.loc 14 63 34 view .LVU498
  63:libDaisy//src/hid/disp/graphics_common.h **** 
 2271              		.loc 14 63 34 is_stmt 0 view .LVU499
 2272              	.LBE790:
 2273              	.LBE818:
 2274              	.LBB819:
 2275              	.LBI819:
  63:libDaisy//src/hid/disp/graphics_common.h **** 
 2276              		.loc 14 63 13 is_stmt 1 view .LVU500
 2277              	.LBB820:
  63:libDaisy//src/hid/disp/graphics_common.h **** 
 2278              		.loc 14 63 34 view .LVU501
  63:libDaisy//src/hid/disp/graphics_common.h **** 
 2279              		.loc 14 63 34 is_stmt 0 view .LVU502
 2280              	.LBE820:
 2281              	.LBE819:
 2282              	.LBB821:
 2283              	.LBB791:
ARM GAS  /var/folders/z2/7_lhr9dn53s9tj4s0rwtyswm0000gn/T//ccRFfwbB.s 			page 79


  63:libDaisy//src/hid/disp/graphics_common.h **** 
 2284              		.loc 14 63 54 view .LVU503
 2285 0264 BFF602AF 		bge	.L132
 2286              	.L188:
  63:libDaisy//src/hid/disp/graphics_common.h **** 
 2287              		.loc 14 63 54 view .LVU504
 2288 0268 0131     		adds	r1, r1, #1
 2289 026a FFE6     		b	.L132
 2290              	.LVL153:
 2291              	.L124:
  63:libDaisy//src/hid/disp/graphics_common.h **** 
 2292              		.loc 14 63 54 view .LVU505
 2293              	.LBE791:
 2294              	.LBE821:
 213:libDaisy//src/hid/disp/graphics_common.h ****                 return {other.x_, other.y_, width_, height_};
 2295              		.loc 14 213 13 is_stmt 1 view .LVU506
 214:libDaisy//src/hid/disp/graphics_common.h ****             case Alignment::topRight:
 2296              		.loc 14 214 17 view .LVU507
 214:libDaisy//src/hid/disp/graphics_common.h ****             case Alignment::topRight:
 2297              		.loc 14 214 31 is_stmt 0 view .LVU508
 2298 026c B4F90070 		ldrsh	r7, [r4]
 2299              	.LBB822:
 2300              	.LBB823:
 2301              	.LBB824:
  32:libDaisy//src/hid/disp/graphics_common.h ****     {
 2302              		.loc 14 32 66 view .LVU509
 2303 0270 0699     		ldr	r1, [sp, #24]
 2304              	.LVL154:
  32:libDaisy//src/hid/disp/graphics_common.h ****     {
 2305              		.loc 14 32 66 view .LVU510
 2306              	.LBE824:
 2307              	.LBE823:
 2308              	.LBE822:
 214:libDaisy//src/hid/disp/graphics_common.h ****             case Alignment::topRight:
 2309              		.loc 14 214 41 view .LVU511
 2310 0272 B4F90240 		ldrsh	r4, [r4, #2]
 2311              	.LVL155:
 2312              	.LBB837:
 2313              	.LBI822:
  31:libDaisy//src/hid/disp/graphics_common.h ****     : x_(x), y_(y), width_(max(0, width)), height_(max(0, height))
 2314              		.loc 14 31 5 is_stmt 1 view .LVU512
 2315              	.LBB832:
 2316              	.LBB827:
  32:libDaisy//src/hid/disp/graphics_common.h ****     {
 2317              		.loc 14 32 66 is_stmt 0 view .LVU513
 2318 0276 0F80     		strh	r7, [r1]	@ movhi
 2319              	.LBE827:
 2320              	.LBE832:
 2321              	.LBE837:
 2322              	.LBE976:
 2323              	.LBE1054:
 468:libDaisy//src/hid/disp/display.h ****         ((ChildType*)(this))->ChildType::WriteString(str, font, on);
 2324              		.loc 3 468 18 view .LVU514
 2325 0278 BFB2     		uxth	r7, r7
 2326              	.LVL156:
 2327              	.LBB1055:
 2328              	.LBB977:
ARM GAS  /var/folders/z2/7_lhr9dn53s9tj4s0rwtyswm0000gn/T//ccRFfwbB.s 			page 80


 2329              	.LBB838:
 2330              	.LBB833:
 2331              	.LBB828:
  32:libDaisy//src/hid/disp/graphics_common.h ****     {
 2332              		.loc 14 32 66 view .LVU515
 2333 027a 4C80     		strh	r4, [r1, #2]	@ movhi
 2334              	.LBE828:
 2335              	.LBE833:
 2336              	.LBE838:
 2337              	.LBE977:
 2338              	.LBE1055:
 468:libDaisy//src/hid/disp/display.h ****         ((ChildType*)(this))->ChildType::WriteString(str, font, on);
 2339              		.loc 3 468 18 view .LVU516
 2340 027c A4B2     		uxth	r4, r4
 2341              	.LVL157:
 2342              	.LBB1056:
 2343              	.LBB978:
 2344              	.LBB839:
 2345              	.LBB834:
 2346              	.LBB829:
  32:libDaisy//src/hid/disp/graphics_common.h ****     {
 2347              		.loc 14 32 66 view .LVU517
 2348 027e 8B80     		strh	r3, [r1, #4]	@ movhi
 2349              	.LVL158:
 2350              	.LBB825:
 2351              	.LBI825:
 2352              		.loc 14 261 13 is_stmt 1 view .LVU518
 2353              	.LBE825:
 2354              	.LBE829:
 2355              	.LBE834:
 2356              	.LBE839:
 2357              	.LBE978:
 2358              	.LBE1056:
 2359              		.loc 14 261 41 view .LVU519
 2360              	.LBB1057:
 2361              	.LBB979:
 2362              	.LBB840:
 2363              	.LBB835:
 2364              	.LBB830:
 2365              	.LBB826:
 2366              	.LBI826:
 2367              		.loc 14 261 13 view .LVU520
 2368              	.LBE826:
 2369              	.LBE830:
 2370              	.LBE835:
 2371              	.LBE840:
 2372              	.LBE979:
 2373              	.LBE1057:
 2374              		.loc 14 261 41 view .LVU521
 2375              	.LBB1058:
 2376              	.LBB980:
 2377              	.LBB841:
 2378              	.LBB836:
 2379              	.LBB831:
  32:libDaisy//src/hid/disp/graphics_common.h ****     {
 2380              		.loc 14 32 66 is_stmt 0 view .LVU522
 2381 0280 CA80     		strh	r2, [r1, #6]	@ movhi
ARM GAS  /var/folders/z2/7_lhr9dn53s9tj4s0rwtyswm0000gn/T//ccRFfwbB.s 			page 81


 2382              	.LBE831:
  34:libDaisy//src/hid/disp/graphics_common.h **** 
 2383              		.loc 14 34 5 view .LVU523
 2384 0282 FEE6     		b	.L126
 2385              	.LVL159:
 2386              	.L123:
  34:libDaisy//src/hid/disp/graphics_common.h **** 
 2387              		.loc 14 34 5 view .LVU524
 2388              	.LBE836:
 2389              	.LBE841:
 220:libDaisy//src/hid/disp/graphics_common.h ****                 return {int16_t(x_ + (other.GetCenterX() - GetCenterX())),
 2390              		.loc 14 220 13 is_stmt 1 view .LVU525
 221:libDaisy//src/hid/disp/graphics_common.h ****                         other.y_,
 2391              		.loc 14 221 17 view .LVU526
 2392              	.LBB842:
 2393              	.LBI842:
  62:libDaisy//src/hid/disp/graphics_common.h ****     int16_t GetCenterY() const { return y_ + height_ / 2; }
 2394              		.loc 14 62 13 view .LVU527
 2395              	.LBB843:
  62:libDaisy//src/hid/disp/graphics_common.h ****     int16_t GetCenterY() const { return y_ + height_ / 2; }
 2396              		.loc 14 62 34 view .LVU528
  62:libDaisy//src/hid/disp/graphics_common.h ****     int16_t GetCenterY() const { return y_ + height_ / 2; }
 2397              		.loc 14 62 34 is_stmt 0 view .LVU529
 2398              	.LBE843:
 2399              	.LBE842:
 2400              	.LBB846:
 2401              	.LBI846:
  62:libDaisy//src/hid/disp/graphics_common.h ****     int16_t GetCenterY() const { return y_ + height_ / 2; }
 2402              		.loc 14 62 13 is_stmt 1 view .LVU530
 2403              	.LBB847:
  62:libDaisy//src/hid/disp/graphics_common.h ****     int16_t GetCenterY() const { return y_ + height_ / 2; }
 2404              		.loc 14 62 34 view .LVU531
  62:libDaisy//src/hid/disp/graphics_common.h ****     int16_t GetCenterY() const { return y_ + height_ / 2; }
 2405              		.loc 14 62 34 is_stmt 0 view .LVU532
 2406              	.LBE847:
 2407              	.LBE846:
 2408              	.LBB848:
 2409              	.LBB844:
  62:libDaisy//src/hid/disp/graphics_common.h ****     int16_t GetCenterY() const { return y_ + height_ / 2; }
 2410              		.loc 14 62 53 view .LVU533
 2411 0284 B4F90410 		ldrsh	r1, [r4, #4]
 2412              	.LVL160:
  62:libDaisy//src/hid/disp/graphics_common.h ****     int16_t GetCenterY() const { return y_ + height_ / 2; }
 2413              		.loc 14 62 44 view .LVU534
 2414 0288 2788     		ldrh	r7, [r4]
  62:libDaisy//src/hid/disp/graphics_common.h ****     int16_t GetCenterY() const { return y_ + height_ / 2; }
 2415              		.loc 14 62 53 view .LVU535
 2416 028a 0029     		cmp	r1, #0
 2417              	.LBE844:
 2418              	.LBE848:
 222:libDaisy//src/hid/disp/graphics_common.h ****                         width_,
 2419              		.loc 14 222 31 view .LVU536
 2420 028c B4F90240 		ldrsh	r4, [r4, #2]
 2421              	.LVL161:
 2422              	.LBB849:
 2423              	.LBB845:
  62:libDaisy//src/hid/disp/graphics_common.h ****     int16_t GetCenterY() const { return y_ + height_ / 2; }
ARM GAS  /var/folders/z2/7_lhr9dn53s9tj4s0rwtyswm0000gn/T//ccRFfwbB.s 			page 82


 2424              		.loc 14 62 53 view .LVU537
 2425 0290 B8BF     		it	lt
 2426 0292 0131     		addlt	r1, r1, #1
  62:libDaisy//src/hid/disp/graphics_common.h ****     int16_t GetCenterY() const { return y_ + height_ / 2; }
 2427              		.loc 14 62 44 view .LVU538
 2428 0294 07EB6107 		add	r7, r7, r1, asr #1
 2429              	.LBE845:
 2430              	.LBE849:
 2431              	.LBB850:
 2432              	.LBB851:
 2433              	.LBB852:
  32:libDaisy//src/hid/disp/graphics_common.h ****     {
 2434              		.loc 14 32 66 view .LVU539
 2435 0298 0699     		ldr	r1, [sp, #24]
 2436 029a 8B80     		strh	r3, [r1, #4]	@ movhi
 2437              	.LBE852:
 2438              	.LBE851:
 2439              	.LBE850:
 221:libDaisy//src/hid/disp/graphics_common.h ****                         other.y_,
 2440              		.loc 14 221 58 view .LVU540
 2441 029c A7EB6303 		sub	r3, r7, r3, asr #1
 2442              	.LBB863:
 2443              	.LBB859:
 2444              	.LBB855:
  32:libDaisy//src/hid/disp/graphics_common.h ****     {
 2445              		.loc 14 32 66 view .LVU541
 2446 02a0 4C80     		strh	r4, [r1, #2]	@ movhi
 2447              	.LBE855:
 2448              	.LBE859:
 2449              	.LBE863:
 2450              	.LBE980:
 2451              	.LBE1058:
 468:libDaisy//src/hid/disp/display.h ****         ((ChildType*)(this))->ChildType::WriteString(str, font, on);
 2452              		.loc 3 468 18 view .LVU542
 2453 02a2 A4B2     		uxth	r4, r4
 2454              	.LBB1059:
 2455              	.LBB981:
 221:libDaisy//src/hid/disp/graphics_common.h ****                         other.y_,
 2456              		.loc 14 221 58 view .LVU543
 2457 02a4 9FB2     		uxth	r7, r3
 2458              	.LVL162:
 2459              	.LBB864:
 2460              	.LBI850:
  31:libDaisy//src/hid/disp/graphics_common.h ****     : x_(x), y_(y), width_(max(0, width)), height_(max(0, height))
 2461              		.loc 14 31 5 is_stmt 1 view .LVU544
 2462              	.LBB860:
 2463              	.LBB856:
 2464              	.LBB853:
 2465              	.LBI853:
 2466              		.loc 14 261 13 view .LVU545
 2467              	.LBE853:
 2468              	.LBE856:
 2469              	.LBE860:
 2470              	.LBE864:
 2471              	.LBE981:
 2472              	.LBE1059:
 2473              		.loc 14 261 41 view .LVU546
ARM GAS  /var/folders/z2/7_lhr9dn53s9tj4s0rwtyswm0000gn/T//ccRFfwbB.s 			page 83


 2474              	.LBB1060:
 2475              	.LBB982:
 2476              	.LBB865:
 2477              	.LBB861:
 2478              	.LBB857:
 2479              	.LBB854:
 2480              	.LBI854:
 2481              		.loc 14 261 13 view .LVU547
 2482              	.LBE854:
 2483              	.LBE857:
 2484              	.LBE861:
 2485              	.LBE865:
 2486              	.LBE982:
 2487              	.LBE1060:
 2488              		.loc 14 261 41 view .LVU548
 2489              	.LBB1061:
 2490              	.LBB983:
 2491              	.LBB866:
 2492              	.LBB862:
 2493              	.LBB858:
  32:libDaisy//src/hid/disp/graphics_common.h ****     {
 2494              		.loc 14 32 66 is_stmt 0 view .LVU549
 2495 02a6 CA80     		strh	r2, [r1, #6]	@ movhi
 2496 02a8 0F80     		strh	r7, [r1]	@ movhi
 2497              	.LBE858:
  34:libDaisy//src/hid/disp/graphics_common.h **** 
 2498              		.loc 14 34 5 view .LVU550
 2499 02aa EAE6     		b	.L126
 2500              	.LVL163:
 2501              	.L122:
  34:libDaisy//src/hid/disp/graphics_common.h **** 
 2502              		.loc 14 34 5 view .LVU551
 2503              	.LBE862:
 2504              	.LBE866:
 215:libDaisy//src/hid/disp/graphics_common.h ****                 return {int16_t(other.GetRight() - width_),
 2505              		.loc 14 215 13 is_stmt 1 view .LVU552
 216:libDaisy//src/hid/disp/graphics_common.h ****                         other.y_,
 2506              		.loc 14 216 17 view .LVU553
 2507              	.LBB867:
 2508              	.LBI867:
  60:libDaisy//src/hid/disp/graphics_common.h ****     int16_t GetBottom() const { return y_ + height_; }
 2509              		.loc 14 60 13 view .LVU554
 2510              	.LBB868:
  60:libDaisy//src/hid/disp/graphics_common.h ****     int16_t GetBottom() const { return y_ + height_; }
 2511              		.loc 14 60 32 view .LVU555
  60:libDaisy//src/hid/disp/graphics_common.h ****     int16_t GetBottom() const { return y_ + height_; }
 2512              		.loc 14 60 42 is_stmt 0 view .LVU556
 2513 02ac A188     		ldrh	r1, [r4, #4]
 2514              	.LVL164:
  60:libDaisy//src/hid/disp/graphics_common.h ****     int16_t GetBottom() const { return y_ + height_; }
 2515              		.loc 14 60 42 view .LVU557
 2516 02ae 2788     		ldrh	r7, [r4]
 2517              	.LBE868:
 2518              	.LBE867:
 217:libDaisy//src/hid/disp/graphics_common.h ****                         width_,
 2519              		.loc 14 217 31 view .LVU558
 2520 02b0 B4F90240 		ldrsh	r4, [r4, #2]
ARM GAS  /var/folders/z2/7_lhr9dn53s9tj4s0rwtyswm0000gn/T//ccRFfwbB.s 			page 84


 2521              	.LVL165:
 2522              	.LBB870:
 2523              	.LBB869:
  60:libDaisy//src/hid/disp/graphics_common.h ****     int16_t GetBottom() const { return y_ + height_; }
 2524              		.loc 14 60 42 view .LVU559
 2525 02b4 0F44     		add	r7, r7, r1
 2526              	.LBE869:
 2527              	.LBE870:
 2528              	.LBB871:
 2529              	.LBB872:
 2530              	.LBB873:
  32:libDaisy//src/hid/disp/graphics_common.h ****     {
 2531              		.loc 14 32 66 view .LVU560
 2532 02b6 0699     		ldr	r1, [sp, #24]
 2533 02b8 8B80     		strh	r3, [r1, #4]	@ movhi
 2534              	.LBE873:
 2535              	.LBE872:
 2536              	.LBE871:
 216:libDaisy//src/hid/disp/graphics_common.h ****                         other.y_,
 2537              		.loc 14 216 50 view .LVU561
 2538 02ba FB1A     		subs	r3, r7, r3
 2539              	.LBB884:
 2540              	.LBB880:
 2541              	.LBB876:
  32:libDaisy//src/hid/disp/graphics_common.h ****     {
 2542              		.loc 14 32 66 view .LVU562
 2543 02bc 4C80     		strh	r4, [r1, #2]	@ movhi
 2544              	.LBE876:
 2545              	.LBE880:
 2546              	.LBE884:
 2547              	.LBE983:
 2548              	.LBE1061:
 468:libDaisy//src/hid/disp/display.h ****         ((ChildType*)(this))->ChildType::WriteString(str, font, on);
 2549              		.loc 3 468 18 view .LVU563
 2550 02be A4B2     		uxth	r4, r4
 2551              	.LBB1062:
 2552              	.LBB984:
 216:libDaisy//src/hid/disp/graphics_common.h ****                         other.y_,
 2553              		.loc 14 216 50 view .LVU564
 2554 02c0 9FB2     		uxth	r7, r3
 2555              	.LVL166:
 2556              	.LBB885:
 2557              	.LBI871:
  31:libDaisy//src/hid/disp/graphics_common.h ****     : x_(x), y_(y), width_(max(0, width)), height_(max(0, height))
 2558              		.loc 14 31 5 is_stmt 1 view .LVU565
 2559              	.LBB881:
 2560              	.LBB877:
 2561              	.LBB874:
 2562              	.LBI874:
 2563              		.loc 14 261 13 view .LVU566
 2564              	.LBE874:
 2565              	.LBE877:
 2566              	.LBE881:
 2567              	.LBE885:
 2568              	.LBE984:
 2569              	.LBE1062:
 2570              		.loc 14 261 41 view .LVU567
ARM GAS  /var/folders/z2/7_lhr9dn53s9tj4s0rwtyswm0000gn/T//ccRFfwbB.s 			page 85


 2571              	.LBB1063:
 2572              	.LBB985:
 2573              	.LBB886:
 2574              	.LBB882:
 2575              	.LBB878:
 2576              	.LBB875:
 2577              	.LBI875:
 2578              		.loc 14 261 13 view .LVU568
 2579              	.LBE875:
 2580              	.LBE878:
 2581              	.LBE882:
 2582              	.LBE886:
 2583              	.LBE985:
 2584              	.LBE1063:
 2585              		.loc 14 261 41 view .LVU569
 2586              	.LBB1064:
 2587              	.LBB986:
 2588              	.LBB887:
 2589              	.LBB883:
 2590              	.LBB879:
  32:libDaisy//src/hid/disp/graphics_common.h ****     {
 2591              		.loc 14 32 66 is_stmt 0 view .LVU570
 2592 02c2 CA80     		strh	r2, [r1, #6]	@ movhi
 2593 02c4 0F80     		strh	r7, [r1]	@ movhi
 2594              	.LBE879:
  34:libDaisy//src/hid/disp/graphics_common.h **** 
 2595              		.loc 14 34 5 view .LVU571
 2596 02c6 DCE6     		b	.L126
 2597              	.LVL167:
 2598              	.L121:
  34:libDaisy//src/hid/disp/graphics_common.h **** 
 2599              		.loc 14 34 5 view .LVU572
 2600              	.LBE883:
 2601              	.LBE887:
 225:libDaisy//src/hid/disp/graphics_common.h ****                 return {other.x_,
 2602              		.loc 14 225 13 is_stmt 1 view .LVU573
 226:libDaisy//src/hid/disp/graphics_common.h ****                         int16_t(other.GetBottom() - height_),
 2603              		.loc 14 226 17 view .LVU574
 2604              	.LBB888:
 2605              	.LBB889:
  61:libDaisy//src/hid/disp/graphics_common.h ****     int16_t GetCenterX() const { return x_ + width_ / 2; }
 2606              		.loc 14 61 43 is_stmt 0 view .LVU575
 2607 02c8 E788     		ldrh	r7, [r4, #6]
 2608 02ca 6188     		ldrh	r1, [r4, #2]
 2609              	.LVL168:
  61:libDaisy//src/hid/disp/graphics_common.h ****     int16_t GetCenterX() const { return x_ + width_ / 2; }
 2610              		.loc 14 61 43 view .LVU576
 2611 02cc 3944     		add	r1, r1, r7
 2612              	.LBE889:
 2613              	.LBE888:
 226:libDaisy//src/hid/disp/graphics_common.h ****                         int16_t(other.GetBottom() - height_),
 2614              		.loc 14 226 31 view .LVU577
 2615 02ce B4F90070 		ldrsh	r7, [r4]
 227:libDaisy//src/hid/disp/graphics_common.h ****                         width_,
 2616              		.loc 14 227 51 view .LVU578
 2617 02d2 081A     		subs	r0, r1, r0
 2618              	.LVL169:
ARM GAS  /var/folders/z2/7_lhr9dn53s9tj4s0rwtyswm0000gn/T//ccRFfwbB.s 			page 86


 2619              	.LBB891:
 2620              	.LBI888:
  61:libDaisy//src/hid/disp/graphics_common.h ****     int16_t GetCenterX() const { return x_ + width_ / 2; }
 2621              		.loc 14 61 13 is_stmt 1 view .LVU579
 2622              	.LBB890:
  61:libDaisy//src/hid/disp/graphics_common.h ****     int16_t GetCenterX() const { return x_ + width_ / 2; }
 2623              		.loc 14 61 33 view .LVU580
  61:libDaisy//src/hid/disp/graphics_common.h ****     int16_t GetCenterX() const { return x_ + width_ / 2; }
 2624              		.loc 14 61 33 is_stmt 0 view .LVU581
 2625              	.LBE890:
 2626              	.LBE891:
 2627              	.LBB892:
 2628              	.LBB893:
 2629              	.LBB894:
  32:libDaisy//src/hid/disp/graphics_common.h ****     {
 2630              		.loc 14 32 66 view .LVU582
 2631 02d4 0699     		ldr	r1, [sp, #24]
 2632              	.LBE894:
 2633              	.LBE893:
 2634              	.LBE892:
 227:libDaisy//src/hid/disp/graphics_common.h ****                         width_,
 2635              		.loc 14 227 51 view .LVU583
 2636 02d6 84B2     		uxth	r4, r0
 2637              	.LVL170:
 2638              	.LBB904:
 2639              	.LBB900:
 2640              	.LBB897:
  32:libDaisy//src/hid/disp/graphics_common.h ****     {
 2641              		.loc 14 32 66 view .LVU584
 2642 02d8 0F80     		strh	r7, [r1]	@ movhi
 2643 02da 8B80     		strh	r3, [r1, #4]	@ movhi
 2644              	.LVL171:
  32:libDaisy//src/hid/disp/graphics_common.h ****     {
 2645              		.loc 14 32 66 view .LVU585
 2646              	.LBE897:
 2647              	.LBE900:
 2648              	.LBI892:
  31:libDaisy//src/hid/disp/graphics_common.h ****     : x_(x), y_(y), width_(max(0, width)), height_(max(0, height))
 2649              		.loc 14 31 5 is_stmt 1 view .LVU586
 2650              	.LBE904:
 2651              	.LBE986:
 2652              	.LBE1064:
 468:libDaisy//src/hid/disp/display.h ****         ((ChildType*)(this))->ChildType::WriteString(str, font, on);
 2653              		.loc 3 468 18 is_stmt 0 view .LVU587
 2654 02dc BFB2     		uxth	r7, r7
 2655              	.LVL172:
 2656              	.LBB1065:
 2657              	.LBB987:
 2658              	.LBB905:
 2659              	.LBB901:
 2660              	.LBB898:
  32:libDaisy//src/hid/disp/graphics_common.h ****     {
 2661              		.loc 14 32 66 view .LVU588
 2662 02de CA80     		strh	r2, [r1, #6]	@ movhi
 2663 02e0 4C80     		strh	r4, [r1, #2]	@ movhi
 2664              	.LVL173:
 2665              	.LBB895:
ARM GAS  /var/folders/z2/7_lhr9dn53s9tj4s0rwtyswm0000gn/T//ccRFfwbB.s 			page 87


 2666              	.LBI895:
 2667              		.loc 14 261 13 is_stmt 1 view .LVU589
 2668              	.LBE895:
 2669              	.LBE898:
 2670              	.LBE901:
 2671              	.LBE905:
 2672              	.LBE987:
 2673              	.LBE1065:
 2674              		.loc 14 261 41 view .LVU590
 2675              	.LBB1066:
 2676              	.LBB988:
 2677              	.LBB906:
 2678              	.LBB902:
 2679              	.LBB899:
 2680              	.LBB896:
 2681              	.LBI896:
 2682              		.loc 14 261 13 view .LVU591
 2683              	.LBE896:
 2684              	.LBE899:
 2685              	.LBE902:
 2686              	.LBE906:
 2687              	.LBE988:
 2688              	.LBE1066:
 2689              		.loc 14 261 41 view .LVU592
 2690              	.LBB1067:
 2691              	.LBB989:
 2692              	.LBB907:
 2693              	.LBB903:
  34:libDaisy//src/hid/disp/graphics_common.h **** 
 2694              		.loc 14 34 5 is_stmt 0 view .LVU593
 2695 02e2 CEE6     		b	.L126
 2696              	.LVL174:
 2697              	.L120:
  34:libDaisy//src/hid/disp/graphics_common.h **** 
 2698              		.loc 14 34 5 view .LVU594
 2699              	.LBE903:
 2700              	.LBE907:
 235:libDaisy//src/hid/disp/graphics_common.h ****                 return {int16_t(x_ + (other.GetCenterX() - GetCenterX())),
 2701              		.loc 14 235 13 is_stmt 1 view .LVU595
 236:libDaisy//src/hid/disp/graphics_common.h ****                         int16_t(other.GetBottom() - height_),
 2702              		.loc 14 236 17 view .LVU596
 2703              	.LBB908:
 2704              	.LBI908:
  62:libDaisy//src/hid/disp/graphics_common.h ****     int16_t GetCenterY() const { return y_ + height_ / 2; }
 2705              		.loc 14 62 13 view .LVU597
 2706              	.LBB909:
  62:libDaisy//src/hid/disp/graphics_common.h ****     int16_t GetCenterY() const { return y_ + height_ / 2; }
 2707              		.loc 14 62 34 view .LVU598
  62:libDaisy//src/hid/disp/graphics_common.h ****     int16_t GetCenterY() const { return y_ + height_ / 2; }
 2708              		.loc 14 62 34 is_stmt 0 view .LVU599
 2709              	.LBE909:
 2710              	.LBE908:
 2711              	.LBB911:
 2712              	.LBI911:
  62:libDaisy//src/hid/disp/graphics_common.h ****     int16_t GetCenterY() const { return y_ + height_ / 2; }
 2713              		.loc 14 62 13 is_stmt 1 view .LVU600
 2714              	.LBB912:
ARM GAS  /var/folders/z2/7_lhr9dn53s9tj4s0rwtyswm0000gn/T//ccRFfwbB.s 			page 88


  62:libDaisy//src/hid/disp/graphics_common.h ****     int16_t GetCenterY() const { return y_ + height_ / 2; }
 2715              		.loc 14 62 34 view .LVU601
  62:libDaisy//src/hid/disp/graphics_common.h ****     int16_t GetCenterY() const { return y_ + height_ / 2; }
 2716              		.loc 14 62 34 is_stmt 0 view .LVU602
 2717              	.LBE912:
 2718              	.LBE911:
 2719              	.LBB913:
 2720              	.LBB910:
  62:libDaisy//src/hid/disp/graphics_common.h ****     int16_t GetCenterY() const { return y_ + height_ / 2; }
 2721              		.loc 14 62 53 view .LVU603
 2722 02e4 B4F90410 		ldrsh	r1, [r4, #4]
 2723              	.LVL175:
  62:libDaisy//src/hid/disp/graphics_common.h ****     int16_t GetCenterY() const { return y_ + height_ / 2; }
 2724              		.loc 14 62 44 view .LVU604
 2725 02e8 2788     		ldrh	r7, [r4]
  62:libDaisy//src/hid/disp/graphics_common.h ****     int16_t GetCenterY() const { return y_ + height_ / 2; }
 2726              		.loc 14 62 53 view .LVU605
 2727 02ea 0029     		cmp	r1, #0
 2728 02ec B8BF     		it	lt
 2729 02ee 0131     		addlt	r1, r1, #1
  62:libDaisy//src/hid/disp/graphics_common.h ****     int16_t GetCenterY() const { return y_ + height_ / 2; }
 2730              		.loc 14 62 44 view .LVU606
 2731 02f0 07EB6107 		add	r7, r7, r1, asr #1
 2732              	.LBE910:
 2733              	.LBE913:
 236:libDaisy//src/hid/disp/graphics_common.h ****                         int16_t(other.GetBottom() - height_),
 2734              		.loc 14 236 58 view .LVU607
 2735 02f4 A7EB6307 		sub	r7, r7, r3, asr #1
 2736              	.L186:
 2737              	.LBB914:
 2738              	.LBB915:
  61:libDaisy//src/hid/disp/graphics_common.h ****     int16_t GetCenterX() const { return x_ + width_ / 2; }
 2739              		.loc 14 61 43 view .LVU608
 2740 02f8 B4F802C0 		ldrh	ip, [r4, #2]
 2741              	.LBE915:
 2742              	.LBE914:
 236:libDaisy//src/hid/disp/graphics_common.h ****                         int16_t(other.GetBottom() - height_),
 2743              		.loc 14 236 58 view .LVU609
 2744 02fc BFB2     		uxth	r7, r7
 2745              	.LVL176:
 2746              	.LBB918:
 2747              	.LBI914:
  61:libDaisy//src/hid/disp/graphics_common.h ****     int16_t GetCenterX() const { return x_ + width_ / 2; }
 2748              		.loc 14 61 13 is_stmt 1 view .LVU610
 2749              	.LBB916:
  61:libDaisy//src/hid/disp/graphics_common.h ****     int16_t GetCenterX() const { return x_ + width_ / 2; }
 2750              		.loc 14 61 33 view .LVU611
  61:libDaisy//src/hid/disp/graphics_common.h ****     int16_t GetCenterX() const { return x_ + width_ / 2; }
 2751              		.loc 14 61 43 is_stmt 0 view .LVU612
 2752 02fe E488     		ldrh	r4, [r4, #6]
 2753              	.LVL177:
  61:libDaisy//src/hid/disp/graphics_common.h ****     int16_t GetCenterX() const { return x_ + width_ / 2; }
 2754              		.loc 14 61 43 view .LVU613
 2755              	.LBE916:
 2756              	.LBE918:
 2757              	.LBB919:
 2758              	.LBB920:
ARM GAS  /var/folders/z2/7_lhr9dn53s9tj4s0rwtyswm0000gn/T//ccRFfwbB.s 			page 89


 2759              	.LBB921:
  32:libDaisy//src/hid/disp/graphics_common.h ****     {
 2760              		.loc 14 32 66 view .LVU614
 2761 0300 0699     		ldr	r1, [sp, #24]
 2762              	.LBE921:
 2763              	.LBE920:
 2764              	.LBE919:
 2765              	.LBB933:
 2766              	.LBB917:
  61:libDaisy//src/hid/disp/graphics_common.h ****     int16_t GetCenterX() const { return x_ + width_ / 2; }
 2767              		.loc 14 61 43 view .LVU615
 2768 0302 6444     		add	r4, r4, ip
 2769              	.LBE917:
 2770              	.LBE933:
 2771              	.LBB934:
 2772              	.LBB928:
 2773              	.LBB924:
  32:libDaisy//src/hid/disp/graphics_common.h ****     {
 2774              		.loc 14 32 66 view .LVU616
 2775 0304 8B80     		strh	r3, [r1, #4]	@ movhi
 2776              	.LBE924:
 2777              	.LBE928:
 2778              	.LBE934:
 237:libDaisy//src/hid/disp/graphics_common.h ****                         width_,
 2779              		.loc 14 237 51 view .LVU617
 2780 0306 201A     		subs	r0, r4, r0
 2781              	.LBB935:
 2782              	.LBB929:
 2783              	.LBB925:
  32:libDaisy//src/hid/disp/graphics_common.h ****     {
 2784              		.loc 14 32 66 view .LVU618
 2785 0308 CA80     		strh	r2, [r1, #6]	@ movhi
 2786 030a 0F80     		strh	r7, [r1]	@ movhi
 2787              	.LBE925:
 2788              	.LBE929:
 2789              	.LBE935:
 237:libDaisy//src/hid/disp/graphics_common.h ****                         width_,
 2790              		.loc 14 237 51 view .LVU619
 2791 030c 84B2     		uxth	r4, r0
 2792              	.LVL178:
 2793              	.LBB936:
 2794              	.LBI919:
  31:libDaisy//src/hid/disp/graphics_common.h ****     : x_(x), y_(y), width_(max(0, width)), height_(max(0, height))
 2795              		.loc 14 31 5 is_stmt 1 view .LVU620
 2796              	.LBB930:
 2797              	.LBB926:
  32:libDaisy//src/hid/disp/graphics_common.h ****     {
 2798              		.loc 14 32 66 is_stmt 0 view .LVU621
 2799 030e 4C80     		strh	r4, [r1, #2]	@ movhi
 2800              	.LVL179:
 2801              	.LBB922:
 2802              	.LBI922:
 2803              		.loc 14 261 13 is_stmt 1 view .LVU622
 2804              	.LBE922:
 2805              	.LBE926:
 2806              	.LBE930:
 2807              	.LBE936:
ARM GAS  /var/folders/z2/7_lhr9dn53s9tj4s0rwtyswm0000gn/T//ccRFfwbB.s 			page 90


 2808              	.LBE989:
 2809              	.LBE1067:
 2810              		.loc 14 261 41 view .LVU623
 2811              	.LBB1068:
 2812              	.LBB990:
 2813              	.LBB937:
 2814              	.LBB931:
 2815              	.LBB927:
 2816              	.LBB923:
 2817              	.LBI923:
 2818              		.loc 14 261 13 view .LVU624
 2819              	.LBE923:
 2820              	.LBE927:
 2821              	.LBE931:
 2822              	.LBE937:
 2823              	.LBE990:
 2824              	.LBE1068:
 2825              		.loc 14 261 41 view .LVU625
 2826              	.LBB1069:
 2827              	.LBB991:
 2828              	.LBB938:
 2829              	.LBB932:
  34:libDaisy//src/hid/disp/graphics_common.h **** 
 2830              		.loc 14 34 5 is_stmt 0 view .LVU626
 2831 0310 B7E6     		b	.L126
 2832              	.LVL180:
 2833              	.L119:
  34:libDaisy//src/hid/disp/graphics_common.h **** 
 2834              		.loc 14 34 5 view .LVU627
 2835              	.LBE932:
 2836              	.LBE938:
 230:libDaisy//src/hid/disp/graphics_common.h ****                 return {int16_t(other.GetRight() - width_),
 2837              		.loc 14 230 13 is_stmt 1 view .LVU628
 231:libDaisy//src/hid/disp/graphics_common.h ****                         int16_t(other.GetBottom() - height_),
 2838              		.loc 14 231 17 view .LVU629
 2839              	.LBB939:
 2840              	.LBI939:
  60:libDaisy//src/hid/disp/graphics_common.h ****     int16_t GetBottom() const { return y_ + height_; }
 2841              		.loc 14 60 13 view .LVU630
 2842              	.LBB940:
  60:libDaisy//src/hid/disp/graphics_common.h ****     int16_t GetBottom() const { return y_ + height_; }
 2843              		.loc 14 60 32 view .LVU631
  60:libDaisy//src/hid/disp/graphics_common.h ****     int16_t GetBottom() const { return y_ + height_; }
 2844              		.loc 14 60 42 is_stmt 0 view .LVU632
 2845 0312 2788     		ldrh	r7, [r4]
 2846 0314 A188     		ldrh	r1, [r4, #4]
 2847              	.LVL181:
  60:libDaisy//src/hid/disp/graphics_common.h ****     int16_t GetBottom() const { return y_ + height_; }
 2848              		.loc 14 60 42 view .LVU633
 2849 0316 0F44     		add	r7, r7, r1
 2850              	.LBE940:
 2851              	.LBE939:
 231:libDaisy//src/hid/disp/graphics_common.h ****                         int16_t(other.GetBottom() - height_),
 2852              		.loc 14 231 50 view .LVU634
 2853 0318 FF1A     		subs	r7, r7, r3
 2854 031a EDE7     		b	.L186
 2855              	.L199:
ARM GAS  /var/folders/z2/7_lhr9dn53s9tj4s0rwtyswm0000gn/T//ccRFfwbB.s 			page 91


 2856              		.align	2
 2857              	.L198:
 2858 031c 00000000 		.word	_ZNK5daisy11OledDisplayINS_13SSD130xDriverILj128ELj64ENS_24SSD130x4WireSpiTransportEEEE5Widt
 2859 0320 00000000 		.word	_ZNK5daisy11OledDisplayINS_13SSD130xDriverILj128ELj64ENS_24SSD130x4WireSpiTransportEEEE6Heig
 2860              	.LVL182:
 2861              	.L118:
 240:libDaisy//src/hid/disp/graphics_common.h ****                 return {other.x_,
 2862              		.loc 14 240 13 is_stmt 1 view .LVU635
 241:libDaisy//src/hid/disp/graphics_common.h ****                         int16_t(y_ + (other.GetCenterY() - GetCenterY())),
 2863              		.loc 14 241 17 view .LVU636
 2864              	.LBB941:
 2865              	.LBB942:
  63:libDaisy//src/hid/disp/graphics_common.h **** 
 2866              		.loc 14 63 54 is_stmt 0 view .LVU637
 2867 0324 B4F90610 		ldrsh	r1, [r4, #6]
 2868              	.LVL183:
  63:libDaisy//src/hid/disp/graphics_common.h **** 
 2869              		.loc 14 63 54 view .LVU638
 2870              	.LBE942:
 2871              	.LBE941:
 241:libDaisy//src/hid/disp/graphics_common.h ****                         int16_t(y_ + (other.GetCenterY() - GetCenterY())),
 2872              		.loc 14 241 31 view .LVU639
 2873 0328 B4F90070 		ldrsh	r7, [r4]
 2874              	.LVL184:
 2875              	.LBB947:
 2876              	.LBI941:
  63:libDaisy//src/hid/disp/graphics_common.h **** 
 2877              		.loc 14 63 13 is_stmt 1 view .LVU640
 2878              	.LBB943:
  63:libDaisy//src/hid/disp/graphics_common.h **** 
 2879              		.loc 14 63 34 view .LVU641
  63:libDaisy//src/hid/disp/graphics_common.h **** 
 2880              		.loc 14 63 34 is_stmt 0 view .LVU642
 2881              	.LBE943:
 2882              	.LBE947:
 2883              	.LBB948:
 2884              	.LBI948:
  63:libDaisy//src/hid/disp/graphics_common.h **** 
 2885              		.loc 14 63 13 is_stmt 1 view .LVU643
 2886              	.LBB949:
  63:libDaisy//src/hid/disp/graphics_common.h **** 
 2887              		.loc 14 63 34 view .LVU644
  63:libDaisy//src/hid/disp/graphics_common.h **** 
 2888              		.loc 14 63 34 is_stmt 0 view .LVU645
 2889              	.LBE949:
 2890              	.LBE948:
 2891              	.LBB950:
 2892              	.LBB944:
  63:libDaisy//src/hid/disp/graphics_common.h **** 
 2893              		.loc 14 63 54 view .LVU646
 2894 032c 0029     		cmp	r1, #0
  63:libDaisy//src/hid/disp/graphics_common.h **** 
 2895              		.loc 14 63 44 view .LVU647
 2896 032e 6488     		ldrh	r4, [r4, #2]
 2897              	.LVL185:
  63:libDaisy//src/hid/disp/graphics_common.h **** 
 2898              		.loc 14 63 44 view .LVU648
ARM GAS  /var/folders/z2/7_lhr9dn53s9tj4s0rwtyswm0000gn/T//ccRFfwbB.s 			page 92


 2899              	.LBE944:
 2900              	.LBE950:
 2901              	.LBB951:
 2902              	.LBB952:
 2903              	.LBB953:
  32:libDaisy//src/hid/disp/graphics_common.h ****     {
 2904              		.loc 14 32 66 view .LVU649
 2905 0330 0698     		ldr	r0, [sp, #24]
 2906              	.LBE953:
 2907              	.LBE952:
 2908              	.LBE951:
 2909              	.LBB965:
 2910              	.LBB945:
  63:libDaisy//src/hid/disp/graphics_common.h **** 
 2911              		.loc 14 63 54 view .LVU650
 2912 0332 B8BF     		it	lt
 2913 0334 0131     		addlt	r1, r1, #1
 2914              	.LBE945:
 2915              	.LBE965:
 2916              	.LBB966:
 2917              	.LBB960:
 2918              	.LBB956:
  32:libDaisy//src/hid/disp/graphics_common.h ****     {
 2919              		.loc 14 32 66 view .LVU651
 2920 0336 C280     		strh	r2, [r0, #6]	@ movhi
 2921              	.LBE956:
 2922              	.LBE960:
 2923              	.LBE966:
 2924              	.LBB967:
 2925              	.LBB946:
  63:libDaisy//src/hid/disp/graphics_common.h **** 
 2926              		.loc 14 63 44 view .LVU652
 2927 0338 04EB6104 		add	r4, r4, r1, asr #1
 2928              	.LBE946:
 2929              	.LBE967:
 2930              	.LBB968:
 2931              	.LBB961:
 2932              	.LBB957:
  32:libDaisy//src/hid/disp/graphics_common.h ****     {
 2933              		.loc 14 32 66 view .LVU653
 2934 033c 0780     		strh	r7, [r0]	@ movhi
 2935 033e 8380     		strh	r3, [r0, #4]	@ movhi
 2936              	.LBE957:
 2937              	.LBE961:
 2938              	.LBE968:
 2939              	.LBE991:
 2940              	.LBE1069:
 468:libDaisy//src/hid/disp/display.h ****         ((ChildType*)(this))->ChildType::WriteString(str, font, on);
 2941              		.loc 3 468 18 view .LVU654
 2942 0340 BFB2     		uxth	r7, r7
 2943              	.LBB1070:
 2944              	.LBB992:
 242:libDaisy//src/hid/disp/graphics_common.h ****                         width_,
 2945              		.loc 14 242 58 view .LVU655
 2946 0342 A4EB5202 		sub	r2, r4, r2, lsr #1
 2947 0346 94B2     		uxth	r4, r2
 2948              	.LVL186:
ARM GAS  /var/folders/z2/7_lhr9dn53s9tj4s0rwtyswm0000gn/T//ccRFfwbB.s 			page 93


 2949              	.LBB969:
 2950              	.LBI951:
  31:libDaisy//src/hid/disp/graphics_common.h ****     : x_(x), y_(y), width_(max(0, width)), height_(max(0, height))
 2951              		.loc 14 31 5 is_stmt 1 view .LVU656
 2952              	.LBB962:
 2953              	.LBB958:
  32:libDaisy//src/hid/disp/graphics_common.h ****     {
 2954              		.loc 14 32 66 is_stmt 0 view .LVU657
 2955 0348 4480     		strh	r4, [r0, #2]	@ movhi
 2956              	.LVL187:
 2957              	.LBB954:
 2958              	.LBI954:
 2959              		.loc 14 261 13 is_stmt 1 view .LVU658
 2960              	.LBE954:
 2961              	.LBE958:
 2962              	.LBE962:
 2963              	.LBE969:
 2964              	.LBE992:
 2965              	.LBE1070:
 2966              		.loc 14 261 41 view .LVU659
 2967              	.LBB1071:
 2968              	.LBB993:
 2969              	.LBB970:
 2970              	.LBB963:
 2971              	.LBB959:
 2972              	.LBB955:
 2973              	.LBI955:
 2974              		.loc 14 261 13 view .LVU660
 2975              	.LBE955:
 2976              	.LBE959:
 2977              	.LBE963:
 2978              	.LBE970:
 2979              	.LBE993:
 2980              	.LBE1071:
 2981              		.loc 14 261 41 view .LVU661
 2982              	.LBB1072:
 2983              	.LBB994:
 2984              	.LBB971:
 2985              	.LBB964:
  34:libDaisy//src/hid/disp/graphics_common.h **** 
 2986              		.loc 14 34 5 is_stmt 0 view .LVU662
 2987 034a 9AE6     		b	.L126
 2988              	.LVL188:
 2989              	.L146:
  34:libDaisy//src/hid/disp/graphics_common.h **** 
 2990              		.loc 14 34 5 view .LVU663
 2991              	.LBE964:
 2992              	.LBE971:
 2993              	.LBE994:
 2994              	.LBE1072:
 2995              	.LBB1073:
 2996              	.LBB1051:
 2997              	.LBB1048:
 2998              	.LBB1047:
 402:libDaisy//src/hid/disp/display.h **** 
 2999              		.loc 3 402 20 view .LVU664
 3000 034c 4FF0000B 		mov	fp, #0
ARM GAS  /var/folders/z2/7_lhr9dn53s9tj4s0rwtyswm0000gn/T//ccRFfwbB.s 			page 94


 3001              	.LVL189:
 402:libDaisy//src/hid/disp/display.h **** 
 3002              		.loc 3 402 20 view .LVU665
 3003 0350 6BE7     		b	.L144
 3004              	.LVL190:
 3005              	.L191:
 405:libDaisy//src/hid/disp/display.h ****            || Height() < (currentY_ + font.FontHeight))
 3006              		.loc 3 405 17 view .LVU666
 3007 0352 4046     		mov	r0, r8
 3008 0354 9847     		blx	r3
 3009              	.LVL191:
 3010 0356 D5E6     		b	.L145
 3011              	.L192:
 406:libDaisy//src/hid/disp/display.h ****         {
 3012              		.loc 3 406 21 view .LVU667
 3013 0358 4046     		mov	r0, r8
 3014 035a 9847     		blx	r3
 3015              	.LVL192:
 3016 035c E0E6     		b	.L147
 3017              	.LVL193:
 3018              	.L196:
 3019              	.LBB1045:
 3020              	.LBB1041:
 174:libDaisy//src/hid/disp/display.h ****     }
 3021              		.loc 3 174 33 view .LVU668
 3022 035e 4046     		mov	r0, r8
 3023 0360 9847     		blx	r3
 3024              	.LVL194:
 3025 0362 53E7     		b	.L161
 3026              	.LVL195:
 3027              	.L194:
 173:libDaisy//src/hid/disp/display.h ****         currentY_ = (y >= Height()) ? Height() - 1 : y;
 3028              		.loc 3 173 32 view .LVU669
 3029 0364 4046     		mov	r0, r8
 3030 0366 9847     		blx	r3
 3031              	.LVL196:
 173:libDaisy//src/hid/disp/display.h ****         currentY_ = (y >= Height()) ? Height() - 1 : y;
 3032              		.loc 3 173 44 view .LVU670
 3033 0368 D8F80020 		ldr	r2, [r8]
 3034 036c 3EE7     		b	.L158
 3035              	.LVL197:
 3036              	.L148:
 173:libDaisy//src/hid/disp/display.h ****         currentY_ = (y >= Height()) ? Height() - 1 : y;
 3037              		.loc 3 173 44 view .LVU671
 3038              	.LBE1041:
 3039              	.LBE1045:
 434:libDaisy//src/hid/disp/display.h **** 
 3040              		.loc 3 434 19 view .LVU672
 3041 036e B8F804A0 		ldrh	r10, [r8, #4]
 3042 0372 30E7     		b	.L150
 3043              	.LVL198:
 3044              	.L197:
 3045              	.LBB1046:
 3046              	.LBB1042:
 174:libDaisy//src/hid/disp/display.h ****     }
 3047              		.loc 3 174 45 view .LVU673
 3048 0374 4046     		mov	r0, r8
ARM GAS  /var/folders/z2/7_lhr9dn53s9tj4s0rwtyswm0000gn/T//ccRFfwbB.s 			page 95


 3049 0376 9847     		blx	r3
 3050              	.LVL199:
 174:libDaisy//src/hid/disp/display.h ****     }
 3051              		.loc 3 174 19 view .LVU674
 3052 0378 0138     		subs	r0, r0, #1
 3053 037a 83B2     		uxth	r3, r0
 3054 037c 0293     		str	r3, [sp, #8]
 3055              	.LVL200:
 174:libDaisy//src/hid/disp/display.h ****     }
 3056              		.loc 3 174 19 view .LVU675
 3057 037e 51E7     		b	.L162
 3058              	.LVL201:
 3059              	.L195:
 173:libDaisy//src/hid/disp/display.h ****         currentY_ = (y >= Height()) ? Height() - 1 : y;
 3060              		.loc 3 173 43 view .LVU676
 3061 0380 4046     		mov	r0, r8
 3062 0382 9847     		blx	r3
 3063              	.LVL202:
 173:libDaisy//src/hid/disp/display.h ****         currentY_ = (y >= Height()) ? Height() - 1 : y;
 3064              		.loc 3 173 19 view .LVU677
 3065 0384 0138     		subs	r0, r0, #1
 174:libDaisy//src/hid/disp/display.h ****     }
 3066              		.loc 3 174 34 view .LVU678
 3067 0386 D8F80020 		ldr	r2, [r8]
 173:libDaisy//src/hid/disp/display.h ****         currentY_ = (y >= Height()) ? Height() - 1 : y;
 3068              		.loc 3 173 19 view .LVU679
 3069 038a 85B2     		uxth	r5, r0
 3070              	.LVL203:
 173:libDaisy//src/hid/disp/display.h ****         currentY_ = (y >= Height()) ? Height() - 1 : y;
 3071              		.loc 3 173 19 view .LVU680
 3072 038c 36E7     		b	.L159
 3073              	.LVL204:
 3074              	.L115:
 173:libDaisy//src/hid/disp/display.h ****         currentY_ = (y >= Height()) ? Height() - 1 : y;
 3075              		.loc 3 173 19 view .LVU681
 3076              	.LBE1042:
 3077              	.LBE1046:
 3078              	.LBE1047:
 3079              	.LBE1048:
 3080              	.LBE1051:
 3081              	.LBE1073:
 3082              	.LBB1074:
 3083              	.LBB995:
 255:libDaisy//src/hid/disp/graphics_common.h ****         }
 3084              		.loc 14 255 13 is_stmt 1 view .LVU682
 255:libDaisy//src/hid/disp/graphics_common.h ****         }
 3085              		.loc 14 255 22 view .LVU683
 3086              	.LBB972:
 3087              	.LBI972:
  24:libDaisy//src/hid/disp/graphics_common.h **** 
 3088              		.loc 14 24 5 view .LVU684
 3089              	.LBE972:
 3090              	.LBE995:
 3091              	.LBE1074:
 3092              	.LBB1075:
 3093              	.LBB1001:
 173:libDaisy//src/hid/disp/display.h ****         currentY_ = (y >= Height()) ? Height() - 1 : y;
ARM GAS  /var/folders/z2/7_lhr9dn53s9tj4s0rwtyswm0000gn/T//ccRFfwbB.s 			page 96


 3094              		.loc 3 173 33 is_stmt 0 view .LVU685
 3095 038e D8F80030 		ldr	r3, [r8]
 3096              	.LBE1001:
 3097              	.LBE1075:
 3098              	.LBB1076:
 3099              	.LBB996:
 3100              	.LBB974:
 3101              	.LBB973:
  24:libDaisy//src/hid/disp/graphics_common.h **** 
 3102              		.loc 14 24 53 view .LVU686
 3103 0392 0024     		movs	r4, #0
 3104              	.LVL205:
  24:libDaisy//src/hid/disp/graphics_common.h **** 
 3105              		.loc 14 24 53 view .LVU687
 3106 0394 069A     		ldr	r2, [sp, #24]
 3107 0396 1349     		ldr	r1, .L200
 3108              	.LVL206:
  24:libDaisy//src/hid/disp/graphics_common.h **** 
 3109              		.loc 14 24 53 view .LVU688
 3110 0398 1480     		strh	r4, [r2]	@ movhi
 3111 039a 5480     		strh	r4, [r2, #2]	@ movhi
 3112 039c 9480     		strh	r4, [r2, #4]	@ movhi
 3113 039e D480     		strh	r4, [r2, #6]	@ movhi
 3114              	.LVL207:
  24:libDaisy//src/hid/disp/graphics_common.h **** 
 3115              		.loc 14 24 53 view .LVU689
 3116              	.LBE973:
 3117              	.LBE974:
 3118              	.LBE996:
 3119              	.LBE1076:
  56:libDaisy//src/hid/disp/graphics_common.h ****     int16_t GetY() const { return y_; }
 3120              		.loc 14 56 28 is_stmt 1 view .LVU690
  57:libDaisy//src/hid/disp/graphics_common.h ****     int16_t GetWidth() const { return width_; }
 3121              		.loc 14 57 28 view .LVU691
 3122              	.LBB1077:
 171:libDaisy//src/hid/disp/display.h ****     {
 3123              		.loc 3 171 10 view .LVU692
 3124              	.LBB1002:
 173:libDaisy//src/hid/disp/display.h ****         currentY_ = (y >= Height()) ? Height() - 1 : y;
 3125              		.loc 3 173 9 view .LVU693
 173:libDaisy//src/hid/disp/display.h ****         currentY_ = (y >= Height()) ? Height() - 1 : y;
 3126              		.loc 3 173 33 is_stmt 0 view .LVU694
 3127 03a0 DA68     		ldr	r2, [r3, #12]
 3128 03a2 0191     		str	r1, [sp, #4]
 3129 03a4 8A42     		cmp	r2, r1
 3130 03a6 05D0     		beq	.L133
 3131 03a8 2746     		mov	r7, r4
 3132              	.LVL208:
 3133              	.L134:
 173:libDaisy//src/hid/disp/display.h ****         currentY_ = (y >= Height()) ? Height() - 1 : y;
 3134              		.loc 3 173 32 view .LVU695
 3135 03aa 4046     		mov	r0, r8
 3136 03ac 9047     		blx	r2
 3137              	.LVL209:
 173:libDaisy//src/hid/disp/display.h ****         currentY_ = (y >= Height()) ? Height() - 1 : y;
 3138              		.loc 3 173 44 view .LVU696
 3139 03ae D8F80030 		ldr	r3, [r8]
ARM GAS  /var/folders/z2/7_lhr9dn53s9tj4s0rwtyswm0000gn/T//ccRFfwbB.s 			page 97


 3140 03b2 70E6     		b	.L135
 3141              	.LVL210:
 3142              	.L133:
 174:libDaisy//src/hid/disp/display.h ****     }
 3143              		.loc 3 174 34 view .LVU697
 3144 03b4 9B68     		ldr	r3, [r3, #8]
 3145 03b6 0C4A     		ldr	r2, .L200+4
 173:libDaisy//src/hid/disp/display.h ****         currentY_ = (y >= Height()) ? Height() - 1 : y;
 3146              		.loc 3 173 19 view .LVU698
 3147 03b8 A8F80440 		strh	r4, [r8, #4]	@ movhi
 174:libDaisy//src/hid/disp/display.h ****     }
 3148              		.loc 3 174 9 is_stmt 1 view .LVU699
 3149 03bc 9342     		cmp	r3, r2
 3150 03be 0392     		str	r2, [sp, #12]
 3151 03c0 3FF484AE 		beq	.L140
 3152              	.LVL211:
 3153              	.L166:
 174:libDaisy//src/hid/disp/display.h ****     }
 3154              		.loc 3 174 33 is_stmt 0 view .LVU700
 3155 03c4 4046     		mov	r0, r8
 3156 03c6 9847     		blx	r3
 3157              	.LVL212:
 3158 03c8 76E6     		b	.L138
 3159              	.L190:
 174:libDaisy//src/hid/disp/display.h ****     }
 3160              		.loc 3 174 45 view .LVU701
 3161 03ca 4046     		mov	r0, r8
 3162 03cc 9847     		blx	r3
 3163              	.LVL213:
 174:libDaisy//src/hid/disp/display.h ****     }
 3164              		.loc 3 174 19 view .LVU702
 3165 03ce 0138     		subs	r0, r0, #1
 3166 03d0 84B2     		uxth	r4, r0
 3167 03d2 7BE6     		b	.L140
 3168              	.L189:
 173:libDaisy//src/hid/disp/display.h ****         currentY_ = (y >= Height()) ? Height() - 1 : y;
 3169              		.loc 3 173 43 view .LVU703
 3170 03d4 4046     		mov	r0, r8
 3171 03d6 9047     		blx	r2
 3172              	.LVL214:
 173:libDaisy//src/hid/disp/display.h ****         currentY_ = (y >= Height()) ? Height() - 1 : y;
 3173              		.loc 3 173 19 view .LVU704
 3174 03d8 0138     		subs	r0, r0, #1
 174:libDaisy//src/hid/disp/display.h ****     }
 3175              		.loc 3 174 34 view .LVU705
 3176 03da D8F80030 		ldr	r3, [r8]
 173:libDaisy//src/hid/disp/display.h ****         currentY_ = (y >= Height()) ? Height() - 1 : y;
 3177              		.loc 3 173 19 view .LVU706
 3178 03de 87B2     		uxth	r7, r0
 3179 03e0 61E6     		b	.L136
 3180              	.L201:
 3181 03e2 00BF     		.align	2
 3182              	.L200:
 3183 03e4 00000000 		.word	_ZNK5daisy11OledDisplayINS_13SSD130xDriverILj128ELj64ENS_24SSD130x4WireSpiTransportEEEE5Widt
 3184 03e8 00000000 		.word	_ZNK5daisy11OledDisplayINS_13SSD130xDriverILj128ELj64ENS_24SSD130x4WireSpiTransportEEEE6Heig
 3185              	.LBE1002:
 3186              	.LBE1077:
ARM GAS  /var/folders/z2/7_lhr9dn53s9tj4s0rwtyswm0000gn/T//ccRFfwbB.s 			page 98


 3187              		.cfi_endproc
 3188              	.LFE5453:
 3190              		.section	.text._ZN5daisy11OledDisplayINS_13SSD130xDriverILj128ELj64ENS_24SSD130x4WireSpiTransportE
 3191              		.align	1
 3192              		.p2align 2,,3
 3193              		.weak	_ZN5daisy11OledDisplayINS_13SSD130xDriverILj128ELj64ENS_24SSD130x4WireSpiTransportEEEE9DrawP
 3194              		.syntax unified
 3195              		.thumb
 3196              		.thumb_func
 3198              	_ZN5daisy11OledDisplayINS_13SSD130xDriverILj128ELj64ENS_24SSD130x4WireSpiTransportEEEE9DrawPixelEjj
 3199              	.LVL215:
 3200              	.LFB5447:
  42:libDaisy//src/hid/disp/oled_display.h ****     {
 3201              		.loc 2 42 10 is_stmt 1 view -0
 3202              		.cfi_startproc
 3203              		@ args = 0, pretend = 0, frame = 0
 3204              		@ frame_needed = 0, uses_anonymous_args = 0
 3205              		@ link register save eliminated.
 3206              	.LBB1082:
 3207              	.LBI1082:
 352:libDaisy//src/dev/oled_ssd130x.h ****     {
 3208              		.loc 12 352 10 view .LVU708
 3209              	.LBB1083:
 354:libDaisy//src/dev/oled_ssd130x.h ****             return;
 3210              		.loc 12 354 9 is_stmt 0 view .LVU709
 3211 0000 7F29     		cmp	r1, #127
 3212 0002 1ED8     		bhi	.L202
 3213 0004 3F2A     		cmp	r2, #63
 3214 0006 1CD8     		bhi	.L202
 356:libDaisy//src/dev/oled_ssd130x.h ****             buffer_[x + (y / 8) * width] |= (1 << (y % 8));
 3215              		.loc 12 356 9 view .LVU710
 3216 0008 6BB1     		cbz	r3, .L204
 357:libDaisy//src/dev/oled_ssd130x.h ****         else
 3217              		.loc 12 357 28 view .LVU711
 3218 000a D308     		lsrs	r3, r2, #3
 3219              	.LVL216:
 357:libDaisy//src/dev/oled_ssd130x.h ****         else
 3220              		.loc 12 357 48 view .LVU712
 3221 000c 4FF0010C 		mov	ip, #1
 357:libDaisy//src/dev/oled_ssd130x.h ****         else
 3222              		.loc 12 357 54 view .LVU713
 3223 0010 02F00702 		and	r2, r2, #7
 3224              	.LVL217:
 357:libDaisy//src/dev/oled_ssd130x.h ****         else
 3225              		.loc 12 357 42 view .LVU714
 3226 0014 01EBC313 		add	r3, r1, r3, lsl #7
 357:libDaisy//src/dev/oled_ssd130x.h ****         else
 3227              		.loc 12 357 48 view .LVU715
 3228 0018 0CFA02F2 		lsl	r2, ip, r2
 357:libDaisy//src/dev/oled_ssd130x.h ****         else
 3229              		.loc 12 357 42 view .LVU716
 3230 001c C118     		adds	r1, r0, r3
 3231              	.LVL218:
 357:libDaisy//src/dev/oled_ssd130x.h ****         else
 3232              		.loc 12 357 42 view .LVU717
 3233 001e 0B7D     		ldrb	r3, [r1, #20]	@ zero_extendqisi2
 3234 0020 1A43     		orrs	r2, r2, r3
ARM GAS  /var/folders/z2/7_lhr9dn53s9tj4s0rwtyswm0000gn/T//ccRFfwbB.s 			page 99


 3235 0022 0A75     		strb	r2, [r1, #20]
 3236 0024 7047     		bx	lr
 3237              	.LVL219:
 3238              	.L204:
 3239              	.LBB1084:
 3240              	.LBI1084:
 352:libDaisy//src/dev/oled_ssd130x.h ****     {
 3241              		.loc 12 352 10 is_stmt 1 view .LVU718
 3242              	.LBB1085:
 359:libDaisy//src/dev/oled_ssd130x.h ****     }
 3243              		.loc 12 359 28 is_stmt 0 view .LVU719
 3244 0026 D308     		lsrs	r3, r2, #3
 3245              	.LVL220:
 359:libDaisy//src/dev/oled_ssd130x.h ****     }
 3246              		.loc 12 359 49 view .LVU720
 3247 0028 4FF0010C 		mov	ip, #1
 359:libDaisy//src/dev/oled_ssd130x.h ****     }
 3248              		.loc 12 359 55 view .LVU721
 3249 002c 02F00702 		and	r2, r2, #7
 3250              	.LVL221:
 359:libDaisy//src/dev/oled_ssd130x.h ****     }
 3251              		.loc 12 359 42 view .LVU722
 3252 0030 01EBC313 		add	r3, r1, r3, lsl #7
 359:libDaisy//src/dev/oled_ssd130x.h ****     }
 3253              		.loc 12 359 49 view .LVU723
 3254 0034 0CFA02FC 		lsl	ip, ip, r2
 359:libDaisy//src/dev/oled_ssd130x.h ****     }
 3255              		.loc 12 359 42 view .LVU724
 3256 0038 C118     		adds	r1, r0, r3
 3257              	.LVL222:
 359:libDaisy//src/dev/oled_ssd130x.h ****     }
 3258              		.loc 12 359 42 view .LVU725
 3259 003a 0A7D     		ldrb	r2, [r1, #20]	@ zero_extendqisi2
 3260 003c 22EA0C02 		bic	r2, r2, ip
 3261 0040 0A75     		strb	r2, [r1, #20]
 3262              	.LVL223:
 3263              	.L202:
 359:libDaisy//src/dev/oled_ssd130x.h ****     }
 3264              		.loc 12 359 42 view .LVU726
 3265              	.LBE1085:
 3266              	.LBE1084:
 3267              	.LBE1083:
 3268              	.LBE1082:
  45:libDaisy//src/hid/disp/oled_display.h **** 
 3269              		.loc 2 45 5 view .LVU727
 3270 0042 7047     		bx	lr
 3271              		.cfi_endproc
 3272              	.LFE5447:
 3274              		.section	.text._ZN5daisy25OneBitGraphicsDisplayImplINS_11OledDisplayINS_13SSD130xDriverILj128ELj64
 3275              		.align	1
 3276              		.p2align 2,,3
 3277              		.weak	_ZN5daisy25OneBitGraphicsDisplayImplINS_11OledDisplayINS_13SSD130xDriverILj128ELj64ENS_24SSD
 3278              		.syntax unified
 3279              		.thumb
 3280              		.thumb_func
 3282              	_ZN5daisy25OneBitGraphicsDisplayImplINS_11OledDisplayINS_13SSD130xDriverILj128ELj64ENS_24SSD130x4Wi
 3283              	.LVL224:
ARM GAS  /var/folders/z2/7_lhr9dn53s9tj4s0rwtyswm0000gn/T//ccRFfwbB.s 			page 100


 3284              	.LFB5448:
 221:libDaisy//src/hid/disp/display.h ****                   uint_fast8_t y1,
 3285              		.loc 3 221 10 is_stmt 1 view -0
 3286              		.cfi_startproc
 3287              		@ args = 8, pretend = 0, frame = 8
 3288              		@ frame_needed = 0, uses_anonymous_args = 0
 221:libDaisy//src/hid/disp/display.h ****                   uint_fast8_t y1,
 3289              		.loc 3 221 10 is_stmt 0 view .LVU729
 3290 0000 2DE9F04F 		push	{r4, r5, r6, r7, r8, r9, r10, fp, lr}
 3291              		.cfi_def_cfa_offset 36
 3292              		.cfi_offset 4, -36
 3293              		.cfi_offset 5, -32
 3294              		.cfi_offset 6, -28
 3295              		.cfi_offset 7, -24
 3296              		.cfi_offset 8, -20
 3297              		.cfi_offset 9, -16
 3298              		.cfi_offset 10, -12
 3299              		.cfi_offset 11, -8
 3300              		.cfi_offset 14, -4
 3301 0004 83B0     		sub	sp, sp, #12
 3302              		.cfi_def_cfa_offset 48
 227:libDaisy//src/hid/disp/display.h ****         int_fast16_t deltaY = abs((int_fast16_t)y2 - (int_fast16_t)y1);
 3303              		.loc 3 227 52 view .LVU730
 3304 0006 5C1A     		subs	r4, r3, r1
 221:libDaisy//src/hid/disp/display.h ****                   uint_fast8_t y1,
 3305              		.loc 3 221 10 view .LVU731
 3306 0008 0C9E     		ldr	r6, [sp, #48]
 227:libDaisy//src/hid/disp/display.h ****         int_fast16_t deltaY = abs((int_fast16_t)y2 - (int_fast16_t)y1);
 3307              		.loc 3 227 22 view .LVU732
 3308 000a 002C     		cmp	r4, #0
 221:libDaisy//src/hid/disp/display.h ****                   uint_fast8_t y1,
 3309              		.loc 3 221 10 view .LVU733
 3310 000c 9DF83490 		ldrb	r9, [sp, #52]	@ zero_extendqisi2
 228:libDaisy//src/hid/disp/display.h ****         int_fast16_t signX  = ((x1 < x2) ? 1 : -1);
 3311              		.loc 3 228 52 view .LVU734
 3312 0010 A6EB0208 		sub	r8, r6, r2
 227:libDaisy//src/hid/disp/display.h ****         int_fast16_t deltaY = abs((int_fast16_t)y2 - (int_fast16_t)y1);
 3313              		.loc 3 227 22 view .LVU735
 3314 0014 B8BF     		it	lt
 3315 0016 6442     		rsblt	r4, r4, #0
 3316              	.LVL225:
 228:libDaisy//src/hid/disp/display.h ****         int_fast16_t signX  = ((x1 < x2) ? 1 : -1);
 3317              		.loc 3 228 22 view .LVU736
 3318 0018 B8F1000F 		cmp	r8, #0
 3319 001c B8BF     		it	lt
 3320 001e C8F10008 		rsblt	r8, r8, #0
 3321              	.LVL226:
 229:libDaisy//src/hid/disp/display.h ****         int_fast16_t signY  = ((y1 < y2) ? 1 : -1);
 3322              		.loc 3 229 42 view .LVU737
 3323 0022 8B42     		cmp	r3, r1
 3324 0024 8CBF     		ite	hi
 3325 0026 4FF0010A 		movhi	r10, #1
 3326 002a 4FF0FF3A 		movls	r10, #-1
 3327              	.LVL227:
 230:libDaisy//src/hid/disp/display.h ****         int_fast16_t error  = deltaX - deltaY;
 3328              		.loc 3 230 42 view .LVU738
 3329 002e 9642     		cmp	r6, r2
ARM GAS  /var/folders/z2/7_lhr9dn53s9tj4s0rwtyswm0000gn/T//ccRFfwbB.s 			page 101


 231:libDaisy//src/hid/disp/display.h ****         int_fast16_t error2;
 3330              		.loc 3 231 22 view .LVU739
 3331 0030 A4EB080C 		sub	ip, r4, r8
 230:libDaisy//src/hid/disp/display.h ****         int_fast16_t error  = deltaX - deltaY;
 3332              		.loc 3 230 42 view .LVU740
 3333 0034 51D8     		bhi	.L207
 3334              	.LVL228:
 3335              	.LBB1102:
 3336              	.LBI1102:
  42:libDaisy//src/hid/disp/oled_display.h ****     {
 3337              		.loc 2 42 10 is_stmt 1 discriminator 4 view .LVU741
 3338              	.LBB1103:
 3339              	.LBI1103:
 352:libDaisy//src/dev/oled_ssd130x.h ****     {
 3340              		.loc 12 352 10 discriminator 4 view .LVU742
 3341              	.LBE1103:
 3342              	.LBE1102:
 230:libDaisy//src/hid/disp/display.h ****         int_fast16_t error  = deltaX - deltaY;
 3343              		.loc 3 230 42 is_stmt 0 discriminator 4 view .LVU743
 3344 0036 4FF0FF35 		mov	r5, #-1
 3345              	.LBB1119:
 3346              	.LBB1113:
 3347              	.LBB1104:
 354:libDaisy//src/dev/oled_ssd130x.h ****             return;
 3348              		.loc 12 354 9 discriminator 4 view .LVU744
 3349 003a 7F2B     		cmp	r3, #127
 3350              	.LBE1104:
 3351              	.LBE1113:
 3352              	.LBE1119:
 230:libDaisy//src/hid/disp/display.h ****         int_fast16_t error  = deltaX - deltaY;
 3353              		.loc 3 230 42 discriminator 4 view .LVU745
 3354 003c 0195     		str	r5, [sp, #4]
 3355              	.LBB1120:
 3356              	.LBB1114:
 3357              	.LBB1109:
 354:libDaisy//src/dev/oled_ssd130x.h ****             return;
 3358              		.loc 12 354 9 discriminator 4 view .LVU746
 3359 003e 12D8     		bhi	.L208
 3360 0040 3F2E     		cmp	r6, #63
 3361 0042 10D8     		bhi	.L208
 3362              	.LVL229:
 3363              	.L219:
 357:libDaisy//src/dev/oled_ssd130x.h ****         else
 3364              		.loc 12 357 28 view .LVU747
 3365 0044 F508     		lsrs	r5, r6, #3
 357:libDaisy//src/dev/oled_ssd130x.h ****         else
 3366              		.loc 12 357 54 view .LVU748
 3367 0046 06F0070E 		and	lr, r6, #7
 357:libDaisy//src/dev/oled_ssd130x.h ****         else
 3368              		.loc 12 357 48 view .LVU749
 3369 004a 0127     		movs	r7, #1
 357:libDaisy//src/dev/oled_ssd130x.h ****         else
 3370              		.loc 12 357 42 view .LVU750
 3371 004c 03EBC515 		add	r5, r3, r5, lsl #7
 3372 0050 0544     		add	r5, r5, r0
 356:libDaisy//src/dev/oled_ssd130x.h ****             buffer_[x + (y / 8) * width] |= (1 << (y % 8));
 3373              		.loc 12 356 9 view .LVU751
ARM GAS  /var/folders/z2/7_lhr9dn53s9tj4s0rwtyswm0000gn/T//ccRFfwbB.s 			page 102


 3374 0052 B9F1000F 		cmp	r9, #0
 3375 0056 47D0     		beq	.L209
 357:libDaisy//src/dev/oled_ssd130x.h ****         else
 3376              		.loc 12 357 48 view .LVU752
 3377 0058 07FA0EF7 		lsl	r7, r7, lr
 357:libDaisy//src/dev/oled_ssd130x.h ****         else
 3378              		.loc 12 357 42 view .LVU753
 3379 005c 95F814E0 		ldrb	lr, [r5, #20]	@ zero_extendqisi2
 3380 0060 47EA0E07 		orr	r7, r7, lr
 3381 0064 2F75     		strb	r7, [r5, #20]
 3382              	.LVL230:
 3383              	.L208:
 357:libDaisy//src/dev/oled_ssd130x.h ****         else
 3384              		.loc 12 357 42 view .LVU754
 3385              	.LBE1109:
 3386              	.LBE1114:
 3387              	.LBE1120:
 239:libDaisy//src/hid/disp/display.h ****         {
 3388              		.loc 3 239 26 is_stmt 1 view .LVU755
 3389 0066 9642     		cmp	r6, r2
 3390 0068 01D1     		bne	.L212
 3391              	.L231:
 239:libDaisy//src/hid/disp/display.h ****         {
 3392              		.loc 3 239 26 is_stmt 0 view .LVU756
 3393 006a 8B42     		cmp	r3, r1
 3394 006c 29D0     		beq	.L205
 3395              	.L212:
 3396              	.LVL231:
 243:libDaisy//src/hid/disp/display.h ****             {
 3397              		.loc 3 243 23 view .LVU757
 3398 006e C8F10007 		rsb	r7, r8, #0
 3399              	.L214:
 3400              	.LVL232:
 3401              	.LBB1121:
 3402              	.LBI1121:
  42:libDaisy//src/hid/disp/oled_display.h ****     {
 3403              		.loc 2 42 10 is_stmt 1 view .LVU758
 3404              	.LBB1122:
 3405              	.LBI1122:
 352:libDaisy//src/dev/oled_ssd130x.h ****     {
 3406              		.loc 12 352 10 view .LVU759
 3407              	.LBB1123:
 354:libDaisy//src/dev/oled_ssd130x.h ****             return;
 3408              		.loc 12 354 9 is_stmt 0 view .LVU760
 3409 0072 7F29     		cmp	r1, #127
 3410 0074 14D8     		bhi	.L215
 3411 0076 3F2A     		cmp	r2, #63
 3412 0078 12D8     		bhi	.L215
 357:libDaisy//src/dev/oled_ssd130x.h ****         else
 3413              		.loc 12 357 28 view .LVU761
 3414 007a D508     		lsrs	r5, r2, #3
 357:libDaisy//src/dev/oled_ssd130x.h ****         else
 3415              		.loc 12 357 54 view .LVU762
 3416 007c 02F0070B 		and	fp, r2, #7
 357:libDaisy//src/dev/oled_ssd130x.h ****         else
 3417              		.loc 12 357 48 view .LVU763
 3418 0080 4FF0010E 		mov	lr, #1
ARM GAS  /var/folders/z2/7_lhr9dn53s9tj4s0rwtyswm0000gn/T//ccRFfwbB.s 			page 103


 357:libDaisy//src/dev/oled_ssd130x.h ****         else
 3419              		.loc 12 357 42 view .LVU764
 3420 0084 01EBC515 		add	r5, r1, r5, lsl #7
 3421 0088 0544     		add	r5, r5, r0
 356:libDaisy//src/dev/oled_ssd130x.h ****             buffer_[x + (y / 8) * width] |= (1 << (y % 8));
 3422              		.loc 12 356 9 view .LVU765
 3423 008a B9F1000F 		cmp	r9, #0
 3424 008e 1BD0     		beq	.L216
 357:libDaisy//src/dev/oled_ssd130x.h ****         else
 3425              		.loc 12 357 48 view .LVU766
 3426 0090 0EFA0BFE 		lsl	lr, lr, fp
 357:libDaisy//src/dev/oled_ssd130x.h ****         else
 3427              		.loc 12 357 42 view .LVU767
 3428 0094 95F814B0 		ldrb	fp, [r5, #20]	@ zero_extendqisi2
 3429 0098 4EEA0B0E 		orr	lr, lr, fp
 3430 009c 85F814E0 		strb	lr, [r5, #20]
 3431              	.L215:
 3432              	.LVL233:
 357:libDaisy//src/dev/oled_ssd130x.h ****         else
 3433              		.loc 12 357 42 view .LVU768
 3434              	.LBE1123:
 3435              	.LBE1122:
 3436              	.LBE1121:
 243:libDaisy//src/hid/disp/display.h ****             {
 3437              		.loc 3 243 13 view .LVU769
 3438 00a0 B7EB4C0F 		cmp	r7, ip, lsl #1
 242:libDaisy//src/hid/disp/display.h ****             if(error2 > -deltaY)
 3439              		.loc 3 242 20 view .LVU770
 3440 00a4 4FEA4C05 		lsl	r5, ip, #1
 3441              	.LVL234:
 243:libDaisy//src/hid/disp/display.h ****             {
 3442              		.loc 3 243 13 view .LVU771
 3443 00a8 02DA     		bge	.L217
 245:libDaisy//src/hid/disp/display.h ****                 x1 += signX;
 3444              		.loc 3 245 23 view .LVU772
 3445 00aa ACEB080C 		sub	ip, ip, r8
 3446              	.LVL235:
 246:libDaisy//src/hid/disp/display.h ****             }
 3447              		.loc 3 246 20 view .LVU773
 3448 00ae 5144     		add	r1, r1, r10
 3449              	.LVL236:
 3450              	.L217:
 249:libDaisy//src/hid/disp/display.h ****             {
 3451              		.loc 3 249 13 view .LVU774
 3452 00b0 AC42     		cmp	r4, r5
 3453 00b2 02DD     		ble	.L218
 252:libDaisy//src/hid/disp/display.h ****             }
 3454              		.loc 3 252 20 view .LVU775
 3455 00b4 019D     		ldr	r5, [sp, #4]
 3456              	.LVL237:
 251:libDaisy//src/hid/disp/display.h ****                 y1 += signY;
 3457              		.loc 3 251 23 view .LVU776
 3458 00b6 A444     		add	ip, ip, r4
 3459              	.LVL238:
 252:libDaisy//src/hid/disp/display.h ****             }
 3460              		.loc 3 252 20 view .LVU777
 3461 00b8 2A44     		add	r2, r2, r5
ARM GAS  /var/folders/z2/7_lhr9dn53s9tj4s0rwtyswm0000gn/T//ccRFfwbB.s 			page 104


 3462              	.LVL239:
 3463              	.L218:
 239:libDaisy//src/hid/disp/display.h ****         {
 3464              		.loc 3 239 26 is_stmt 1 view .LVU778
 3465 00ba 9942     		cmp	r1, r3
 3466 00bc D9D1     		bne	.L214
 239:libDaisy//src/hid/disp/display.h ****         {
 3467              		.loc 3 239 26 is_stmt 0 view .LVU779
 3468 00be 9642     		cmp	r6, r2
 3469 00c0 D7D1     		bne	.L214
 3470              	.L205:
 255:libDaisy//src/hid/disp/display.h **** 
 3471              		.loc 3 255 5 view .LVU780
 3472 00c2 03B0     		add	sp, sp, #12
 3473              		.cfi_remember_state
 3474              		.cfi_def_cfa_offset 36
 3475              		@ sp needed
 3476 00c4 BDE8F08F 		pop	{r4, r5, r6, r7, r8, r9, r10, fp, pc}
 3477              	.LVL240:
 3478              	.L216:
 3479              		.cfi_restore_state
 3480              	.LBB1128:
 3481              	.LBB1127:
 3482              	.LBB1126:
 3483              	.LBB1124:
 3484              	.LBI1124:
 352:libDaisy//src/dev/oled_ssd130x.h ****     {
 3485              		.loc 12 352 10 is_stmt 1 view .LVU781
 3486              	.LBB1125:
 359:libDaisy//src/dev/oled_ssd130x.h ****     }
 3487              		.loc 12 359 49 is_stmt 0 view .LVU782
 3488 00c8 0EFA0BFB 		lsl	fp, lr, fp
 359:libDaisy//src/dev/oled_ssd130x.h ****     }
 3489              		.loc 12 359 42 view .LVU783
 3490 00cc 95F814E0 		ldrb	lr, [r5, #20]	@ zero_extendqisi2
 3491 00d0 2EEA0B0E 		bic	lr, lr, fp
 3492 00d4 85F814E0 		strb	lr, [r5, #20]
 3493 00d8 E2E7     		b	.L215
 3494              	.LVL241:
 3495              	.L207:
 359:libDaisy//src/dev/oled_ssd130x.h ****     }
 3496              		.loc 12 359 42 view .LVU784
 3497              	.LBE1125:
 3498              	.LBE1124:
 3499              	.LBE1126:
 3500              	.LBE1127:
 3501              	.LBE1128:
 3502              	.LBB1129:
  42:libDaisy//src/hid/disp/oled_display.h ****     {
 3503              		.loc 2 42 10 is_stmt 1 view .LVU785
 3504              	.LBB1115:
 352:libDaisy//src/dev/oled_ssd130x.h ****     {
 3505              		.loc 12 352 10 view .LVU786
 3506              	.LBE1115:
 3507              	.LBE1129:
 230:libDaisy//src/hid/disp/display.h ****         int_fast16_t error  = deltaX - deltaY;
 3508              		.loc 3 230 42 is_stmt 0 view .LVU787
ARM GAS  /var/folders/z2/7_lhr9dn53s9tj4s0rwtyswm0000gn/T//ccRFfwbB.s 			page 105


 3509 00da 0125     		movs	r5, #1
 3510              	.LBB1130:
 3511              	.LBB1116:
 3512              	.LBB1110:
 354:libDaisy//src/dev/oled_ssd130x.h ****             return;
 3513              		.loc 12 354 9 view .LVU788
 3514 00dc 7F2B     		cmp	r3, #127
 3515              	.LBE1110:
 3516              	.LBE1116:
 3517              	.LBE1130:
 230:libDaisy//src/hid/disp/display.h ****         int_fast16_t error  = deltaX - deltaY;
 3518              		.loc 3 230 42 view .LVU789
 3519 00de 0195     		str	r5, [sp, #4]
 3520              	.LBB1131:
 3521              	.LBB1117:
 3522              	.LBB1111:
 354:libDaisy//src/dev/oled_ssd130x.h ****             return;
 3523              		.loc 12 354 9 view .LVU790
 3524 00e0 C5D8     		bhi	.L212
 3525 00e2 3F2E     		cmp	r6, #63
 3526 00e4 AED9     		bls	.L219
 3527 00e6 C2E7     		b	.L212
 3528              	.LVL242:
 3529              	.L209:
 3530              	.LBB1105:
 3531              	.LBI1105:
 352:libDaisy//src/dev/oled_ssd130x.h ****     {
 3532              		.loc 12 352 10 is_stmt 1 view .LVU791
 3533              	.LBB1106:
 359:libDaisy//src/dev/oled_ssd130x.h ****     }
 3534              		.loc 12 359 49 is_stmt 0 view .LVU792
 3535 00e8 07FA0EFE 		lsl	lr, r7, lr
 359:libDaisy//src/dev/oled_ssd130x.h ****     }
 3536              		.loc 12 359 42 view .LVU793
 3537 00ec 2F7D     		ldrb	r7, [r5, #20]	@ zero_extendqisi2
 3538              	.LBE1106:
 3539              	.LBE1105:
 3540              	.LBE1111:
 3541              	.LBE1117:
 3542              	.LBE1131:
 239:libDaisy//src/hid/disp/display.h ****         {
 3543              		.loc 3 239 26 view .LVU794
 3544 00ee 9642     		cmp	r6, r2
 3545              	.LBB1132:
 3546              	.LBB1118:
 3547              	.LBB1112:
 3548              	.LBB1108:
 3549              	.LBB1107:
 359:libDaisy//src/dev/oled_ssd130x.h ****     }
 3550              		.loc 12 359 42 view .LVU795
 3551 00f0 27EA0E07 		bic	r7, r7, lr
 3552 00f4 2F75     		strb	r7, [r5, #20]
 3553              	.LVL243:
 359:libDaisy//src/dev/oled_ssd130x.h ****     }
 3554              		.loc 12 359 42 view .LVU796
 3555              	.LBE1107:
 3556              	.LBE1108:
ARM GAS  /var/folders/z2/7_lhr9dn53s9tj4s0rwtyswm0000gn/T//ccRFfwbB.s 			page 106


 3557              	.LBE1112:
 3558              	.LBE1118:
 3559              	.LBE1132:
 239:libDaisy//src/hid/disp/display.h ****         {
 3560              		.loc 3 239 26 is_stmt 1 view .LVU797
 3561 00f6 B8D0     		beq	.L231
 3562 00f8 B9E7     		b	.L212
 3563              		.cfi_endproc
 3564              	.LFE5448:
 3566 00fa 00BF     		.section	.text._ZN5daisy25OneBitGraphicsDisplayImplINS_11OledDisplayINS_13SSD130xDriverILj128ELj64
 3567              		.align	1
 3568              		.p2align 2,,3
 3569              		.weak	_ZN5daisy25OneBitGraphicsDisplayImplINS_11OledDisplayINS_13SSD130xDriverILj128ELj64ENS_24SSD
 3570              		.syntax unified
 3571              		.thumb
 3572              		.thumb_func
 3574              	_ZN5daisy25OneBitGraphicsDisplayImplINS_11OledDisplayINS_13SSD130xDriverILj128ELj64ENS_24SSD130x4Wi
 3575              	.LVL244:
 3576              	.LFB5450:
 283:libDaisy//src/hid/disp/display.h ****                  uint_fast8_t y,
 3577              		.loc 3 283 10 view -0
 3578              		.cfi_startproc
 3579              		@ args = 12, pretend = 0, frame = 8
 3580              		@ frame_needed = 0, uses_anonymous_args = 0
 283:libDaisy//src/hid/disp/display.h ****                  uint_fast8_t y,
 3581              		.loc 3 283 10 is_stmt 0 view .LVU799
 3582 0000 2DE9F04F 		push	{r4, r5, r6, r7, r8, r9, r10, fp, lr}
 3583              		.cfi_def_cfa_offset 36
 3584              		.cfi_offset 4, -36
 3585              		.cfi_offset 5, -32
 3586              		.cfi_offset 6, -28
 3587              		.cfi_offset 7, -24
 3588              		.cfi_offset 8, -20
 3589              		.cfi_offset 9, -16
 3590              		.cfi_offset 10, -12
 3591              		.cfi_offset 11, -8
 3592              		.cfi_offset 14, -4
 3593 0004 2DED068B 		vpush.64	{d8, d9, d10}
 3594              		.cfi_def_cfa_offset 60
 3595              		.cfi_offset 80, -60
 3596              		.cfi_offset 81, -56
 3597              		.cfi_offset 82, -52
 3598              		.cfi_offset 83, -48
 3599              		.cfi_offset 84, -44
 3600              		.cfi_offset 85, -40
 3601 0008 83B0     		sub	sp, sp, #12
 3602              		.cfi_def_cfa_offset 72
 283:libDaisy//src/hid/disp/display.h ****                  uint_fast8_t y,
 3603              		.loc 3 283 10 view .LVU800
 3604 000a 1F46     		mov	r7, r3
 3605 000c 8046     		mov	r8, r0
 3606 000e 0D46     		mov	r5, r1
 3607 0010 9DF85030 		ldrb	r3, [sp, #80]	@ zero_extendqisi2
 3608              	.LVL245:
 283:libDaisy//src/hid/disp/display.h ****                  uint_fast8_t y,
 3609              		.loc 3 283 10 view .LVU801
 3610 0014 1646     		mov	r6, r2
ARM GAS  /var/folders/z2/7_lhr9dn53s9tj4s0rwtyswm0000gn/T//ccRFfwbB.s 			page 107


 3611 0016 0193     		str	r3, [sp, #4]
 306:libDaisy//src/hid/disp/display.h ****         {
 3612              		.loc 3 306 9 view .LVU802
 3613 0018 139B     		ldr	r3, [sp, #76]
 3614 001a 002B     		cmp	r3, #0
 3615 001c C0F22182 		blt	.L233
 313:libDaisy//src/hid/disp/display.h **** 
 3616              		.loc 3 313 27 view .LVU803
 3617 0020 129A     		ldr	r2, [sp, #72]
 3618              	.LVL246:
 313:libDaisy//src/hid/disp/display.h **** 
 3619              		.loc 3 313 27 view .LVU804
 3620 0022 1344     		add	r3, r3, r2
 3621 0024 06EE103A 		vmov	s12, r3	@ int
 3622              	.LVL247:
 3623              	.L234:
 312:libDaisy//src/hid/disp/display.h ****         end_angle_rad   = deg2rad(start_angle + sweep);
 3624              		.loc 3 312 27 view .LVU805
 3625 0028 DDED127A 		vldr.32	s15, [sp, #72]	@ int
 313:libDaisy//src/hid/disp/display.h **** 
 3626              		.loc 3 313 27 view .LVU806
 3627 002c B8EEC66B 		vcvt.f64.s32	d6, s12
 312:libDaisy//src/hid/disp/display.h ****         end_angle_rad   = deg2rad(start_angle + sweep);
 3628              		.loc 3 312 27 view .LVU807
 3629 0030 9FEDCD4B 		vldr.64	d4, .L309
 3630 0034 B8EEE77B 		vcvt.f64.s32	d7, s15
 3631 0038 9FEDCD5B 		vldr.64	d5, .L309+8
 3632 003c 27EE047B 		vmul.f64	d7, d7, d4
 313:libDaisy//src/hid/disp/display.h **** 
 3633              		.loc 3 313 27 view .LVU808
 3634 0040 26EE046B 		vmul.f64	d6, d6, d4
 312:libDaisy//src/hid/disp/display.h ****         end_angle_rad   = deg2rad(start_angle + sweep);
 3635              		.loc 3 312 27 view .LVU809
 3636 0044 87EE050B 		vdiv.f64	d0, d7, d5
 313:libDaisy//src/hid/disp/display.h **** 
 3637              		.loc 3 313 27 view .LVU810
 3638 0048 86EE05AB 		vdiv.f64	d10, d6, d5
 312:libDaisy//src/hid/disp/display.h ****         end_angle_rad   = deg2rad(start_angle + sweep);
 3639              		.loc 3 312 25 view .LVU811
 3640 004c F7EEC08B 		vcvt.f32.f64	s17, d0
 3641              	.LVL248:
 3642              	.LBB1165:
 3643              	.LBB1166:
 3644              		.file 15 "/Applications/ARM/arm-none-eabi/include/c++/10.3.1/cmath"
   1:/Applications/ARM/arm-none-eabi/include/c++/10.3.1/cmath **** // -*- C++ -*- C forwarding header.
   2:/Applications/ARM/arm-none-eabi/include/c++/10.3.1/cmath **** 
   3:/Applications/ARM/arm-none-eabi/include/c++/10.3.1/cmath **** // Copyright (C) 1997-2020 Free Software Foundation, Inc.
   4:/Applications/ARM/arm-none-eabi/include/c++/10.3.1/cmath **** //
   5:/Applications/ARM/arm-none-eabi/include/c++/10.3.1/cmath **** // This file is part of the GNU ISO C++ Library.  This library is free
   6:/Applications/ARM/arm-none-eabi/include/c++/10.3.1/cmath **** // software; you can redistribute it and/or modify it under the
   7:/Applications/ARM/arm-none-eabi/include/c++/10.3.1/cmath **** // terms of the GNU General Public License as published by the
   8:/Applications/ARM/arm-none-eabi/include/c++/10.3.1/cmath **** // Free Software Foundation; either version 3, or (at your option)
   9:/Applications/ARM/arm-none-eabi/include/c++/10.3.1/cmath **** // any later version.
  10:/Applications/ARM/arm-none-eabi/include/c++/10.3.1/cmath **** 
  11:/Applications/ARM/arm-none-eabi/include/c++/10.3.1/cmath **** // This library is distributed in the hope that it will be useful,
  12:/Applications/ARM/arm-none-eabi/include/c++/10.3.1/cmath **** // but WITHOUT ANY WARRANTY; without even the implied warranty of
  13:/Applications/ARM/arm-none-eabi/include/c++/10.3.1/cmath **** // MERCHANTABILITY or FITNESS FOR A PARTICULAR PURPOSE.  See the
ARM GAS  /var/folders/z2/7_lhr9dn53s9tj4s0rwtyswm0000gn/T//ccRFfwbB.s 			page 108


  14:/Applications/ARM/arm-none-eabi/include/c++/10.3.1/cmath **** // GNU General Public License for more details.
  15:/Applications/ARM/arm-none-eabi/include/c++/10.3.1/cmath **** 
  16:/Applications/ARM/arm-none-eabi/include/c++/10.3.1/cmath **** // Under Section 7 of GPL version 3, you are granted additional
  17:/Applications/ARM/arm-none-eabi/include/c++/10.3.1/cmath **** // permissions described in the GCC Runtime Library Exception, version
  18:/Applications/ARM/arm-none-eabi/include/c++/10.3.1/cmath **** // 3.1, as published by the Free Software Foundation.
  19:/Applications/ARM/arm-none-eabi/include/c++/10.3.1/cmath **** 
  20:/Applications/ARM/arm-none-eabi/include/c++/10.3.1/cmath **** // You should have received a copy of the GNU General Public License and
  21:/Applications/ARM/arm-none-eabi/include/c++/10.3.1/cmath **** // a copy of the GCC Runtime Library Exception along with this program;
  22:/Applications/ARM/arm-none-eabi/include/c++/10.3.1/cmath **** // see the files COPYING3 and COPYING.RUNTIME respectively.  If not, see
  23:/Applications/ARM/arm-none-eabi/include/c++/10.3.1/cmath **** // <http://www.gnu.org/licenses/>.
  24:/Applications/ARM/arm-none-eabi/include/c++/10.3.1/cmath **** 
  25:/Applications/ARM/arm-none-eabi/include/c++/10.3.1/cmath **** /** @file include/cmath
  26:/Applications/ARM/arm-none-eabi/include/c++/10.3.1/cmath ****  *  This is a Standard C++ Library file.  You should @c \#include this file
  27:/Applications/ARM/arm-none-eabi/include/c++/10.3.1/cmath ****  *  in your programs, rather than any of the @a *.h implementation files.
  28:/Applications/ARM/arm-none-eabi/include/c++/10.3.1/cmath ****  *
  29:/Applications/ARM/arm-none-eabi/include/c++/10.3.1/cmath ****  *  This is the C++ version of the Standard C Library header @c math.h,
  30:/Applications/ARM/arm-none-eabi/include/c++/10.3.1/cmath ****  *  and its contents are (mostly) the same as that header, but are all
  31:/Applications/ARM/arm-none-eabi/include/c++/10.3.1/cmath ****  *  contained in the namespace @c std (except for names which are defined
  32:/Applications/ARM/arm-none-eabi/include/c++/10.3.1/cmath ****  *  as macros in C).
  33:/Applications/ARM/arm-none-eabi/include/c++/10.3.1/cmath ****  */
  34:/Applications/ARM/arm-none-eabi/include/c++/10.3.1/cmath **** 
  35:/Applications/ARM/arm-none-eabi/include/c++/10.3.1/cmath **** //
  36:/Applications/ARM/arm-none-eabi/include/c++/10.3.1/cmath **** // ISO C++ 14882: 26.5  C library
  37:/Applications/ARM/arm-none-eabi/include/c++/10.3.1/cmath **** //
  38:/Applications/ARM/arm-none-eabi/include/c++/10.3.1/cmath **** 
  39:/Applications/ARM/arm-none-eabi/include/c++/10.3.1/cmath **** #pragma GCC system_header
  40:/Applications/ARM/arm-none-eabi/include/c++/10.3.1/cmath **** 
  41:/Applications/ARM/arm-none-eabi/include/c++/10.3.1/cmath **** #include <bits/c++config.h>
  42:/Applications/ARM/arm-none-eabi/include/c++/10.3.1/cmath **** #include <bits/cpp_type_traits.h>
  43:/Applications/ARM/arm-none-eabi/include/c++/10.3.1/cmath **** #include <ext/type_traits.h>
  44:/Applications/ARM/arm-none-eabi/include/c++/10.3.1/cmath **** #define _GLIBCXX_INCLUDE_NEXT_C_HEADERS
  45:/Applications/ARM/arm-none-eabi/include/c++/10.3.1/cmath **** #include_next <math.h>
  46:/Applications/ARM/arm-none-eabi/include/c++/10.3.1/cmath **** #undef _GLIBCXX_INCLUDE_NEXT_C_HEADERS
  47:/Applications/ARM/arm-none-eabi/include/c++/10.3.1/cmath **** #include <bits/std_abs.h>
  48:/Applications/ARM/arm-none-eabi/include/c++/10.3.1/cmath **** 
  49:/Applications/ARM/arm-none-eabi/include/c++/10.3.1/cmath **** #ifndef _GLIBCXX_CMATH
  50:/Applications/ARM/arm-none-eabi/include/c++/10.3.1/cmath **** #define _GLIBCXX_CMATH 1
  51:/Applications/ARM/arm-none-eabi/include/c++/10.3.1/cmath **** 
  52:/Applications/ARM/arm-none-eabi/include/c++/10.3.1/cmath **** // Get rid of those macros defined in <math.h> in lieu of real functions.
  53:/Applications/ARM/arm-none-eabi/include/c++/10.3.1/cmath **** #undef div
  54:/Applications/ARM/arm-none-eabi/include/c++/10.3.1/cmath **** #undef acos
  55:/Applications/ARM/arm-none-eabi/include/c++/10.3.1/cmath **** #undef asin
  56:/Applications/ARM/arm-none-eabi/include/c++/10.3.1/cmath **** #undef atan
  57:/Applications/ARM/arm-none-eabi/include/c++/10.3.1/cmath **** #undef atan2
  58:/Applications/ARM/arm-none-eabi/include/c++/10.3.1/cmath **** #undef ceil
  59:/Applications/ARM/arm-none-eabi/include/c++/10.3.1/cmath **** #undef cos
  60:/Applications/ARM/arm-none-eabi/include/c++/10.3.1/cmath **** #undef cosh
  61:/Applications/ARM/arm-none-eabi/include/c++/10.3.1/cmath **** #undef exp
  62:/Applications/ARM/arm-none-eabi/include/c++/10.3.1/cmath **** #undef fabs
  63:/Applications/ARM/arm-none-eabi/include/c++/10.3.1/cmath **** #undef floor
  64:/Applications/ARM/arm-none-eabi/include/c++/10.3.1/cmath **** #undef fmod
  65:/Applications/ARM/arm-none-eabi/include/c++/10.3.1/cmath **** #undef frexp
  66:/Applications/ARM/arm-none-eabi/include/c++/10.3.1/cmath **** #undef ldexp
  67:/Applications/ARM/arm-none-eabi/include/c++/10.3.1/cmath **** #undef log
  68:/Applications/ARM/arm-none-eabi/include/c++/10.3.1/cmath **** #undef log10
  69:/Applications/ARM/arm-none-eabi/include/c++/10.3.1/cmath **** #undef modf
  70:/Applications/ARM/arm-none-eabi/include/c++/10.3.1/cmath **** #undef pow
ARM GAS  /var/folders/z2/7_lhr9dn53s9tj4s0rwtyswm0000gn/T//ccRFfwbB.s 			page 109


  71:/Applications/ARM/arm-none-eabi/include/c++/10.3.1/cmath **** #undef sin
  72:/Applications/ARM/arm-none-eabi/include/c++/10.3.1/cmath **** #undef sinh
  73:/Applications/ARM/arm-none-eabi/include/c++/10.3.1/cmath **** #undef sqrt
  74:/Applications/ARM/arm-none-eabi/include/c++/10.3.1/cmath **** #undef tan
  75:/Applications/ARM/arm-none-eabi/include/c++/10.3.1/cmath **** #undef tanh
  76:/Applications/ARM/arm-none-eabi/include/c++/10.3.1/cmath **** 
  77:/Applications/ARM/arm-none-eabi/include/c++/10.3.1/cmath **** extern "C++"
  78:/Applications/ARM/arm-none-eabi/include/c++/10.3.1/cmath **** {
  79:/Applications/ARM/arm-none-eabi/include/c++/10.3.1/cmath **** namespace std _GLIBCXX_VISIBILITY(default)
  80:/Applications/ARM/arm-none-eabi/include/c++/10.3.1/cmath **** {
  81:/Applications/ARM/arm-none-eabi/include/c++/10.3.1/cmath **** _GLIBCXX_BEGIN_NAMESPACE_VERSION
  82:/Applications/ARM/arm-none-eabi/include/c++/10.3.1/cmath **** 
  83:/Applications/ARM/arm-none-eabi/include/c++/10.3.1/cmath ****   using ::acos;
  84:/Applications/ARM/arm-none-eabi/include/c++/10.3.1/cmath **** 
  85:/Applications/ARM/arm-none-eabi/include/c++/10.3.1/cmath **** #ifndef __CORRECT_ISO_CPP_MATH_H_PROTO
  86:/Applications/ARM/arm-none-eabi/include/c++/10.3.1/cmath ****   inline _GLIBCXX_CONSTEXPR float
  87:/Applications/ARM/arm-none-eabi/include/c++/10.3.1/cmath ****   acos(float __x)
  88:/Applications/ARM/arm-none-eabi/include/c++/10.3.1/cmath ****   { return __builtin_acosf(__x); }
  89:/Applications/ARM/arm-none-eabi/include/c++/10.3.1/cmath **** 
  90:/Applications/ARM/arm-none-eabi/include/c++/10.3.1/cmath ****   inline _GLIBCXX_CONSTEXPR long double
  91:/Applications/ARM/arm-none-eabi/include/c++/10.3.1/cmath ****   acos(long double __x)
  92:/Applications/ARM/arm-none-eabi/include/c++/10.3.1/cmath ****   { return __builtin_acosl(__x); }
  93:/Applications/ARM/arm-none-eabi/include/c++/10.3.1/cmath **** #endif
  94:/Applications/ARM/arm-none-eabi/include/c++/10.3.1/cmath **** 
  95:/Applications/ARM/arm-none-eabi/include/c++/10.3.1/cmath ****   template<typename _Tp>
  96:/Applications/ARM/arm-none-eabi/include/c++/10.3.1/cmath ****     inline _GLIBCXX_CONSTEXPR
  97:/Applications/ARM/arm-none-eabi/include/c++/10.3.1/cmath ****     typename __gnu_cxx::__enable_if<__is_integer<_Tp>::__value, 
  98:/Applications/ARM/arm-none-eabi/include/c++/10.3.1/cmath ****                                     double>::__type
  99:/Applications/ARM/arm-none-eabi/include/c++/10.3.1/cmath ****     acos(_Tp __x)
 100:/Applications/ARM/arm-none-eabi/include/c++/10.3.1/cmath ****     { return __builtin_acos(__x); }
 101:/Applications/ARM/arm-none-eabi/include/c++/10.3.1/cmath **** 
 102:/Applications/ARM/arm-none-eabi/include/c++/10.3.1/cmath ****   using ::asin;
 103:/Applications/ARM/arm-none-eabi/include/c++/10.3.1/cmath **** 
 104:/Applications/ARM/arm-none-eabi/include/c++/10.3.1/cmath **** #ifndef __CORRECT_ISO_CPP_MATH_H_PROTO
 105:/Applications/ARM/arm-none-eabi/include/c++/10.3.1/cmath ****   inline _GLIBCXX_CONSTEXPR float
 106:/Applications/ARM/arm-none-eabi/include/c++/10.3.1/cmath ****   asin(float __x)
 107:/Applications/ARM/arm-none-eabi/include/c++/10.3.1/cmath ****   { return __builtin_asinf(__x); }
 108:/Applications/ARM/arm-none-eabi/include/c++/10.3.1/cmath **** 
 109:/Applications/ARM/arm-none-eabi/include/c++/10.3.1/cmath ****   inline _GLIBCXX_CONSTEXPR long double
 110:/Applications/ARM/arm-none-eabi/include/c++/10.3.1/cmath ****   asin(long double __x)
 111:/Applications/ARM/arm-none-eabi/include/c++/10.3.1/cmath ****   { return __builtin_asinl(__x); }
 112:/Applications/ARM/arm-none-eabi/include/c++/10.3.1/cmath **** #endif
 113:/Applications/ARM/arm-none-eabi/include/c++/10.3.1/cmath **** 
 114:/Applications/ARM/arm-none-eabi/include/c++/10.3.1/cmath ****   template<typename _Tp>
 115:/Applications/ARM/arm-none-eabi/include/c++/10.3.1/cmath ****     inline _GLIBCXX_CONSTEXPR
 116:/Applications/ARM/arm-none-eabi/include/c++/10.3.1/cmath ****     typename __gnu_cxx::__enable_if<__is_integer<_Tp>::__value,
 117:/Applications/ARM/arm-none-eabi/include/c++/10.3.1/cmath ****                                     double>::__type
 118:/Applications/ARM/arm-none-eabi/include/c++/10.3.1/cmath ****     asin(_Tp __x)
 119:/Applications/ARM/arm-none-eabi/include/c++/10.3.1/cmath ****     { return __builtin_asin(__x); }
 120:/Applications/ARM/arm-none-eabi/include/c++/10.3.1/cmath **** 
 121:/Applications/ARM/arm-none-eabi/include/c++/10.3.1/cmath ****   using ::atan;
 122:/Applications/ARM/arm-none-eabi/include/c++/10.3.1/cmath **** 
 123:/Applications/ARM/arm-none-eabi/include/c++/10.3.1/cmath **** #ifndef __CORRECT_ISO_CPP_MATH_H_PROTO
 124:/Applications/ARM/arm-none-eabi/include/c++/10.3.1/cmath ****   inline _GLIBCXX_CONSTEXPR float
 125:/Applications/ARM/arm-none-eabi/include/c++/10.3.1/cmath ****   atan(float __x)
 126:/Applications/ARM/arm-none-eabi/include/c++/10.3.1/cmath ****   { return __builtin_atanf(__x); }
 127:/Applications/ARM/arm-none-eabi/include/c++/10.3.1/cmath **** 
ARM GAS  /var/folders/z2/7_lhr9dn53s9tj4s0rwtyswm0000gn/T//ccRFfwbB.s 			page 110


 128:/Applications/ARM/arm-none-eabi/include/c++/10.3.1/cmath ****   inline _GLIBCXX_CONSTEXPR long double
 129:/Applications/ARM/arm-none-eabi/include/c++/10.3.1/cmath ****   atan(long double __x)
 130:/Applications/ARM/arm-none-eabi/include/c++/10.3.1/cmath ****   { return __builtin_atanl(__x); }
 131:/Applications/ARM/arm-none-eabi/include/c++/10.3.1/cmath **** #endif
 132:/Applications/ARM/arm-none-eabi/include/c++/10.3.1/cmath **** 
 133:/Applications/ARM/arm-none-eabi/include/c++/10.3.1/cmath ****   template<typename _Tp>
 134:/Applications/ARM/arm-none-eabi/include/c++/10.3.1/cmath ****     inline _GLIBCXX_CONSTEXPR
 135:/Applications/ARM/arm-none-eabi/include/c++/10.3.1/cmath ****     typename __gnu_cxx::__enable_if<__is_integer<_Tp>::__value,
 136:/Applications/ARM/arm-none-eabi/include/c++/10.3.1/cmath ****                                     double>::__type
 137:/Applications/ARM/arm-none-eabi/include/c++/10.3.1/cmath ****     atan(_Tp __x)
 138:/Applications/ARM/arm-none-eabi/include/c++/10.3.1/cmath ****     { return __builtin_atan(__x); }
 139:/Applications/ARM/arm-none-eabi/include/c++/10.3.1/cmath **** 
 140:/Applications/ARM/arm-none-eabi/include/c++/10.3.1/cmath ****   using ::atan2;
 141:/Applications/ARM/arm-none-eabi/include/c++/10.3.1/cmath **** 
 142:/Applications/ARM/arm-none-eabi/include/c++/10.3.1/cmath **** #ifndef __CORRECT_ISO_CPP_MATH_H_PROTO
 143:/Applications/ARM/arm-none-eabi/include/c++/10.3.1/cmath ****   inline _GLIBCXX_CONSTEXPR float
 144:/Applications/ARM/arm-none-eabi/include/c++/10.3.1/cmath ****   atan2(float __y, float __x)
 145:/Applications/ARM/arm-none-eabi/include/c++/10.3.1/cmath ****   { return __builtin_atan2f(__y, __x); }
 146:/Applications/ARM/arm-none-eabi/include/c++/10.3.1/cmath **** 
 147:/Applications/ARM/arm-none-eabi/include/c++/10.3.1/cmath ****   inline _GLIBCXX_CONSTEXPR long double
 148:/Applications/ARM/arm-none-eabi/include/c++/10.3.1/cmath ****   atan2(long double __y, long double __x)
 149:/Applications/ARM/arm-none-eabi/include/c++/10.3.1/cmath ****   { return __builtin_atan2l(__y, __x); }
 150:/Applications/ARM/arm-none-eabi/include/c++/10.3.1/cmath **** #endif
 151:/Applications/ARM/arm-none-eabi/include/c++/10.3.1/cmath **** 
 152:/Applications/ARM/arm-none-eabi/include/c++/10.3.1/cmath ****   template<typename _Tp, typename _Up>
 153:/Applications/ARM/arm-none-eabi/include/c++/10.3.1/cmath ****     inline _GLIBCXX_CONSTEXPR
 154:/Applications/ARM/arm-none-eabi/include/c++/10.3.1/cmath ****     typename __gnu_cxx::__promote_2<_Tp, _Up>::__type
 155:/Applications/ARM/arm-none-eabi/include/c++/10.3.1/cmath ****     atan2(_Tp __y, _Up __x)
 156:/Applications/ARM/arm-none-eabi/include/c++/10.3.1/cmath ****     {
 157:/Applications/ARM/arm-none-eabi/include/c++/10.3.1/cmath ****       typedef typename __gnu_cxx::__promote_2<_Tp, _Up>::__type __type;
 158:/Applications/ARM/arm-none-eabi/include/c++/10.3.1/cmath ****       return atan2(__type(__y), __type(__x));
 159:/Applications/ARM/arm-none-eabi/include/c++/10.3.1/cmath ****     }
 160:/Applications/ARM/arm-none-eabi/include/c++/10.3.1/cmath **** 
 161:/Applications/ARM/arm-none-eabi/include/c++/10.3.1/cmath ****   using ::ceil;
 162:/Applications/ARM/arm-none-eabi/include/c++/10.3.1/cmath **** 
 163:/Applications/ARM/arm-none-eabi/include/c++/10.3.1/cmath **** #ifndef __CORRECT_ISO_CPP_MATH_H_PROTO
 164:/Applications/ARM/arm-none-eabi/include/c++/10.3.1/cmath ****   inline _GLIBCXX_CONSTEXPR float
 165:/Applications/ARM/arm-none-eabi/include/c++/10.3.1/cmath ****   ceil(float __x)
 166:/Applications/ARM/arm-none-eabi/include/c++/10.3.1/cmath ****   { return __builtin_ceilf(__x); }
 167:/Applications/ARM/arm-none-eabi/include/c++/10.3.1/cmath **** 
 168:/Applications/ARM/arm-none-eabi/include/c++/10.3.1/cmath ****   inline _GLIBCXX_CONSTEXPR long double
 169:/Applications/ARM/arm-none-eabi/include/c++/10.3.1/cmath ****   ceil(long double __x)
 170:/Applications/ARM/arm-none-eabi/include/c++/10.3.1/cmath ****   { return __builtin_ceill(__x); }
 171:/Applications/ARM/arm-none-eabi/include/c++/10.3.1/cmath **** #endif
 172:/Applications/ARM/arm-none-eabi/include/c++/10.3.1/cmath **** 
 173:/Applications/ARM/arm-none-eabi/include/c++/10.3.1/cmath ****   template<typename _Tp>
 174:/Applications/ARM/arm-none-eabi/include/c++/10.3.1/cmath ****     inline _GLIBCXX_CONSTEXPR
 175:/Applications/ARM/arm-none-eabi/include/c++/10.3.1/cmath ****     typename __gnu_cxx::__enable_if<__is_integer<_Tp>::__value, 
 176:/Applications/ARM/arm-none-eabi/include/c++/10.3.1/cmath ****                                     double>::__type
 177:/Applications/ARM/arm-none-eabi/include/c++/10.3.1/cmath ****     ceil(_Tp __x)
 178:/Applications/ARM/arm-none-eabi/include/c++/10.3.1/cmath ****     { return __builtin_ceil(__x); }
 179:/Applications/ARM/arm-none-eabi/include/c++/10.3.1/cmath **** 
 180:/Applications/ARM/arm-none-eabi/include/c++/10.3.1/cmath ****   using ::cos;
 181:/Applications/ARM/arm-none-eabi/include/c++/10.3.1/cmath **** 
 182:/Applications/ARM/arm-none-eabi/include/c++/10.3.1/cmath **** #ifndef __CORRECT_ISO_CPP_MATH_H_PROTO
 183:/Applications/ARM/arm-none-eabi/include/c++/10.3.1/cmath ****   inline _GLIBCXX_CONSTEXPR float
 184:/Applications/ARM/arm-none-eabi/include/c++/10.3.1/cmath ****   cos(float __x)
ARM GAS  /var/folders/z2/7_lhr9dn53s9tj4s0rwtyswm0000gn/T//ccRFfwbB.s 			page 111


 185:/Applications/ARM/arm-none-eabi/include/c++/10.3.1/cmath ****   { return __builtin_cosf(__x); }
 3645              		.loc 15 185 26 view .LVU812
 3646 0050 B0EE680A 		vmov.f32	s0, s17
 3647 0054 FFF7FEFF 		bl	cosf
 3648              	.LVL249:
 3649              		.loc 15 185 26 view .LVU813
 3650              	.LBE1166:
 3651              	.LBE1165:
 315:libDaisy//src/hid/disp/display.h ****         start_y = -sin(start_angle_rad) * radius;
 3652              		.loc 3 315 17 view .LVU814
 3653 0058 07EE907A 		vmov	s15, r7	@ int
 313:libDaisy//src/hid/disp/display.h **** 
 3654              		.loc 3 313 25 view .LVU815
 3655 005c B7EECAAB 		vcvt.f32.f64	s20, d10
 3656              	.LVL250:
 3657              	.LBB1169:
 3658              	.LBI1165:
 184:/Applications/ARM/arm-none-eabi/include/c++/10.3.1/cmath ****   { return __builtin_cosf(__x); }
 3659              		.loc 15 184 3 is_stmt 1 view .LVU816
 3660              	.LBB1167:
 3661              		.loc 15 185 5 view .LVU817
 3662              		.loc 15 185 5 is_stmt 0 view .LVU818
 3663              	.LBE1167:
 3664              	.LBE1169:
 315:libDaisy//src/hid/disp/display.h ****         start_y = -sin(start_angle_rad) * radius;
 3665              		.loc 3 315 17 view .LVU819
 3666 0060 F8EE679A 		vcvt.f32.u32	s19, s15
 3667              	.LBB1170:
 3668              	.LBB1168:
 3669              		.loc 15 185 26 view .LVU820
 3670 0064 B0EE408A 		vmov.f32	s16, s0
 3671              	.LBE1168:
 3672              	.LBE1170:
 3673              	.LBB1171:
 3674              	.LBB1172:
 186:/Applications/ARM/arm-none-eabi/include/c++/10.3.1/cmath **** 
 187:/Applications/ARM/arm-none-eabi/include/c++/10.3.1/cmath ****   inline _GLIBCXX_CONSTEXPR long double
 188:/Applications/ARM/arm-none-eabi/include/c++/10.3.1/cmath ****   cos(long double __x)
 189:/Applications/ARM/arm-none-eabi/include/c++/10.3.1/cmath ****   { return __builtin_cosl(__x); }
 190:/Applications/ARM/arm-none-eabi/include/c++/10.3.1/cmath **** #endif
 191:/Applications/ARM/arm-none-eabi/include/c++/10.3.1/cmath **** 
 192:/Applications/ARM/arm-none-eabi/include/c++/10.3.1/cmath ****   template<typename _Tp>
 193:/Applications/ARM/arm-none-eabi/include/c++/10.3.1/cmath ****     inline _GLIBCXX_CONSTEXPR
 194:/Applications/ARM/arm-none-eabi/include/c++/10.3.1/cmath ****     typename __gnu_cxx::__enable_if<__is_integer<_Tp>::__value,
 195:/Applications/ARM/arm-none-eabi/include/c++/10.3.1/cmath ****                                     double>::__type
 196:/Applications/ARM/arm-none-eabi/include/c++/10.3.1/cmath ****     cos(_Tp __x)
 197:/Applications/ARM/arm-none-eabi/include/c++/10.3.1/cmath ****     { return __builtin_cos(__x); }
 198:/Applications/ARM/arm-none-eabi/include/c++/10.3.1/cmath **** 
 199:/Applications/ARM/arm-none-eabi/include/c++/10.3.1/cmath ****   using ::cosh;
 200:/Applications/ARM/arm-none-eabi/include/c++/10.3.1/cmath **** 
 201:/Applications/ARM/arm-none-eabi/include/c++/10.3.1/cmath **** #ifndef __CORRECT_ISO_CPP_MATH_H_PROTO
 202:/Applications/ARM/arm-none-eabi/include/c++/10.3.1/cmath ****   inline _GLIBCXX_CONSTEXPR float
 203:/Applications/ARM/arm-none-eabi/include/c++/10.3.1/cmath ****   cosh(float __x)
 204:/Applications/ARM/arm-none-eabi/include/c++/10.3.1/cmath ****   { return __builtin_coshf(__x); }
 205:/Applications/ARM/arm-none-eabi/include/c++/10.3.1/cmath **** 
 206:/Applications/ARM/arm-none-eabi/include/c++/10.3.1/cmath ****   inline _GLIBCXX_CONSTEXPR long double
 207:/Applications/ARM/arm-none-eabi/include/c++/10.3.1/cmath ****   cosh(long double __x)
ARM GAS  /var/folders/z2/7_lhr9dn53s9tj4s0rwtyswm0000gn/T//ccRFfwbB.s 			page 112


 208:/Applications/ARM/arm-none-eabi/include/c++/10.3.1/cmath ****   { return __builtin_coshl(__x); }
 209:/Applications/ARM/arm-none-eabi/include/c++/10.3.1/cmath **** #endif
 210:/Applications/ARM/arm-none-eabi/include/c++/10.3.1/cmath **** 
 211:/Applications/ARM/arm-none-eabi/include/c++/10.3.1/cmath ****   template<typename _Tp>
 212:/Applications/ARM/arm-none-eabi/include/c++/10.3.1/cmath ****     inline _GLIBCXX_CONSTEXPR
 213:/Applications/ARM/arm-none-eabi/include/c++/10.3.1/cmath ****     typename __gnu_cxx::__enable_if<__is_integer<_Tp>::__value,
 214:/Applications/ARM/arm-none-eabi/include/c++/10.3.1/cmath ****                                     double>::__type
 215:/Applications/ARM/arm-none-eabi/include/c++/10.3.1/cmath ****     cosh(_Tp __x)
 216:/Applications/ARM/arm-none-eabi/include/c++/10.3.1/cmath ****     { return __builtin_cosh(__x); }
 217:/Applications/ARM/arm-none-eabi/include/c++/10.3.1/cmath **** 
 218:/Applications/ARM/arm-none-eabi/include/c++/10.3.1/cmath ****   using ::exp;
 219:/Applications/ARM/arm-none-eabi/include/c++/10.3.1/cmath **** 
 220:/Applications/ARM/arm-none-eabi/include/c++/10.3.1/cmath **** #ifndef __CORRECT_ISO_CPP_MATH_H_PROTO
 221:/Applications/ARM/arm-none-eabi/include/c++/10.3.1/cmath ****   inline _GLIBCXX_CONSTEXPR float
 222:/Applications/ARM/arm-none-eabi/include/c++/10.3.1/cmath ****   exp(float __x)
 223:/Applications/ARM/arm-none-eabi/include/c++/10.3.1/cmath ****   { return __builtin_expf(__x); }
 224:/Applications/ARM/arm-none-eabi/include/c++/10.3.1/cmath **** 
 225:/Applications/ARM/arm-none-eabi/include/c++/10.3.1/cmath ****   inline _GLIBCXX_CONSTEXPR long double
 226:/Applications/ARM/arm-none-eabi/include/c++/10.3.1/cmath ****   exp(long double __x)
 227:/Applications/ARM/arm-none-eabi/include/c++/10.3.1/cmath ****   { return __builtin_expl(__x); }
 228:/Applications/ARM/arm-none-eabi/include/c++/10.3.1/cmath **** #endif
 229:/Applications/ARM/arm-none-eabi/include/c++/10.3.1/cmath **** 
 230:/Applications/ARM/arm-none-eabi/include/c++/10.3.1/cmath ****   template<typename _Tp>
 231:/Applications/ARM/arm-none-eabi/include/c++/10.3.1/cmath ****     inline _GLIBCXX_CONSTEXPR
 232:/Applications/ARM/arm-none-eabi/include/c++/10.3.1/cmath ****     typename __gnu_cxx::__enable_if<__is_integer<_Tp>::__value,
 233:/Applications/ARM/arm-none-eabi/include/c++/10.3.1/cmath ****                                     double>::__type
 234:/Applications/ARM/arm-none-eabi/include/c++/10.3.1/cmath ****     exp(_Tp __x)
 235:/Applications/ARM/arm-none-eabi/include/c++/10.3.1/cmath ****     { return __builtin_exp(__x); }
 236:/Applications/ARM/arm-none-eabi/include/c++/10.3.1/cmath **** 
 237:/Applications/ARM/arm-none-eabi/include/c++/10.3.1/cmath ****   using ::fabs;
 238:/Applications/ARM/arm-none-eabi/include/c++/10.3.1/cmath **** 
 239:/Applications/ARM/arm-none-eabi/include/c++/10.3.1/cmath **** #ifndef __CORRECT_ISO_CPP_MATH_H_PROTO
 240:/Applications/ARM/arm-none-eabi/include/c++/10.3.1/cmath ****   inline _GLIBCXX_CONSTEXPR float
 241:/Applications/ARM/arm-none-eabi/include/c++/10.3.1/cmath ****   fabs(float __x)
 242:/Applications/ARM/arm-none-eabi/include/c++/10.3.1/cmath ****   { return __builtin_fabsf(__x); }
 243:/Applications/ARM/arm-none-eabi/include/c++/10.3.1/cmath **** 
 244:/Applications/ARM/arm-none-eabi/include/c++/10.3.1/cmath ****   inline _GLIBCXX_CONSTEXPR long double
 245:/Applications/ARM/arm-none-eabi/include/c++/10.3.1/cmath ****   fabs(long double __x)
 246:/Applications/ARM/arm-none-eabi/include/c++/10.3.1/cmath ****   { return __builtin_fabsl(__x); }
 247:/Applications/ARM/arm-none-eabi/include/c++/10.3.1/cmath **** #endif
 248:/Applications/ARM/arm-none-eabi/include/c++/10.3.1/cmath **** 
 249:/Applications/ARM/arm-none-eabi/include/c++/10.3.1/cmath ****   template<typename _Tp>
 250:/Applications/ARM/arm-none-eabi/include/c++/10.3.1/cmath ****     inline _GLIBCXX_CONSTEXPR
 251:/Applications/ARM/arm-none-eabi/include/c++/10.3.1/cmath ****     typename __gnu_cxx::__enable_if<__is_integer<_Tp>::__value,
 252:/Applications/ARM/arm-none-eabi/include/c++/10.3.1/cmath ****                                     double>::__type
 253:/Applications/ARM/arm-none-eabi/include/c++/10.3.1/cmath ****     fabs(_Tp __x)
 254:/Applications/ARM/arm-none-eabi/include/c++/10.3.1/cmath ****     { return __builtin_fabs(__x); }
 255:/Applications/ARM/arm-none-eabi/include/c++/10.3.1/cmath **** 
 256:/Applications/ARM/arm-none-eabi/include/c++/10.3.1/cmath ****   using ::floor;
 257:/Applications/ARM/arm-none-eabi/include/c++/10.3.1/cmath **** 
 258:/Applications/ARM/arm-none-eabi/include/c++/10.3.1/cmath **** #ifndef __CORRECT_ISO_CPP_MATH_H_PROTO
 259:/Applications/ARM/arm-none-eabi/include/c++/10.3.1/cmath ****   inline _GLIBCXX_CONSTEXPR float
 260:/Applications/ARM/arm-none-eabi/include/c++/10.3.1/cmath ****   floor(float __x)
 261:/Applications/ARM/arm-none-eabi/include/c++/10.3.1/cmath ****   { return __builtin_floorf(__x); }
 262:/Applications/ARM/arm-none-eabi/include/c++/10.3.1/cmath **** 
 263:/Applications/ARM/arm-none-eabi/include/c++/10.3.1/cmath ****   inline _GLIBCXX_CONSTEXPR long double
 264:/Applications/ARM/arm-none-eabi/include/c++/10.3.1/cmath ****   floor(long double __x)
ARM GAS  /var/folders/z2/7_lhr9dn53s9tj4s0rwtyswm0000gn/T//ccRFfwbB.s 			page 113


 265:/Applications/ARM/arm-none-eabi/include/c++/10.3.1/cmath ****   { return __builtin_floorl(__x); }
 266:/Applications/ARM/arm-none-eabi/include/c++/10.3.1/cmath **** #endif
 267:/Applications/ARM/arm-none-eabi/include/c++/10.3.1/cmath **** 
 268:/Applications/ARM/arm-none-eabi/include/c++/10.3.1/cmath ****   template<typename _Tp>
 269:/Applications/ARM/arm-none-eabi/include/c++/10.3.1/cmath ****     inline _GLIBCXX_CONSTEXPR
 270:/Applications/ARM/arm-none-eabi/include/c++/10.3.1/cmath ****     typename __gnu_cxx::__enable_if<__is_integer<_Tp>::__value,
 271:/Applications/ARM/arm-none-eabi/include/c++/10.3.1/cmath ****                                     double>::__type
 272:/Applications/ARM/arm-none-eabi/include/c++/10.3.1/cmath ****     floor(_Tp __x)
 273:/Applications/ARM/arm-none-eabi/include/c++/10.3.1/cmath ****     { return __builtin_floor(__x); }
 274:/Applications/ARM/arm-none-eabi/include/c++/10.3.1/cmath **** 
 275:/Applications/ARM/arm-none-eabi/include/c++/10.3.1/cmath ****   using ::fmod;
 276:/Applications/ARM/arm-none-eabi/include/c++/10.3.1/cmath **** 
 277:/Applications/ARM/arm-none-eabi/include/c++/10.3.1/cmath **** #ifndef __CORRECT_ISO_CPP_MATH_H_PROTO
 278:/Applications/ARM/arm-none-eabi/include/c++/10.3.1/cmath ****   inline _GLIBCXX_CONSTEXPR float
 279:/Applications/ARM/arm-none-eabi/include/c++/10.3.1/cmath ****   fmod(float __x, float __y)
 280:/Applications/ARM/arm-none-eabi/include/c++/10.3.1/cmath ****   { return __builtin_fmodf(__x, __y); }
 281:/Applications/ARM/arm-none-eabi/include/c++/10.3.1/cmath **** 
 282:/Applications/ARM/arm-none-eabi/include/c++/10.3.1/cmath ****   inline _GLIBCXX_CONSTEXPR long double
 283:/Applications/ARM/arm-none-eabi/include/c++/10.3.1/cmath ****   fmod(long double __x, long double __y)
 284:/Applications/ARM/arm-none-eabi/include/c++/10.3.1/cmath ****   { return __builtin_fmodl(__x, __y); }
 285:/Applications/ARM/arm-none-eabi/include/c++/10.3.1/cmath **** #endif
 286:/Applications/ARM/arm-none-eabi/include/c++/10.3.1/cmath **** 
 287:/Applications/ARM/arm-none-eabi/include/c++/10.3.1/cmath ****   template<typename _Tp, typename _Up>
 288:/Applications/ARM/arm-none-eabi/include/c++/10.3.1/cmath ****     inline _GLIBCXX_CONSTEXPR
 289:/Applications/ARM/arm-none-eabi/include/c++/10.3.1/cmath ****     typename __gnu_cxx::__promote_2<_Tp, _Up>::__type
 290:/Applications/ARM/arm-none-eabi/include/c++/10.3.1/cmath ****     fmod(_Tp __x, _Up __y)
 291:/Applications/ARM/arm-none-eabi/include/c++/10.3.1/cmath ****     {
 292:/Applications/ARM/arm-none-eabi/include/c++/10.3.1/cmath ****       typedef typename __gnu_cxx::__promote_2<_Tp, _Up>::__type __type;
 293:/Applications/ARM/arm-none-eabi/include/c++/10.3.1/cmath ****       return fmod(__type(__x), __type(__y));
 294:/Applications/ARM/arm-none-eabi/include/c++/10.3.1/cmath ****     }
 295:/Applications/ARM/arm-none-eabi/include/c++/10.3.1/cmath **** 
 296:/Applications/ARM/arm-none-eabi/include/c++/10.3.1/cmath ****   using ::frexp;
 297:/Applications/ARM/arm-none-eabi/include/c++/10.3.1/cmath **** 
 298:/Applications/ARM/arm-none-eabi/include/c++/10.3.1/cmath **** #ifndef __CORRECT_ISO_CPP_MATH_H_PROTO
 299:/Applications/ARM/arm-none-eabi/include/c++/10.3.1/cmath ****   inline float
 300:/Applications/ARM/arm-none-eabi/include/c++/10.3.1/cmath ****   frexp(float __x, int* __exp)
 301:/Applications/ARM/arm-none-eabi/include/c++/10.3.1/cmath ****   { return __builtin_frexpf(__x, __exp); }
 302:/Applications/ARM/arm-none-eabi/include/c++/10.3.1/cmath **** 
 303:/Applications/ARM/arm-none-eabi/include/c++/10.3.1/cmath ****   inline long double
 304:/Applications/ARM/arm-none-eabi/include/c++/10.3.1/cmath ****   frexp(long double __x, int* __exp)
 305:/Applications/ARM/arm-none-eabi/include/c++/10.3.1/cmath ****   { return __builtin_frexpl(__x, __exp); }
 306:/Applications/ARM/arm-none-eabi/include/c++/10.3.1/cmath **** #endif
 307:/Applications/ARM/arm-none-eabi/include/c++/10.3.1/cmath **** 
 308:/Applications/ARM/arm-none-eabi/include/c++/10.3.1/cmath ****   template<typename _Tp>
 309:/Applications/ARM/arm-none-eabi/include/c++/10.3.1/cmath ****     inline _GLIBCXX_CONSTEXPR
 310:/Applications/ARM/arm-none-eabi/include/c++/10.3.1/cmath ****     typename __gnu_cxx::__enable_if<__is_integer<_Tp>::__value, 
 311:/Applications/ARM/arm-none-eabi/include/c++/10.3.1/cmath ****                                     double>::__type
 312:/Applications/ARM/arm-none-eabi/include/c++/10.3.1/cmath ****     frexp(_Tp __x, int* __exp)
 313:/Applications/ARM/arm-none-eabi/include/c++/10.3.1/cmath ****     { return __builtin_frexp(__x, __exp); }
 314:/Applications/ARM/arm-none-eabi/include/c++/10.3.1/cmath **** 
 315:/Applications/ARM/arm-none-eabi/include/c++/10.3.1/cmath ****   using ::ldexp;
 316:/Applications/ARM/arm-none-eabi/include/c++/10.3.1/cmath **** 
 317:/Applications/ARM/arm-none-eabi/include/c++/10.3.1/cmath **** #ifndef __CORRECT_ISO_CPP_MATH_H_PROTO
 318:/Applications/ARM/arm-none-eabi/include/c++/10.3.1/cmath ****   inline _GLIBCXX_CONSTEXPR float
 319:/Applications/ARM/arm-none-eabi/include/c++/10.3.1/cmath ****   ldexp(float __x, int __exp)
 320:/Applications/ARM/arm-none-eabi/include/c++/10.3.1/cmath ****   { return __builtin_ldexpf(__x, __exp); }
 321:/Applications/ARM/arm-none-eabi/include/c++/10.3.1/cmath **** 
ARM GAS  /var/folders/z2/7_lhr9dn53s9tj4s0rwtyswm0000gn/T//ccRFfwbB.s 			page 114


 322:/Applications/ARM/arm-none-eabi/include/c++/10.3.1/cmath ****   inline _GLIBCXX_CONSTEXPR long double
 323:/Applications/ARM/arm-none-eabi/include/c++/10.3.1/cmath ****   ldexp(long double __x, int __exp)
 324:/Applications/ARM/arm-none-eabi/include/c++/10.3.1/cmath ****   { return __builtin_ldexpl(__x, __exp); }
 325:/Applications/ARM/arm-none-eabi/include/c++/10.3.1/cmath **** #endif
 326:/Applications/ARM/arm-none-eabi/include/c++/10.3.1/cmath **** 
 327:/Applications/ARM/arm-none-eabi/include/c++/10.3.1/cmath ****   template<typename _Tp>
 328:/Applications/ARM/arm-none-eabi/include/c++/10.3.1/cmath ****     inline _GLIBCXX_CONSTEXPR
 329:/Applications/ARM/arm-none-eabi/include/c++/10.3.1/cmath ****     typename __gnu_cxx::__enable_if<__is_integer<_Tp>::__value, 
 330:/Applications/ARM/arm-none-eabi/include/c++/10.3.1/cmath ****                                     double>::__type
 331:/Applications/ARM/arm-none-eabi/include/c++/10.3.1/cmath ****     ldexp(_Tp __x, int __exp)
 332:/Applications/ARM/arm-none-eabi/include/c++/10.3.1/cmath ****     { return __builtin_ldexp(__x, __exp); }
 333:/Applications/ARM/arm-none-eabi/include/c++/10.3.1/cmath **** 
 334:/Applications/ARM/arm-none-eabi/include/c++/10.3.1/cmath ****   using ::log;
 335:/Applications/ARM/arm-none-eabi/include/c++/10.3.1/cmath **** 
 336:/Applications/ARM/arm-none-eabi/include/c++/10.3.1/cmath **** #ifndef __CORRECT_ISO_CPP_MATH_H_PROTO
 337:/Applications/ARM/arm-none-eabi/include/c++/10.3.1/cmath ****   inline _GLIBCXX_CONSTEXPR float
 338:/Applications/ARM/arm-none-eabi/include/c++/10.3.1/cmath ****   log(float __x)
 339:/Applications/ARM/arm-none-eabi/include/c++/10.3.1/cmath ****   { return __builtin_logf(__x); }
 340:/Applications/ARM/arm-none-eabi/include/c++/10.3.1/cmath **** 
 341:/Applications/ARM/arm-none-eabi/include/c++/10.3.1/cmath ****   inline _GLIBCXX_CONSTEXPR long double
 342:/Applications/ARM/arm-none-eabi/include/c++/10.3.1/cmath ****   log(long double __x)
 343:/Applications/ARM/arm-none-eabi/include/c++/10.3.1/cmath ****   { return __builtin_logl(__x); }
 344:/Applications/ARM/arm-none-eabi/include/c++/10.3.1/cmath **** #endif
 345:/Applications/ARM/arm-none-eabi/include/c++/10.3.1/cmath **** 
 346:/Applications/ARM/arm-none-eabi/include/c++/10.3.1/cmath ****   template<typename _Tp>
 347:/Applications/ARM/arm-none-eabi/include/c++/10.3.1/cmath ****     inline _GLIBCXX_CONSTEXPR
 348:/Applications/ARM/arm-none-eabi/include/c++/10.3.1/cmath ****     typename __gnu_cxx::__enable_if<__is_integer<_Tp>::__value, 
 349:/Applications/ARM/arm-none-eabi/include/c++/10.3.1/cmath ****                                     double>::__type
 350:/Applications/ARM/arm-none-eabi/include/c++/10.3.1/cmath ****     log(_Tp __x)
 351:/Applications/ARM/arm-none-eabi/include/c++/10.3.1/cmath ****     { return __builtin_log(__x); }
 352:/Applications/ARM/arm-none-eabi/include/c++/10.3.1/cmath **** 
 353:/Applications/ARM/arm-none-eabi/include/c++/10.3.1/cmath ****   using ::log10;
 354:/Applications/ARM/arm-none-eabi/include/c++/10.3.1/cmath **** 
 355:/Applications/ARM/arm-none-eabi/include/c++/10.3.1/cmath **** #ifndef __CORRECT_ISO_CPP_MATH_H_PROTO
 356:/Applications/ARM/arm-none-eabi/include/c++/10.3.1/cmath ****   inline _GLIBCXX_CONSTEXPR float
 357:/Applications/ARM/arm-none-eabi/include/c++/10.3.1/cmath ****   log10(float __x)
 358:/Applications/ARM/arm-none-eabi/include/c++/10.3.1/cmath ****   { return __builtin_log10f(__x); }
 359:/Applications/ARM/arm-none-eabi/include/c++/10.3.1/cmath **** 
 360:/Applications/ARM/arm-none-eabi/include/c++/10.3.1/cmath ****   inline _GLIBCXX_CONSTEXPR long double
 361:/Applications/ARM/arm-none-eabi/include/c++/10.3.1/cmath ****   log10(long double __x)
 362:/Applications/ARM/arm-none-eabi/include/c++/10.3.1/cmath ****   { return __builtin_log10l(__x); }
 363:/Applications/ARM/arm-none-eabi/include/c++/10.3.1/cmath **** #endif
 364:/Applications/ARM/arm-none-eabi/include/c++/10.3.1/cmath **** 
 365:/Applications/ARM/arm-none-eabi/include/c++/10.3.1/cmath ****   template<typename _Tp>
 366:/Applications/ARM/arm-none-eabi/include/c++/10.3.1/cmath ****     inline _GLIBCXX_CONSTEXPR
 367:/Applications/ARM/arm-none-eabi/include/c++/10.3.1/cmath ****     typename __gnu_cxx::__enable_if<__is_integer<_Tp>::__value,
 368:/Applications/ARM/arm-none-eabi/include/c++/10.3.1/cmath ****                                     double>::__type
 369:/Applications/ARM/arm-none-eabi/include/c++/10.3.1/cmath ****     log10(_Tp __x)
 370:/Applications/ARM/arm-none-eabi/include/c++/10.3.1/cmath ****     { return __builtin_log10(__x); }
 371:/Applications/ARM/arm-none-eabi/include/c++/10.3.1/cmath **** 
 372:/Applications/ARM/arm-none-eabi/include/c++/10.3.1/cmath ****   using ::modf;
 373:/Applications/ARM/arm-none-eabi/include/c++/10.3.1/cmath **** 
 374:/Applications/ARM/arm-none-eabi/include/c++/10.3.1/cmath **** #ifndef __CORRECT_ISO_CPP_MATH_H_PROTO
 375:/Applications/ARM/arm-none-eabi/include/c++/10.3.1/cmath ****   inline float
 376:/Applications/ARM/arm-none-eabi/include/c++/10.3.1/cmath ****   modf(float __x, float* __iptr)
 377:/Applications/ARM/arm-none-eabi/include/c++/10.3.1/cmath ****   { return __builtin_modff(__x, __iptr); }
 378:/Applications/ARM/arm-none-eabi/include/c++/10.3.1/cmath **** 
ARM GAS  /var/folders/z2/7_lhr9dn53s9tj4s0rwtyswm0000gn/T//ccRFfwbB.s 			page 115


 379:/Applications/ARM/arm-none-eabi/include/c++/10.3.1/cmath ****   inline long double
 380:/Applications/ARM/arm-none-eabi/include/c++/10.3.1/cmath ****   modf(long double __x, long double* __iptr)
 381:/Applications/ARM/arm-none-eabi/include/c++/10.3.1/cmath ****   { return __builtin_modfl(__x, __iptr); }
 382:/Applications/ARM/arm-none-eabi/include/c++/10.3.1/cmath **** #endif
 383:/Applications/ARM/arm-none-eabi/include/c++/10.3.1/cmath **** 
 384:/Applications/ARM/arm-none-eabi/include/c++/10.3.1/cmath ****   using ::pow;
 385:/Applications/ARM/arm-none-eabi/include/c++/10.3.1/cmath **** 
 386:/Applications/ARM/arm-none-eabi/include/c++/10.3.1/cmath **** #ifndef __CORRECT_ISO_CPP_MATH_H_PROTO
 387:/Applications/ARM/arm-none-eabi/include/c++/10.3.1/cmath ****   inline _GLIBCXX_CONSTEXPR float
 388:/Applications/ARM/arm-none-eabi/include/c++/10.3.1/cmath ****   pow(float __x, float __y)
 389:/Applications/ARM/arm-none-eabi/include/c++/10.3.1/cmath ****   { return __builtin_powf(__x, __y); }
 390:/Applications/ARM/arm-none-eabi/include/c++/10.3.1/cmath **** 
 391:/Applications/ARM/arm-none-eabi/include/c++/10.3.1/cmath ****   inline _GLIBCXX_CONSTEXPR long double
 392:/Applications/ARM/arm-none-eabi/include/c++/10.3.1/cmath ****   pow(long double __x, long double __y)
 393:/Applications/ARM/arm-none-eabi/include/c++/10.3.1/cmath ****   { return __builtin_powl(__x, __y); }
 394:/Applications/ARM/arm-none-eabi/include/c++/10.3.1/cmath **** 
 395:/Applications/ARM/arm-none-eabi/include/c++/10.3.1/cmath **** #if __cplusplus < 201103L
 396:/Applications/ARM/arm-none-eabi/include/c++/10.3.1/cmath ****   // _GLIBCXX_RESOLVE_LIB_DEFECTS
 397:/Applications/ARM/arm-none-eabi/include/c++/10.3.1/cmath ****   // DR 550. What should the return type of pow(float,int) be?
 398:/Applications/ARM/arm-none-eabi/include/c++/10.3.1/cmath ****   inline double
 399:/Applications/ARM/arm-none-eabi/include/c++/10.3.1/cmath ****   pow(double __x, int __i)
 400:/Applications/ARM/arm-none-eabi/include/c++/10.3.1/cmath ****   { return __builtin_powi(__x, __i); }
 401:/Applications/ARM/arm-none-eabi/include/c++/10.3.1/cmath **** 
 402:/Applications/ARM/arm-none-eabi/include/c++/10.3.1/cmath ****   inline float
 403:/Applications/ARM/arm-none-eabi/include/c++/10.3.1/cmath ****   pow(float __x, int __n)
 404:/Applications/ARM/arm-none-eabi/include/c++/10.3.1/cmath ****   { return __builtin_powif(__x, __n); }
 405:/Applications/ARM/arm-none-eabi/include/c++/10.3.1/cmath **** 
 406:/Applications/ARM/arm-none-eabi/include/c++/10.3.1/cmath ****   inline long double
 407:/Applications/ARM/arm-none-eabi/include/c++/10.3.1/cmath ****   pow(long double __x, int __n)
 408:/Applications/ARM/arm-none-eabi/include/c++/10.3.1/cmath ****   { return __builtin_powil(__x, __n); }
 409:/Applications/ARM/arm-none-eabi/include/c++/10.3.1/cmath **** #endif
 410:/Applications/ARM/arm-none-eabi/include/c++/10.3.1/cmath **** #endif
 411:/Applications/ARM/arm-none-eabi/include/c++/10.3.1/cmath **** 
 412:/Applications/ARM/arm-none-eabi/include/c++/10.3.1/cmath ****   template<typename _Tp, typename _Up>
 413:/Applications/ARM/arm-none-eabi/include/c++/10.3.1/cmath ****     inline _GLIBCXX_CONSTEXPR
 414:/Applications/ARM/arm-none-eabi/include/c++/10.3.1/cmath ****     typename __gnu_cxx::__promote_2<_Tp, _Up>::__type
 415:/Applications/ARM/arm-none-eabi/include/c++/10.3.1/cmath ****     pow(_Tp __x, _Up __y)
 416:/Applications/ARM/arm-none-eabi/include/c++/10.3.1/cmath ****     {
 417:/Applications/ARM/arm-none-eabi/include/c++/10.3.1/cmath ****       typedef typename __gnu_cxx::__promote_2<_Tp, _Up>::__type __type;
 418:/Applications/ARM/arm-none-eabi/include/c++/10.3.1/cmath ****       return pow(__type(__x), __type(__y));
 419:/Applications/ARM/arm-none-eabi/include/c++/10.3.1/cmath ****     }
 420:/Applications/ARM/arm-none-eabi/include/c++/10.3.1/cmath **** 
 421:/Applications/ARM/arm-none-eabi/include/c++/10.3.1/cmath ****   using ::sin;
 422:/Applications/ARM/arm-none-eabi/include/c++/10.3.1/cmath **** 
 423:/Applications/ARM/arm-none-eabi/include/c++/10.3.1/cmath **** #ifndef __CORRECT_ISO_CPP_MATH_H_PROTO
 424:/Applications/ARM/arm-none-eabi/include/c++/10.3.1/cmath ****   inline _GLIBCXX_CONSTEXPR float
 425:/Applications/ARM/arm-none-eabi/include/c++/10.3.1/cmath ****   sin(float __x)
 426:/Applications/ARM/arm-none-eabi/include/c++/10.3.1/cmath ****   { return __builtin_sinf(__x); }
 3675              		.loc 15 426 26 view .LVU821
 3676 0068 B0EE680A 		vmov.f32	s0, s17
 3677 006c FFF7FEFF 		bl	sinf
 3678              	.LVL251:
 3679              	.LBE1172:
 3680              	.LBE1171:
 316:libDaisy//src/hid/disp/display.h ****         end_x   = cos(end_angle_rad) * radius;
 3681              		.loc 3 316 17 view .LVU822
 3682 0070 60EE698A 		vnmul.f32	s17, s0, s19
ARM GAS  /var/folders/z2/7_lhr9dn53s9tj4s0rwtyswm0000gn/T//ccRFfwbB.s 			page 116


 3683              	.LVL252:
 3684              	.LBB1174:
 3685              	.LBB1175:
 185:/Applications/ARM/arm-none-eabi/include/c++/10.3.1/cmath **** 
 3686              		.loc 15 185 26 view .LVU823
 3687 0074 B0EE4A0A 		vmov.f32	s0, s20
 3688 0078 FFF7FEFF 		bl	cosf
 3689              	.LVL253:
 3690 007c B0EE409A 		vmov.f32	s18, s0
 3691              	.LBE1175:
 3692              	.LBE1174:
 3693              	.LBB1177:
 3694              	.LBB1178:
 3695              		.loc 15 426 26 view .LVU824
 3696 0080 B0EE4A0A 		vmov.f32	s0, s20
 3697 0084 FFF7FEFF 		bl	sinf
 3698              	.LVL254:
 3699              	.LBE1178:
 3700              	.LBE1177:
 318:libDaisy//src/hid/disp/display.h **** 
 3701              		.loc 3 318 17 view .LVU825
 3702 0088 20EE690A 		vnmul.f32	s0, s0, s19
 315:libDaisy//src/hid/disp/display.h ****         start_y = -sin(start_angle_rad) * radius;
 3703              		.loc 3 315 17 view .LVU826
 3704 008c 29EE888A 		vmul.f32	s16, s19, s16
 3705              	.LVL255:
 3706              	.LBB1180:
 3707              	.LBI1171:
 425:/Applications/ARM/arm-none-eabi/include/c++/10.3.1/cmath ****   { return __builtin_sinf(__x); }
 3708              		.loc 15 425 3 is_stmt 1 view .LVU827
 3709              	.LBB1173:
 3710              		.loc 15 426 5 view .LVU828
 3711              		.loc 15 426 5 is_stmt 0 view .LVU829
 3712              	.LBE1173:
 3713              	.LBE1180:
 3714              	.LBB1181:
 3715              	.LBI1174:
 184:/Applications/ARM/arm-none-eabi/include/c++/10.3.1/cmath ****   { return __builtin_cosf(__x); }
 3716              		.loc 15 184 3 is_stmt 1 view .LVU830
 3717              	.LBB1176:
 185:/Applications/ARM/arm-none-eabi/include/c++/10.3.1/cmath **** 
 3718              		.loc 15 185 5 view .LVU831
 185:/Applications/ARM/arm-none-eabi/include/c++/10.3.1/cmath **** 
 3719              		.loc 15 185 5 is_stmt 0 view .LVU832
 3720              	.LBE1176:
 3721              	.LBE1181:
 317:libDaisy//src/hid/disp/display.h ****         end_y   = -sin(end_angle_rad) * radius;
 3722              		.loc 3 317 17 view .LVU833
 3723 0090 29EE899A 		vmul.f32	s18, s19, s18
 3724              	.LVL256:
 3725              	.LBB1182:
 3726              	.LBI1177:
 425:/Applications/ARM/arm-none-eabi/include/c++/10.3.1/cmath ****   { return __builtin_sinf(__x); }
 3727              		.loc 15 425 3 is_stmt 1 view .LVU834
 3728              	.LBB1179:
 3729              		.loc 15 426 5 view .LVU835
 3730              		.loc 15 426 5 is_stmt 0 view .LVU836
ARM GAS  /var/folders/z2/7_lhr9dn53s9tj4s0rwtyswm0000gn/T//ccRFfwbB.s 			page 117


 3731              	.LBE1179:
 3732              	.LBE1182:
 322:libDaisy//src/hid/disp/display.h ****            < 2.0f)
 3733              		.loc 3 322 25 view .LVU837
 3734 0094 70EE687A 		vsub.f32	s15, s0, s17
 321:libDaisy//src/hid/disp/display.h ****                + (end_y - start_y) * (end_y - start_y)
 3735              		.loc 3 321 9 view .LVU838
 3736 0098 F0EE006A 		vmov.f32	s13, #2.0e+0
 321:libDaisy//src/hid/disp/display.h ****                + (end_y - start_y) * (end_y - start_y)
 3737              		.loc 3 321 19 view .LVU839
 3738 009c 39EE487A 		vsub.f32	s14, s18, s16
 322:libDaisy//src/hid/disp/display.h ****            < 2.0f)
 3739              		.loc 3 322 36 view .LVU840
 3740 00a0 67EEA77A 		vmul.f32	s15, s15, s15
 322:libDaisy//src/hid/disp/display.h ****            < 2.0f)
 3741              		.loc 3 322 16 view .LVU841
 3742 00a4 E7EE077A 		vfma.f32	s15, s14, s14
 321:libDaisy//src/hid/disp/display.h ****                + (end_y - start_y) * (end_y - start_y)
 3743              		.loc 3 321 9 view .LVU842
 3744 00a8 F4EEE67A 		vcmpe.f32	s15, s13
 3745 00ac F1EE10FA 		vmrs	APSR_nzcv, FPSCR
 3746 00b0 06D5     		bpl	.L291
 325:libDaisy//src/hid/disp/display.h ****                 circle = true;
 3747              		.loc 3 325 13 view .LVU843
 3748 00b2 139B     		ldr	r3, [sp, #76]
 3749 00b4 B42B     		cmp	r3, #180
 3750 00b6 40F39680 		ble	.L232
 326:libDaisy//src/hid/disp/display.h ****             else
 3751              		.loc 3 326 24 view .LVU844
 3752 00ba 4FF00109 		mov	r9, #1
 3753 00be 01E0     		b	.L235
 3754              	.L291:
 304:libDaisy//src/hid/disp/display.h **** 
 3755              		.loc 3 304 14 view .LVU845
 3756 00c0 4FF00009 		mov	r9, #0
 3757              	.L235:
 3758              	.LVL257:
 302:libDaisy//src/hid/disp/display.h **** 
 3759              		.loc 3 302 27 view .LVU846
 3760 00c4 0124     		movs	r4, #1
 332:libDaisy//src/hid/disp/display.h ****         t_y = 0;
 3761              		.loc 3 332 13 view .LVU847
 3762 00c6 7842     		rsbs	r0, r7, #0
 3763              	.LVL258:
 333:libDaisy//src/hid/disp/display.h ****         err = 2 - 2 * radius;
 3764              		.loc 3 333 13 view .LVU848
 3765 00c8 4FF0000C 		mov	ip, #0
 3766 00cc 0095     		str	r5, [sp]
 334:libDaisy//src/hid/disp/display.h **** 
 3767              		.loc 3 334 17 view .LVU849
 3768 00ce E31B     		subs	r3, r4, r7
 302:libDaisy//src/hid/disp/display.h **** 
 3769              		.loc 3 302 17 view .LVU850
 3770 00d0 2146     		mov	r1, r4
 302:libDaisy//src/hid/disp/display.h **** 
 3771              		.loc 3 302 22 view .LVU851
 3772 00d2 2746     		mov	r7, r4
ARM GAS  /var/folders/z2/7_lhr9dn53s9tj4s0rwtyswm0000gn/T//ccRFfwbB.s 			page 118


 3773              	.LVL259:
 302:libDaisy//src/hid/disp/display.h **** 
 3774              		.loc 3 302 12 view .LVU852
 3775 00d4 2246     		mov	r2, r4
 334:libDaisy//src/hid/disp/display.h **** 
 3776              		.loc 3 334 17 view .LVU853
 3777 00d6 A340     		lsls	r3, r3, r4
 3778              	.LVL260:
 3779              	.L261:
 338:libDaisy//src/hid/disp/display.h ****             {
 3780              		.loc 3 338 13 view .LVU854
 3781 00d8 B9F1000F 		cmp	r9, #0
 3782 00dc 6AD1     		bne	.L237
 343:libDaisy//src/hid/disp/display.h ****                 t_exy  = end_x * t_y;
 3783              		.loc 3 343 34 view .LVU855
 3784 00de 4242     		rsbs	r2, r0, #0
 3785              	.LVL261:
 340:libDaisy//src/hid/disp/display.h ****                 t_syx  = start_y * t_x;
 3786              		.loc 3 340 24 view .LVU856
 3787 00e0 06EE90CA 		vmov	s13, ip	@ int
 342:libDaisy//src/hid/disp/display.h ****                 t_synx = start_y * -t_x;
 3788              		.loc 3 342 34 view .LVU857
 3789 00e4 CCF10001 		rsb	r1, ip, #0
 3790              	.LVL262:
 343:libDaisy//src/hid/disp/display.h ****                 t_exy  = end_x * t_y;
 3791              		.loc 3 343 34 view .LVU858
 3792 00e8 07EE102A 		vmov	s14, r2	@ int
 340:libDaisy//src/hid/disp/display.h ****                 t_syx  = start_y * t_x;
 3793              		.loc 3 340 24 view .LVU859
 3794 00ec B8EEE66A 		vcvt.f32.s32	s12, s13
 342:libDaisy//src/hid/disp/display.h ****                 t_synx = start_y * -t_x;
 3795              		.loc 3 342 34 view .LVU860
 3796 00f0 07EE901A 		vmov	s15, r1	@ int
 341:libDaisy//src/hid/disp/display.h ****                 t_sxny = start_x * -t_y;
 3797              		.loc 3 341 24 view .LVU861
 3798 00f4 06EE900A 		vmov	s13, r0	@ int
 343:libDaisy//src/hid/disp/display.h ****                 t_exy  = end_x * t_y;
 3799              		.loc 3 343 34 view .LVU862
 3800 00f8 B8EEC77A 		vcvt.f32.s32	s14, s14
 349:libDaisy//src/hid/disp/display.h ****                 {
 3801              		.loc 3 349 17 view .LVU863
 3802 00fc 139A     		ldr	r2, [sp, #76]
 340:libDaisy//src/hid/disp/display.h ****                 t_syx  = start_y * t_x;
 3803              		.loc 3 340 24 view .LVU864
 3804 00fe 66EE084A 		vmul.f32	s9, s12, s16
 3805              	.LVL263:
 342:libDaisy//src/hid/disp/display.h ****                 t_synx = start_y * -t_x;
 3806              		.loc 3 342 34 view .LVU865
 3807 0102 F8EEE77A 		vcvt.f32.s32	s15, s15
 349:libDaisy//src/hid/disp/display.h ****                 {
 3808              		.loc 3 349 17 view .LVU866
 3809 0106 B42A     		cmp	r2, #180
 343:libDaisy//src/hid/disp/display.h ****                 t_exy  = end_x * t_y;
 3810              		.loc 3 343 24 view .LVU867
 3811 0108 27EE284A 		vmul.f32	s8, s14, s17
 341:libDaisy//src/hid/disp/display.h ****                 t_sxny = start_x * -t_y;
 3812              		.loc 3 341 24 view .LVU868
ARM GAS  /var/folders/z2/7_lhr9dn53s9tj4s0rwtyswm0000gn/T//ccRFfwbB.s 			page 119


 3813 010c F8EEE66A 		vcvt.f32.s32	s13, s13
 342:libDaisy//src/hid/disp/display.h ****                 t_synx = start_y * -t_x;
 3814              		.loc 3 342 24 view .LVU869
 3815 0110 67EE885A 		vmul.f32	s11, s15, s16
 351:libDaisy//src/hid/disp/display.h ****                     d2 = (t_sxy - t_syx < 0 || t_exy - t_eyx > 0);
 3816              		.loc 3 351 33 view .LVU870
 3817 0114 74EEC43A 		vsub.f32	s7, s9, s8
 341:libDaisy//src/hid/disp/display.h ****                 t_sxny = start_x * -t_y;
 3818              		.loc 3 341 24 view .LVU871
 3819 0118 26EEA85A 		vmul.f32	s10, s13, s17
 3820              	.LVL264:
 344:libDaisy//src/hid/disp/display.h ****                 t_eyx  = end_y * t_x;
 3821              		.loc 3 344 24 view .LVU872
 3822 011c 26EE096A 		vmul.f32	s12, s12, s18
 3823              	.LVL265:
 345:libDaisy//src/hid/disp/display.h ****                 t_exny = end_x * -t_y;
 3824              		.loc 3 345 24 view .LVU873
 3825 0120 66EE806A 		vmul.f32	s13, s13, s0
 3826              	.LVL266:
 346:libDaisy//src/hid/disp/display.h ****                 t_eynx = end_y * -t_x;
 3827              		.loc 3 346 24 view .LVU874
 3828 0124 67EE897A 		vmul.f32	s15, s15, s18
 3829              	.LVL267:
 347:libDaisy//src/hid/disp/display.h **** 
 3830              		.loc 3 347 24 view .LVU875
 3831 0128 27EE007A 		vmul.f32	s14, s14, s0
 3832              	.LVL268:
 351:libDaisy//src/hid/disp/display.h ****                     d2 = (t_sxy - t_syx < 0 || t_exy - t_eyx > 0);
 3833              		.loc 3 351 46 view .LVU876
 3834 012c F5EEC03A 		vcmpe.f32	s7, #0
 349:libDaisy//src/hid/disp/display.h ****                 {
 3835              		.loc 3 349 17 view .LVU877
 3836 0130 40F3F280 		ble	.L238
 351:libDaisy//src/hid/disp/display.h ****                     d2 = (t_sxy - t_syx < 0 || t_exy - t_eyx > 0);
 3837              		.loc 3 351 46 view .LVU878
 3838 0134 F1EE10FA 		vmrs	APSR_nzcv, FPSCR
 3839 0138 00F17F81 		bmi	.L264
 351:libDaisy//src/hid/disp/display.h ****                     d2 = (t_sxy - t_syx < 0 || t_exy - t_eyx > 0);
 3840              		.loc 3 351 55 discriminator 2 view .LVU879
 3841 013c 76EE473A 		vsub.f32	s7, s12, s14
 352:libDaisy//src/hid/disp/display.h ****                     d3 = (t_sxny - t_syx < 0 || t_exny - t_eyx > 0);
 3842              		.loc 3 352 33 discriminator 2 view .LVU880
 3843 0140 74EEC54A 		vsub.f32	s9, s9, s10
 3844              	.LVL269:
 351:libDaisy//src/hid/disp/display.h ****                     d2 = (t_sxy - t_syx < 0 || t_exy - t_eyx > 0);
 3845              		.loc 3 351 46 discriminator 2 view .LVU881
 3846 0144 F5EEC03A 		vcmpe.f32	s7, #0
 3847 0148 F1EE10FA 		vmrs	APSR_nzcv, FPSCR
 352:libDaisy//src/hid/disp/display.h ****                     d3 = (t_sxny - t_syx < 0 || t_exny - t_eyx > 0);
 3848              		.loc 3 352 45 discriminator 2 view .LVU882
 3849 014c F5EEC04A 		vcmpe.f32	s9, #0
 351:libDaisy//src/hid/disp/display.h ****                     d2 = (t_sxy - t_syx < 0 || t_exy - t_eyx > 0);
 3850              		.loc 3 351 46 discriminator 2 view .LVU883
 3851 0150 CCBF     		ite	gt
 3852 0152 0122     		movgt	r2, #1
 3853 0154 0022     		movle	r2, #0
 3854              	.LVL270:
ARM GAS  /var/folders/z2/7_lhr9dn53s9tj4s0rwtyswm0000gn/T//ccRFfwbB.s 			page 120


 352:libDaisy//src/hid/disp/display.h ****                     d3 = (t_sxny - t_syx < 0 || t_exny - t_eyx > 0);
 3855              		.loc 3 352 45 discriminator 2 view .LVU884
 3856 0156 F1EE10FA 		vmrs	APSR_nzcv, FPSCR
 3857 015a 00F17781 		bmi	.L265
 3858              	.L307:
 352:libDaisy//src/hid/disp/display.h ****                     d3 = (t_sxny - t_syx < 0 || t_exny - t_eyx > 0);
 3859              		.loc 3 352 54 discriminator 2 view .LVU885
 3860 015e 36EE666A 		vsub.f32	s12, s12, s13
 3861              	.LVL271:
 353:libDaisy//src/hid/disp/display.h ****                     d4 = (t_sxny - t_synx < 0 || t_exny - t_eynx > 0);
 3862              		.loc 3 353 34 discriminator 2 view .LVU886
 3863 0162 35EEC55A 		vsub.f32	s10, s11, s10
 3864              	.LVL272:
 352:libDaisy//src/hid/disp/display.h ****                     d3 = (t_sxny - t_syx < 0 || t_exny - t_eyx > 0);
 3865              		.loc 3 352 45 discriminator 2 view .LVU887
 3866 0166 B5EEC06A 		vcmpe.f32	s12, #0
 3867 016a F1EE10FA 		vmrs	APSR_nzcv, FPSCR
 353:libDaisy//src/hid/disp/display.h ****                     d4 = (t_sxny - t_synx < 0 || t_exny - t_eynx > 0);
 3868              		.loc 3 353 46 discriminator 2 view .LVU888
 3869 016e B5EEC05A 		vcmpe.f32	s10, #0
 352:libDaisy//src/hid/disp/display.h ****                     d3 = (t_sxny - t_syx < 0 || t_exny - t_eyx > 0);
 3870              		.loc 3 352 45 discriminator 2 view .LVU889
 3871 0172 CCBF     		ite	gt
 3872 0174 0121     		movgt	r1, #1
 3873 0176 0021     		movle	r1, #0
 3874              	.LVL273:
 353:libDaisy//src/hid/disp/display.h ****                     d4 = (t_sxny - t_synx < 0 || t_exny - t_eynx > 0);
 3875              		.loc 3 353 46 discriminator 2 view .LVU890
 3876 0178 F1EE10FA 		vmrs	APSR_nzcv, FPSCR
 3877 017c 00F16F81 		bmi	.L266
 3878              	.L308:
 353:libDaisy//src/hid/disp/display.h ****                     d4 = (t_sxny - t_synx < 0 || t_exny - t_eynx > 0);
 3879              		.loc 3 353 56 discriminator 2 view .LVU891
 3880 0180 77EEE66A 		vsub.f32	s13, s15, s13
 3881              	.LVL274:
 353:libDaisy//src/hid/disp/display.h ****                     d4 = (t_sxny - t_synx < 0 || t_exny - t_eynx > 0);
 3882              		.loc 3 353 46 discriminator 2 view .LVU892
 3883 0184 F5EEC06A 		vcmpe.f32	s13, #0
 3884 0188 F1EE10FA 		vmrs	APSR_nzcv, FPSCR
 3885 018c CCBF     		ite	gt
 3886 018e 0127     		movgt	r7, #1
 3887              	.LVL275:
 353:libDaisy//src/hid/disp/display.h ****                     d4 = (t_sxny - t_synx < 0 || t_exny - t_eynx > 0);
 3888              		.loc 3 353 46 discriminator 2 view .LVU893
 3889 0190 0027     		movle	r7, #0
 3890              	.L241:
 3891              	.LVL276:
 354:libDaisy//src/hid/disp/display.h ****                 }
 3892              		.loc 3 354 34 discriminator 6 view .LVU894
 3893 0192 75EEC45A 		vsub.f32	s11, s11, s8
 3894              	.LVL277:
 354:libDaisy//src/hid/disp/display.h ****                 }
 3895              		.loc 3 354 47 discriminator 6 view .LVU895
 3896 0196 F5EEC05A 		vcmpe.f32	s11, #0
 3897 019a F1EE10FA 		vmrs	APSR_nzcv, FPSCR
 3898 019e 00F14781 		bmi	.L267
 3899              	.L297:
ARM GAS  /var/folders/z2/7_lhr9dn53s9tj4s0rwtyswm0000gn/T//ccRFfwbB.s 			page 121


 361:libDaisy//src/hid/disp/display.h ****                 }
 3900              		.loc 3 361 57 discriminator 1 view .LVU896
 3901 01a2 77EEC77A 		vsub.f32	s15, s15, s14
 3902              	.LVL278:
 361:libDaisy//src/hid/disp/display.h ****                 }
 3903              		.loc 3 361 47 discriminator 1 view .LVU897
 3904 01a6 F5EEC07A 		vcmpe.f32	s15, #0
 3905 01aa F1EE10FA 		vmrs	APSR_nzcv, FPSCR
 3906 01ae CCBF     		ite	gt
 3907 01b0 0124     		movgt	r4, #1
 3908              	.LVL279:
 361:libDaisy//src/hid/disp/display.h ****                 }
 3909              		.loc 3 361 47 discriminator 1 view .LVU898
 3910 01b2 0024     		movle	r4, #0
 3911              	.LVL280:
 3912              	.L237:
 365:libDaisy//src/hid/disp/display.h ****                 ((ChildType*)(this))
 3913              		.loc 3 365 13 view .LVU899
 3914 01b4 002A     		cmp	r2, #0
 3915 01b6 40F08A80 		bne	.L298
 3916              	.L249:
 368:libDaisy//src/hid/disp/display.h ****                 ((ChildType*)(this))
 3917              		.loc 3 368 13 view .LVU900
 3918 01ba 0029     		cmp	r1, #0
 3919 01bc 64D1     		bne	.L299
 3920              	.L251:
 371:libDaisy//src/hid/disp/display.h ****                 ((ChildType*)(this))
 3921              		.loc 3 371 13 view .LVU901
 3922 01be BFB9     		cbnz	r7, .L300
 3923              	.L253:
 374:libDaisy//src/hid/disp/display.h ****                 ((ChildType*)(this))
 3924              		.loc 3 374 13 view .LVU902
 3925 01c0 C4BB     		cbnz	r4, .L301
 3926              	.L255:
 3927              	.LVL281:
 379:libDaisy//src/hid/disp/display.h ****             {
 3928              		.loc 3 379 13 view .LVU903
 3929 01c2 9C45     		cmp	ip, r3
 3930 01c4 58DB     		blt	.L272
 3931              	.L303:
 381:libDaisy//src/hid/disp/display.h ****                 err = err + (t_y * 2 + 1);
 3932              		.loc 3 381 17 view .LVU904
 3933 01c6 0CF1010C 		add	ip, ip, #1
 3934              	.LVL282:
 382:libDaisy//src/hid/disp/display.h ****                 if(-t_x == t_y && e2 <= t_x)
 3935              		.loc 3 382 38 view .LVU905
 3936 01ca 03EB4C0E 		add	lr, r3, ip, lsl #1
 383:libDaisy//src/hid/disp/display.h ****                 {
 3937              		.loc 3 383 17 view .LVU906
 3938 01ce 1CEB000F 		cmn	ip, r0
 382:libDaisy//src/hid/disp/display.h ****                 if(-t_x == t_y && e2 <= t_x)
 3939              		.loc 3 382 21 view .LVU907
 3940 01d2 0EF1010E 		add	lr, lr, #1
 3941              	.LVL283:
 383:libDaisy//src/hid/disp/display.h ****                 {
 3942              		.loc 3 383 17 view .LVU908
 3943 01d6 00F0C080 		beq	.L302
ARM GAS  /var/folders/z2/7_lhr9dn53s9tj4s0rwtyswm0000gn/T//ccRFfwbB.s 			page 122


 3944              	.LVL284:
 3945              	.L257:
 388:libDaisy//src/hid/disp/display.h ****             {
 3946              		.loc 3 388 13 view .LVU909
 3947 01da 9842     		cmp	r0, r3
 3948 01dc 4FDB     		blt	.L258
 3949              	.L273:
 388:libDaisy//src/hid/disp/display.h ****             {
 3950              		.loc 3 388 13 view .LVU910
 3951 01de 7346     		mov	r3, lr
 3952              	.LVL285:
 3953              	.L259:
 393:libDaisy//src/hid/disp/display.h ****     }
 3954              		.loc 3 393 21 is_stmt 1 view .LVU911
 3955 01e0 0028     		cmp	r0, #0
 3956 01e2 7FF779AF 		ble	.L261
 3957              	.LVL286:
 3958              	.L232:
 394:libDaisy//src/hid/disp/display.h **** 
 3959              		.loc 3 394 5 is_stmt 0 view .LVU912
 3960 01e6 03B0     		add	sp, sp, #12
 3961              		.cfi_remember_state
 3962              		.cfi_def_cfa_offset 60
 3963              		@ sp needed
 3964 01e8 BDEC068B 		vldm	sp!, {d8-d10}
 3965              		.cfi_restore 84
 3966              		.cfi_restore 85
 3967              		.cfi_restore 82
 3968              		.cfi_restore 83
 3969              		.cfi_restore 80
 3970              		.cfi_restore 81
 3971              		.cfi_def_cfa_offset 36
 3972              	.LVL287:
 394:libDaisy//src/hid/disp/display.h **** 
 3973              		.loc 3 394 5 view .LVU913
 3974 01ec BDE8F08F 		pop	{r4, r5, r6, r7, r8, r9, r10, fp, pc}
 3975              	.LVL288:
 3976              	.L300:
 3977              		.cfi_restore_state
 373:libDaisy//src/hid/disp/display.h ****             if(d4)
 3978              		.loc 3 373 43 view .LVU914
 3979 01f0 009D     		ldr	r5, [sp]
 3980 01f2 A6EB0C0E 		sub	lr, r6, ip
 3981 01f6 00EB050A 		add	r10, r0, r5
 3982              	.LVL289:
 3983              	.LBB1183:
 3984              	.LBI1183:
  42:libDaisy//src/hid/disp/oled_display.h ****     {
 3985              		.loc 2 42 10 is_stmt 1 view .LVU915
 3986              	.LBB1184:
 3987              	.LBI1184:
 352:libDaisy//src/dev/oled_ssd130x.h ****     {
 3988              		.loc 12 352 10 view .LVU916
 3989              	.LBB1185:
 354:libDaisy//src/dev/oled_ssd130x.h ****             return;
 3990              		.loc 12 354 9 is_stmt 0 view .LVU917
 3991 01fa BAF17F0F 		cmp	r10, #127
ARM GAS  /var/folders/z2/7_lhr9dn53s9tj4s0rwtyswm0000gn/T//ccRFfwbB.s 			page 123


 3992 01fe DFD8     		bhi	.L253
 3993 0200 BEF13F0F 		cmp	lr, #63
 3994 0204 DCD8     		bhi	.L253
 357:libDaisy//src/dev/oled_ssd130x.h ****         else
 3995              		.loc 12 357 28 view .LVU918
 3996 0206 4FEADE0B 		lsr	fp, lr, #3
 356:libDaisy//src/dev/oled_ssd130x.h ****             buffer_[x + (y / 8) * width] |= (1 << (y % 8));
 3997              		.loc 12 356 9 view .LVU919
 3998 020a 019D     		ldr	r5, [sp, #4]
 357:libDaisy//src/dev/oled_ssd130x.h ****         else
 3999              		.loc 12 357 42 view .LVU920
 4000 020c 0AEBCB1A 		add	r10, r10, fp, lsl #7
 4001              	.LVL290:
 356:libDaisy//src/dev/oled_ssd130x.h ****             buffer_[x + (y / 8) * width] |= (1 << (y % 8));
 4002              		.loc 12 356 9 view .LVU921
 4003 0210 002D     		cmp	r5, #0
 4004 0212 00F0B180 		beq	.L254
 357:libDaisy//src/dev/oled_ssd130x.h ****         else
 4005              		.loc 12 357 54 view .LVU922
 4006 0216 0EF0070B 		and	fp, lr, #7
 357:libDaisy//src/dev/oled_ssd130x.h ****         else
 4007              		.loc 12 357 42 view .LVU923
 4008 021a C244     		add	r10, r10, r8
 357:libDaisy//src/dev/oled_ssd130x.h ****         else
 4009              		.loc 12 357 48 view .LVU924
 4010 021c 4FF0010E 		mov	lr, #1
 4011              	.LVL291:
 357:libDaisy//src/dev/oled_ssd130x.h ****         else
 4012              		.loc 12 357 48 view .LVU925
 4013 0220 0EFA0BFE 		lsl	lr, lr, fp
 357:libDaisy//src/dev/oled_ssd130x.h ****         else
 4014              		.loc 12 357 42 view .LVU926
 4015 0224 9AF814B0 		ldrb	fp, [r10, #20]	@ zero_extendqisi2
 4016 0228 4EEA0B0E 		orr	lr, lr, fp
 4017 022c 8AF814E0 		strb	lr, [r10, #20]
 4018              	.LVL292:
 357:libDaisy//src/dev/oled_ssd130x.h ****         else
 4019              		.loc 12 357 42 view .LVU927
 4020              	.LBE1185:
 4021              	.LBE1184:
 4022              	.LBE1183:
 374:libDaisy//src/hid/disp/display.h ****                 ((ChildType*)(this))
 4023              		.loc 3 374 13 view .LVU928
 4024 0230 002C     		cmp	r4, #0
 4025 0232 C6D0     		beq	.L255
 4026              	.L301:
 376:libDaisy//src/hid/disp/display.h **** 
 4027              		.loc 3 376 43 view .LVU929
 4028 0234 009D     		ldr	r5, [sp]
 4029 0236 A6EB0C0E 		sub	lr, r6, ip
 4030 023a A5EB000A 		sub	r10, r5, r0
 4031              	.LVL293:
 4032              	.LBB1190:
 4033              	.LBI1190:
  42:libDaisy//src/hid/disp/oled_display.h ****     {
 4034              		.loc 2 42 10 is_stmt 1 view .LVU930
 4035              	.LBB1191:
ARM GAS  /var/folders/z2/7_lhr9dn53s9tj4s0rwtyswm0000gn/T//ccRFfwbB.s 			page 124


 4036              	.LBI1191:
 352:libDaisy//src/dev/oled_ssd130x.h ****     {
 4037              		.loc 12 352 10 view .LVU931
 4038              	.LBB1192:
 354:libDaisy//src/dev/oled_ssd130x.h ****             return;
 4039              		.loc 12 354 9 is_stmt 0 view .LVU932
 4040 023e BAF17F0F 		cmp	r10, #127
 4041 0242 BED8     		bhi	.L255
 4042 0244 BEF13F0F 		cmp	lr, #63
 4043 0248 BBD8     		bhi	.L255
 357:libDaisy//src/dev/oled_ssd130x.h ****         else
 4044              		.loc 12 357 28 view .LVU933
 4045 024a 4FEADE0B 		lsr	fp, lr, #3
 356:libDaisy//src/dev/oled_ssd130x.h ****             buffer_[x + (y / 8) * width] |= (1 << (y % 8));
 4046              		.loc 12 356 9 view .LVU934
 4047 024e 019D     		ldr	r5, [sp, #4]
 357:libDaisy//src/dev/oled_ssd130x.h ****         else
 4048              		.loc 12 357 42 view .LVU935
 4049 0250 0AEBCB1A 		add	r10, r10, fp, lsl #7
 4050              	.LVL294:
 356:libDaisy//src/dev/oled_ssd130x.h ****             buffer_[x + (y / 8) * width] |= (1 << (y % 8));
 4051              		.loc 12 356 9 view .LVU936
 4052 0254 002D     		cmp	r5, #0
 4053 0256 00F0AE80 		beq	.L256
 357:libDaisy//src/dev/oled_ssd130x.h ****         else
 4054              		.loc 12 357 54 view .LVU937
 4055 025a 0EF0070B 		and	fp, lr, #7
 357:libDaisy//src/dev/oled_ssd130x.h ****         else
 4056              		.loc 12 357 42 view .LVU938
 4057 025e C244     		add	r10, r10, r8
 357:libDaisy//src/dev/oled_ssd130x.h ****         else
 4058              		.loc 12 357 48 view .LVU939
 4059 0260 4FF0010E 		mov	lr, #1
 4060              	.LVL295:
 357:libDaisy//src/dev/oled_ssd130x.h ****         else
 4061              		.loc 12 357 48 view .LVU940
 4062              	.LBE1192:
 4063              	.LBE1191:
 4064              	.LBE1190:
 379:libDaisy//src/hid/disp/display.h ****             {
 4065              		.loc 3 379 13 view .LVU941
 4066 0264 9C45     		cmp	ip, r3
 4067              	.LBB1199:
 4068              	.LBB1197:
 4069              	.LBB1195:
 357:libDaisy//src/dev/oled_ssd130x.h ****         else
 4070              		.loc 12 357 48 view .LVU942
 4071 0266 0EFA0BFE 		lsl	lr, lr, fp
 357:libDaisy//src/dev/oled_ssd130x.h ****         else
 4072              		.loc 12 357 42 view .LVU943
 4073 026a 9AF814B0 		ldrb	fp, [r10, #20]	@ zero_extendqisi2
 4074 026e 4EEA0B0E 		orr	lr, lr, fp
 4075 0272 8AF814E0 		strb	lr, [r10, #20]
 4076              	.LVL296:
 357:libDaisy//src/dev/oled_ssd130x.h ****         else
 4077              		.loc 12 357 42 view .LVU944
 4078              	.LBE1195:
ARM GAS  /var/folders/z2/7_lhr9dn53s9tj4s0rwtyswm0000gn/T//ccRFfwbB.s 			page 125


 4079              	.LBE1197:
 4080              	.LBE1199:
 379:libDaisy//src/hid/disp/display.h ****             {
 4081              		.loc 3 379 13 view .LVU945
 4082 0276 A6DA     		bge	.L303
 4083              	.L272:
 388:libDaisy//src/hid/disp/display.h ****             {
 4084              		.loc 3 388 13 view .LVU946
 4085 0278 9842     		cmp	r0, r3
 4086 027a 9E46     		mov	lr, r3
 4087              	.LVL297:
 388:libDaisy//src/hid/disp/display.h ****             {
 4088              		.loc 3 388 13 view .LVU947
 4089 027c AFDA     		bge	.L273
 4090              	.LVL298:
 4091              	.L258:
 390:libDaisy//src/hid/disp/display.h ****                 err = err + (t_x * 2 + 1);
 4092              		.loc 3 390 17 view .LVU948
 4093 027e 0130     		adds	r0, r0, #1
 4094              	.LVL299:
 391:libDaisy//src/hid/disp/display.h ****             }
 4095              		.loc 3 391 38 view .LVU949
 4096 0280 0EEB4003 		add	r3, lr, r0, lsl #1
 391:libDaisy//src/hid/disp/display.h ****             }
 4097              		.loc 3 391 21 view .LVU950
 4098 0284 0133     		adds	r3, r3, #1
 4099              	.LVL300:
 391:libDaisy//src/hid/disp/display.h ****             }
 4100              		.loc 3 391 21 view .LVU951
 4101 0286 ABE7     		b	.L259
 4102              	.L299:
 370:libDaisy//src/hid/disp/display.h ****             if(d3)
 4103              		.loc 3 370 43 view .LVU952
 4104 0288 009D     		ldr	r5, [sp]
 4105 028a 0CEB060E 		add	lr, ip, r6
 4106 028e 00EB050A 		add	r10, r0, r5
 4107              	.LVL301:
 4108              	.LBB1200:
 4109              	.LBI1200:
  42:libDaisy//src/hid/disp/oled_display.h ****     {
 4110              		.loc 2 42 10 is_stmt 1 view .LVU953
 4111              	.LBB1201:
 4112              	.LBI1201:
 352:libDaisy//src/dev/oled_ssd130x.h ****     {
 4113              		.loc 12 352 10 view .LVU954
 4114              	.LBB1202:
 354:libDaisy//src/dev/oled_ssd130x.h ****             return;
 4115              		.loc 12 354 9 is_stmt 0 view .LVU955
 4116 0292 BAF17F0F 		cmp	r10, #127
 4117 0296 92D8     		bhi	.L251
 4118 0298 BEF13F0F 		cmp	lr, #63
 4119 029c 8FD8     		bhi	.L251
 357:libDaisy//src/dev/oled_ssd130x.h ****         else
 4120              		.loc 12 357 28 view .LVU956
 4121 029e 4FEADE0B 		lsr	fp, lr, #3
 356:libDaisy//src/dev/oled_ssd130x.h ****             buffer_[x + (y / 8) * width] |= (1 << (y % 8));
 4122              		.loc 12 356 9 view .LVU957
ARM GAS  /var/folders/z2/7_lhr9dn53s9tj4s0rwtyswm0000gn/T//ccRFfwbB.s 			page 126


 4123 02a2 019D     		ldr	r5, [sp, #4]
 357:libDaisy//src/dev/oled_ssd130x.h ****         else
 4124              		.loc 12 357 42 view .LVU958
 4125 02a4 0AEBCB1A 		add	r10, r10, fp, lsl #7
 4126              	.LVL302:
 356:libDaisy//src/dev/oled_ssd130x.h ****             buffer_[x + (y / 8) * width] |= (1 << (y % 8));
 4127              		.loc 12 356 9 view .LVU959
 4128 02a8 002D     		cmp	r5, #0
 4129 02aa 73D0     		beq	.L252
 357:libDaisy//src/dev/oled_ssd130x.h ****         else
 4130              		.loc 12 357 54 view .LVU960
 4131 02ac 0EF0070B 		and	fp, lr, #7
 357:libDaisy//src/dev/oled_ssd130x.h ****         else
 4132              		.loc 12 357 42 view .LVU961
 4133 02b0 C244     		add	r10, r10, r8
 357:libDaisy//src/dev/oled_ssd130x.h ****         else
 4134              		.loc 12 357 48 view .LVU962
 4135 02b2 4FF0010E 		mov	lr, #1
 4136              	.LVL303:
 357:libDaisy//src/dev/oled_ssd130x.h ****         else
 4137              		.loc 12 357 48 view .LVU963
 4138 02b6 0EFA0BFE 		lsl	lr, lr, fp
 357:libDaisy//src/dev/oled_ssd130x.h ****         else
 4139              		.loc 12 357 42 view .LVU964
 4140 02ba 9AF814B0 		ldrb	fp, [r10, #20]	@ zero_extendqisi2
 4141 02be 4EEA0B0E 		orr	lr, lr, fp
 4142 02c2 8AF814E0 		strb	lr, [r10, #20]
 4143              	.LVL304:
 357:libDaisy//src/dev/oled_ssd130x.h ****         else
 4144              		.loc 12 357 42 view .LVU965
 4145              	.LBE1202:
 4146              	.LBE1201:
 4147              	.LBE1200:
 371:libDaisy//src/hid/disp/display.h ****                 ((ChildType*)(this))
 4148              		.loc 3 371 13 view .LVU966
 4149 02c6 002F     		cmp	r7, #0
 4150 02c8 3FF47AAF 		beq	.L253
 4151 02cc 90E7     		b	.L300
 4152              	.L298:
 367:libDaisy//src/hid/disp/display.h ****             if(d2)
 4153              		.loc 3 367 43 view .LVU967
 4154 02ce 009D     		ldr	r5, [sp]
 4155 02d0 0CEB060E 		add	lr, ip, r6
 4156 02d4 A5EB000A 		sub	r10, r5, r0
 4157              	.LVL305:
 4158              	.LBB1207:
 4159              	.LBI1207:
  42:libDaisy//src/hid/disp/oled_display.h ****     {
 4160              		.loc 2 42 10 is_stmt 1 view .LVU968
 4161              	.LBB1208:
 4162              	.LBI1208:
 352:libDaisy//src/dev/oled_ssd130x.h ****     {
 4163              		.loc 12 352 10 view .LVU969
 4164              	.LBB1209:
 354:libDaisy//src/dev/oled_ssd130x.h ****             return;
 4165              		.loc 12 354 9 is_stmt 0 view .LVU970
 4166 02d8 BAF17F0F 		cmp	r10, #127
ARM GAS  /var/folders/z2/7_lhr9dn53s9tj4s0rwtyswm0000gn/T//ccRFfwbB.s 			page 127


 4167 02dc 3FF66DAF 		bhi	.L249
 4168 02e0 BEF13F0F 		cmp	lr, #63
 4169 02e4 3FF669AF 		bhi	.L249
 357:libDaisy//src/dev/oled_ssd130x.h ****         else
 4170              		.loc 12 357 28 view .LVU971
 4171 02e8 4FEADE0B 		lsr	fp, lr, #3
 356:libDaisy//src/dev/oled_ssd130x.h ****             buffer_[x + (y / 8) * width] |= (1 << (y % 8));
 4172              		.loc 12 356 9 view .LVU972
 4173 02ec 019D     		ldr	r5, [sp, #4]
 357:libDaisy//src/dev/oled_ssd130x.h ****         else
 4174              		.loc 12 357 42 view .LVU973
 4175 02ee 0AEBCB1A 		add	r10, r10, fp, lsl #7
 4176              	.LVL306:
 356:libDaisy//src/dev/oled_ssd130x.h ****             buffer_[x + (y / 8) * width] |= (1 << (y % 8));
 4177              		.loc 12 356 9 view .LVU974
 4178 02f2 002D     		cmp	r5, #0
 4179 02f4 6DD0     		beq	.L250
 357:libDaisy//src/dev/oled_ssd130x.h ****         else
 4180              		.loc 12 357 54 view .LVU975
 4181 02f6 0EF0070B 		and	fp, lr, #7
 357:libDaisy//src/dev/oled_ssd130x.h ****         else
 4182              		.loc 12 357 42 view .LVU976
 4183 02fa C244     		add	r10, r10, r8
 357:libDaisy//src/dev/oled_ssd130x.h ****         else
 4184              		.loc 12 357 48 view .LVU977
 4185 02fc 4FF0010E 		mov	lr, #1
 4186              	.LVL307:
 357:libDaisy//src/dev/oled_ssd130x.h ****         else
 4187              		.loc 12 357 48 view .LVU978
 4188 0300 0EFA0BFE 		lsl	lr, lr, fp
 357:libDaisy//src/dev/oled_ssd130x.h ****         else
 4189              		.loc 12 357 42 view .LVU979
 4190 0304 9AF814B0 		ldrb	fp, [r10, #20]	@ zero_extendqisi2
 4191 0308 4EEA0B0E 		orr	lr, lr, fp
 4192 030c 8AF814E0 		strb	lr, [r10, #20]
 4193              	.LVL308:
 357:libDaisy//src/dev/oled_ssd130x.h ****         else
 4194              		.loc 12 357 42 view .LVU980
 4195              	.LBE1209:
 4196              	.LBE1208:
 4197              	.LBE1207:
 368:libDaisy//src/hid/disp/display.h ****                 ((ChildType*)(this))
 4198              		.loc 3 368 13 view .LVU981
 4199 0310 0029     		cmp	r1, #0
 4200 0312 3FF454AF 		beq	.L251
 4201 0316 B7E7     		b	.L299
 4202              	.LVL309:
 4203              	.L238:
 358:libDaisy//src/hid/disp/display.h ****                     d2 = (t_sxy - t_syx < 0 && t_exy - t_eyx > 0);
 4204              		.loc 3 358 46 view .LVU982
 4205 0318 F1EE10FA 		vmrs	APSR_nzcv, FPSCR
 4206 031c 7ED4     		bmi	.L304
 4207 031e 4A46     		mov	r2, r9
 4208              	.L242:
 4209              	.LVL310:
 359:libDaisy//src/hid/disp/display.h ****                     d3 = (t_sxny - t_syx < 0 && t_exny - t_eyx > 0);
 4210              		.loc 3 359 33 discriminator 6 view .LVU983
ARM GAS  /var/folders/z2/7_lhr9dn53s9tj4s0rwtyswm0000gn/T//ccRFfwbB.s 			page 128


 4211 0320 74EEC54A 		vsub.f32	s9, s9, s10
 4212              	.LVL311:
 359:libDaisy//src/hid/disp/display.h ****                     d3 = (t_sxny - t_syx < 0 && t_exny - t_eyx > 0);
 4213              		.loc 3 359 45 discriminator 6 view .LVU984
 4214 0324 F5EEC04A 		vcmpe.f32	s9, #0
 4215 0328 F1EE10FA 		vmrs	APSR_nzcv, FPSCR
 4216 032c 6CD4     		bmi	.L305
 359:libDaisy//src/hid/disp/display.h ****                     d3 = (t_sxny - t_syx < 0 && t_exny - t_eyx > 0);
 4217              		.loc 3 359 45 view .LVU985
 4218 032e 0021     		movs	r1, #0
 4219              	.LVL312:
 4220              	.L244:
 360:libDaisy//src/hid/disp/display.h ****                     d4 = (t_sxny - t_synx < 0 && t_exny - t_eynx > 0);
 4221              		.loc 3 360 34 discriminator 6 view .LVU986
 4222 0330 35EEC55A 		vsub.f32	s10, s11, s10
 4223              	.LVL313:
 360:libDaisy//src/hid/disp/display.h ****                     d4 = (t_sxny - t_synx < 0 && t_exny - t_eynx > 0);
 4224              		.loc 3 360 46 discriminator 6 view .LVU987
 4225 0334 B5EEC05A 		vcmpe.f32	s10, #0
 4226 0338 F1EE10FA 		vmrs	APSR_nzcv, FPSCR
 4227 033c 5AD4     		bmi	.L306
 360:libDaisy//src/hid/disp/display.h ****                     d4 = (t_sxny - t_synx < 0 && t_exny - t_eynx > 0);
 4228              		.loc 3 360 46 view .LVU988
 4229 033e 0027     		movs	r7, #0
 4230              	.LVL314:
 4231              	.L246:
 361:libDaisy//src/hid/disp/display.h ****                 }
 4232              		.loc 3 361 34 discriminator 6 view .LVU989
 4233 0340 75EEC45A 		vsub.f32	s11, s11, s8
 4234              	.LVL315:
 361:libDaisy//src/hid/disp/display.h ****                 }
 4235              		.loc 3 361 47 discriminator 6 view .LVU990
 4236 0344 F5EEC05A 		vcmpe.f32	s11, #0
 4237 0348 F1EE10FA 		vmrs	APSR_nzcv, FPSCR
 4238 034c 3FF529AF 		bmi	.L297
 361:libDaisy//src/hid/disp/display.h ****                 }
 4239              		.loc 3 361 47 view .LVU991
 4240 0350 0024     		movs	r4, #0
 4241              	.LVL316:
 365:libDaisy//src/hid/disp/display.h ****                 ((ChildType*)(this))
 4242              		.loc 3 365 13 view .LVU992
 4243 0352 002A     		cmp	r2, #0
 4244 0354 3FF431AF 		beq	.L249
 4245 0358 B9E7     		b	.L298
 4246              	.LVL317:
 4247              	.L302:
 383:libDaisy//src/hid/disp/display.h ****                 {
 4248              		.loc 3 383 32 discriminator 1 view .LVU993
 4249 035a 9842     		cmp	r0, r3
 4250 035c 8FDB     		blt	.L258
 385:libDaisy//src/hid/disp/display.h ****                 }
 4251              		.loc 3 385 24 view .LVU994
 4252 035e 0023     		movs	r3, #0
 4253              	.LVL318:
 385:libDaisy//src/hid/disp/display.h ****                 }
 4254              		.loc 3 385 24 view .LVU995
 4255 0360 3BE7     		b	.L257
ARM GAS  /var/folders/z2/7_lhr9dn53s9tj4s0rwtyswm0000gn/T//ccRFfwbB.s 			page 129


 4256              	.L310:
 4257 0362 00BFAFF3 		.align	3
 4257      0080
 4258              	.L309:
 4259 0368 7A008BFC 		.word	-57999238
 4260 036c FA210940 		.word	1074340346
 4261 0370 00000000 		.word	0
 4262 0374 00806640 		.word	1080459264
 4263              	.LVL319:
 4264              	.L254:
 4265              	.LBB1214:
 4266              	.LBB1189:
 4267              	.LBB1188:
 4268              	.LBB1186:
 4269              	.LBI1186:
 352:libDaisy//src/dev/oled_ssd130x.h ****     {
 4270              		.loc 12 352 10 is_stmt 1 view .LVU996
 4271              	.LBB1187:
 359:libDaisy//src/dev/oled_ssd130x.h ****     }
 4272              		.loc 12 359 42 is_stmt 0 view .LVU997
 4273 0378 C244     		add	r10, r10, r8
 4274              	.LVL320:
 359:libDaisy//src/dev/oled_ssd130x.h ****     }
 4275              		.loc 12 359 49 view .LVU998
 4276 037a 4FF0010B 		mov	fp, #1
 4277              	.LVL321:
 359:libDaisy//src/dev/oled_ssd130x.h ****     }
 4278              		.loc 12 359 55 view .LVU999
 4279 037e 0EF0070E 		and	lr, lr, #7
 4280              	.LVL322:
 359:libDaisy//src/dev/oled_ssd130x.h ****     }
 4281              		.loc 12 359 49 view .LVU1000
 4282 0382 0BFA0EFE 		lsl	lr, fp, lr
 359:libDaisy//src/dev/oled_ssd130x.h ****     }
 4283              		.loc 12 359 42 view .LVU1001
 4284 0386 9AF814B0 		ldrb	fp, [r10, #20]	@ zero_extendqisi2
 4285 038a 2BEA0E0E 		bic	lr, fp, lr
 4286 038e 8AF814E0 		strb	lr, [r10, #20]
 4287              	.LVL323:
 359:libDaisy//src/dev/oled_ssd130x.h ****     }
 4288              		.loc 12 359 42 view .LVU1002
 4289 0392 15E7     		b	.L253
 4290              	.LVL324:
 4291              	.L252:
 359:libDaisy//src/dev/oled_ssd130x.h ****     }
 4292              		.loc 12 359 42 view .LVU1003
 4293              	.LBE1187:
 4294              	.LBE1186:
 4295              	.LBE1188:
 4296              	.LBE1189:
 4297              	.LBE1214:
 4298              	.LBB1215:
 4299              	.LBB1206:
 4300              	.LBB1205:
 4301              	.LBB1203:
 4302              	.LBI1203:
 352:libDaisy//src/dev/oled_ssd130x.h ****     {
ARM GAS  /var/folders/z2/7_lhr9dn53s9tj4s0rwtyswm0000gn/T//ccRFfwbB.s 			page 130


 4303              		.loc 12 352 10 is_stmt 1 view .LVU1004
 4304              	.LBB1204:
 359:libDaisy//src/dev/oled_ssd130x.h ****     }
 4305              		.loc 12 359 42 is_stmt 0 view .LVU1005
 4306 0394 C244     		add	r10, r10, r8
 4307              	.LVL325:
 359:libDaisy//src/dev/oled_ssd130x.h ****     }
 4308              		.loc 12 359 49 view .LVU1006
 4309 0396 4FF0010B 		mov	fp, #1
 4310              	.LVL326:
 359:libDaisy//src/dev/oled_ssd130x.h ****     }
 4311              		.loc 12 359 55 view .LVU1007
 4312 039a 0EF0070E 		and	lr, lr, #7
 4313              	.LVL327:
 359:libDaisy//src/dev/oled_ssd130x.h ****     }
 4314              		.loc 12 359 49 view .LVU1008
 4315 039e 0BFA0EFE 		lsl	lr, fp, lr
 359:libDaisy//src/dev/oled_ssd130x.h ****     }
 4316              		.loc 12 359 42 view .LVU1009
 4317 03a2 9AF814B0 		ldrb	fp, [r10, #20]	@ zero_extendqisi2
 4318 03a6 2BEA0E0E 		bic	lr, fp, lr
 4319 03aa 8AF814E0 		strb	lr, [r10, #20]
 4320              	.LVL328:
 359:libDaisy//src/dev/oled_ssd130x.h ****     }
 4321              		.loc 12 359 42 view .LVU1010
 4322              	.LBE1204:
 4323              	.LBE1203:
 4324              	.LBE1205:
 4325              	.LBE1206:
 4326              	.LBE1215:
 371:libDaisy//src/hid/disp/display.h ****                 ((ChildType*)(this))
 4327              		.loc 3 371 13 view .LVU1011
 4328 03ae 002F     		cmp	r7, #0
 4329 03b0 3FF406AF 		beq	.L253
 4330 03b4 1CE7     		b	.L300
 4331              	.LVL329:
 4332              	.L256:
 4333              	.LBB1216:
 4334              	.LBB1198:
 4335              	.LBB1196:
 4336              	.LBB1193:
 4337              	.LBI1193:
 352:libDaisy//src/dev/oled_ssd130x.h ****     {
 4338              		.loc 12 352 10 is_stmt 1 view .LVU1012
 4339              	.LBB1194:
 359:libDaisy//src/dev/oled_ssd130x.h ****     }
 4340              		.loc 12 359 42 is_stmt 0 view .LVU1013
 4341 03b6 C244     		add	r10, r10, r8
 4342              	.LVL330:
 359:libDaisy//src/dev/oled_ssd130x.h ****     }
 4343              		.loc 12 359 49 view .LVU1014
 4344 03b8 4FF0010B 		mov	fp, #1
 4345              	.LVL331:
 359:libDaisy//src/dev/oled_ssd130x.h ****     }
 4346              		.loc 12 359 55 view .LVU1015
 4347 03bc 0EF0070E 		and	lr, lr, #7
 4348              	.LVL332:
ARM GAS  /var/folders/z2/7_lhr9dn53s9tj4s0rwtyswm0000gn/T//ccRFfwbB.s 			page 131


 359:libDaisy//src/dev/oled_ssd130x.h ****     }
 4349              		.loc 12 359 49 view .LVU1016
 4350 03c0 0BFA0EFE 		lsl	lr, fp, lr
 359:libDaisy//src/dev/oled_ssd130x.h ****     }
 4351              		.loc 12 359 42 view .LVU1017
 4352 03c4 9AF814B0 		ldrb	fp, [r10, #20]	@ zero_extendqisi2
 4353 03c8 2BEA0E0E 		bic	lr, fp, lr
 4354 03cc 8AF814E0 		strb	lr, [r10, #20]
 4355              	.LVL333:
 359:libDaisy//src/dev/oled_ssd130x.h ****     }
 4356              		.loc 12 359 42 view .LVU1018
 4357 03d0 F7E6     		b	.L255
 4358              	.LVL334:
 4359              	.L250:
 359:libDaisy//src/dev/oled_ssd130x.h ****     }
 4360              		.loc 12 359 42 view .LVU1019
 4361              	.LBE1194:
 4362              	.LBE1193:
 4363              	.LBE1196:
 4364              	.LBE1198:
 4365              	.LBE1216:
 4366              	.LBB1217:
 4367              	.LBB1213:
 4368              	.LBB1212:
 4369              	.LBB1210:
 4370              	.LBI1210:
 352:libDaisy//src/dev/oled_ssd130x.h ****     {
 4371              		.loc 12 352 10 is_stmt 1 view .LVU1020
 4372              	.LBB1211:
 359:libDaisy//src/dev/oled_ssd130x.h ****     }
 4373              		.loc 12 359 42 is_stmt 0 view .LVU1021
 4374 03d2 C244     		add	r10, r10, r8
 4375              	.LVL335:
 359:libDaisy//src/dev/oled_ssd130x.h ****     }
 4376              		.loc 12 359 49 view .LVU1022
 4377 03d4 4FF0010B 		mov	fp, #1
 4378              	.LVL336:
 359:libDaisy//src/dev/oled_ssd130x.h ****     }
 4379              		.loc 12 359 55 view .LVU1023
 4380 03d8 0EF0070E 		and	lr, lr, #7
 4381              	.LVL337:
 359:libDaisy//src/dev/oled_ssd130x.h ****     }
 4382              		.loc 12 359 49 view .LVU1024
 4383 03dc 0BFA0EFE 		lsl	lr, fp, lr
 359:libDaisy//src/dev/oled_ssd130x.h ****     }
 4384              		.loc 12 359 42 view .LVU1025
 4385 03e0 9AF814B0 		ldrb	fp, [r10, #20]	@ zero_extendqisi2
 4386 03e4 2BEA0E0E 		bic	lr, fp, lr
 4387 03e8 8AF814E0 		strb	lr, [r10, #20]
 4388              	.LVL338:
 359:libDaisy//src/dev/oled_ssd130x.h ****     }
 4389              		.loc 12 359 42 view .LVU1026
 4390              	.LBE1211:
 4391              	.LBE1210:
 4392              	.LBE1212:
 4393              	.LBE1213:
 4394              	.LBE1217:
ARM GAS  /var/folders/z2/7_lhr9dn53s9tj4s0rwtyswm0000gn/T//ccRFfwbB.s 			page 132


 368:libDaisy//src/hid/disp/display.h ****                 ((ChildType*)(this))
 4395              		.loc 3 368 13 view .LVU1027
 4396 03ec 0029     		cmp	r1, #0
 4397 03ee 3FF4E6AE 		beq	.L251
 4398 03f2 49E7     		b	.L299
 4399              	.LVL339:
 4400              	.L306:
 360:libDaisy//src/hid/disp/display.h ****                     d4 = (t_sxny - t_synx < 0 && t_exny - t_eynx > 0);
 4401              		.loc 3 360 56 discriminator 1 view .LVU1028
 4402 03f4 77EEE66A 		vsub.f32	s13, s15, s13
 4403              	.LVL340:
 360:libDaisy//src/hid/disp/display.h ****                     d4 = (t_sxny - t_synx < 0 && t_exny - t_eynx > 0);
 4404              		.loc 3 360 46 discriminator 1 view .LVU1029
 4405 03f8 F5EEC06A 		vcmpe.f32	s13, #0
 4406 03fc F1EE10FA 		vmrs	APSR_nzcv, FPSCR
 4407 0400 CCBF     		ite	gt
 4408 0402 0127     		movgt	r7, #1
 4409              	.LVL341:
 360:libDaisy//src/hid/disp/display.h ****                     d4 = (t_sxny - t_synx < 0 && t_exny - t_eynx > 0);
 4410              		.loc 3 360 46 discriminator 1 view .LVU1030
 4411 0404 0027     		movle	r7, #0
 4412 0406 9BE7     		b	.L246
 4413              	.LVL342:
 4414              	.L305:
 359:libDaisy//src/hid/disp/display.h ****                     d3 = (t_sxny - t_syx < 0 && t_exny - t_eyx > 0);
 4415              		.loc 3 359 54 discriminator 1 view .LVU1031
 4416 0408 36EE666A 		vsub.f32	s12, s12, s13
 4417              	.LVL343:
 359:libDaisy//src/hid/disp/display.h ****                     d3 = (t_sxny - t_syx < 0 && t_exny - t_eyx > 0);
 4418              		.loc 3 359 45 discriminator 1 view .LVU1032
 4419 040c B5EEC06A 		vcmpe.f32	s12, #0
 4420 0410 F1EE10FA 		vmrs	APSR_nzcv, FPSCR
 4421 0414 CCBF     		ite	gt
 4422 0416 0121     		movgt	r1, #1
 4423 0418 0021     		movle	r1, #0
 4424 041a 89E7     		b	.L244
 4425              	.LVL344:
 4426              	.L304:
 358:libDaisy//src/hid/disp/display.h ****                     d2 = (t_sxy - t_syx < 0 && t_exy - t_eyx > 0);
 4427              		.loc 3 358 55 discriminator 1 view .LVU1033
 4428 041c 76EE473A 		vsub.f32	s7, s12, s14
 358:libDaisy//src/hid/disp/display.h ****                     d2 = (t_sxy - t_syx < 0 && t_exy - t_eyx > 0);
 4429              		.loc 3 358 46 discriminator 1 view .LVU1034
 4430 0420 F5EEC03A 		vcmpe.f32	s7, #0
 4431 0424 F1EE10FA 		vmrs	APSR_nzcv, FPSCR
 4432 0428 CCBF     		ite	gt
 4433 042a 0122     		movgt	r2, #1
 4434 042c 0022     		movle	r2, #0
 4435 042e 77E7     		b	.L242
 4436              	.LVL345:
 4437              	.L267:
 354:libDaisy//src/hid/disp/display.h ****                 }
 4438              		.loc 3 354 47 view .LVU1035
 4439 0430 0124     		movs	r4, #1
 4440              	.LVL346:
 365:libDaisy//src/hid/disp/display.h ****                 ((ChildType*)(this))
 4441              		.loc 3 365 13 view .LVU1036
ARM GAS  /var/folders/z2/7_lhr9dn53s9tj4s0rwtyswm0000gn/T//ccRFfwbB.s 			page 133


 4442 0432 002A     		cmp	r2, #0
 4443 0434 3FF4C1AE 		beq	.L249
 365:libDaisy//src/hid/disp/display.h ****                 ((ChildType*)(this))
 4444              		.loc 3 365 13 view .LVU1037
 4445 0438 49E7     		b	.L298
 4446              	.LVL347:
 4447              	.L264:
 352:libDaisy//src/hid/disp/display.h ****                     d3 = (t_sxny - t_syx < 0 || t_exny - t_eyx > 0);
 4448              		.loc 3 352 33 view .LVU1038
 4449 043a 74EEC54A 		vsub.f32	s9, s9, s10
 4450              	.LVL348:
 351:libDaisy//src/hid/disp/display.h ****                     d2 = (t_sxy - t_syx < 0 || t_exy - t_eyx > 0);
 4451              		.loc 3 351 46 view .LVU1039
 4452 043e 0122     		movs	r2, #1
 4453              	.LVL349:
 352:libDaisy//src/hid/disp/display.h ****                     d3 = (t_sxny - t_syx < 0 || t_exny - t_eyx > 0);
 4454              		.loc 3 352 45 view .LVU1040
 4455 0440 F5EEC04A 		vcmpe.f32	s9, #0
 4456 0444 F1EE10FA 		vmrs	APSR_nzcv, FPSCR
 4457 0448 7FF589AE 		bpl	.L307
 4458              	.L265:
 353:libDaisy//src/hid/disp/display.h ****                     d4 = (t_sxny - t_synx < 0 || t_exny - t_eynx > 0);
 4459              		.loc 3 353 34 view .LVU1041
 4460 044c 35EEC55A 		vsub.f32	s10, s11, s10
 4461              	.LVL350:
 352:libDaisy//src/hid/disp/display.h ****                     d3 = (t_sxny - t_syx < 0 || t_exny - t_eyx > 0);
 4462              		.loc 3 352 45 view .LVU1042
 4463 0450 0121     		movs	r1, #1
 4464              	.LVL351:
 353:libDaisy//src/hid/disp/display.h ****                     d4 = (t_sxny - t_synx < 0 || t_exny - t_eynx > 0);
 4465              		.loc 3 353 46 view .LVU1043
 4466 0452 B5EEC05A 		vcmpe.f32	s10, #0
 4467 0456 F1EE10FA 		vmrs	APSR_nzcv, FPSCR
 4468 045a 7FF591AE 		bpl	.L308
 4469              	.LVL352:
 4470              	.L266:
 353:libDaisy//src/hid/disp/display.h ****                     d4 = (t_sxny - t_synx < 0 || t_exny - t_eynx > 0);
 4471              		.loc 3 353 46 view .LVU1044
 4472 045e 0127     		movs	r7, #1
 4473              	.LVL353:
 353:libDaisy//src/hid/disp/display.h ****                     d4 = (t_sxny - t_synx < 0 || t_exny - t_eynx > 0);
 4474              		.loc 3 353 46 view .LVU1045
 4475 0460 97E6     		b	.L241
 4476              	.LVL354:
 4477              	.L233:
 308:libDaisy//src/hid/disp/display.h ****             sweep = -sweep;
 4478              		.loc 3 308 25 view .LVU1046
 4479 0462 DDE91223 		ldrd	r2, r3, [sp, #72]
 4480              	.LVL355:
 308:libDaisy//src/hid/disp/display.h ****             sweep = -sweep;
 4481              		.loc 3 308 25 view .LVU1047
 4482 0466 1344     		add	r3, r3, r2
 4483              	.LVL356:
 308:libDaisy//src/hid/disp/display.h ****             sweep = -sweep;
 4484              		.loc 3 308 25 view .LVU1048
 4485 0468 06EE102A 		vmov	s12, r2	@ int
 4486 046c 1293     		str	r3, [sp, #72]
ARM GAS  /var/folders/z2/7_lhr9dn53s9tj4s0rwtyswm0000gn/T//ccRFfwbB.s 			page 134


 4487 046e 139B     		ldr	r3, [sp, #76]
 4488              	.LVL357:
 308:libDaisy//src/hid/disp/display.h ****             sweep = -sweep;
 4489              		.loc 3 308 25 view .LVU1049
 4490 0470 5B42     		rsbs	r3, r3, #0
 4491 0472 1393     		str	r3, [sp, #76]
 4492              	.LVL358:
 308:libDaisy//src/hid/disp/display.h ****             sweep = -sweep;
 4493              		.loc 3 308 25 view .LVU1050
 4494 0474 D8E5     		b	.L234
 4495              		.cfi_endproc
 4496              	.LFE5450:
 4498 0476 00BF     		.section	.text._ZN5daisy25OneBitGraphicsDisplayImplINS_11OledDisplayINS_13SSD130xDriverILj128ELj64
 4499              		.align	1
 4500              		.p2align 2,,3
 4501              		.weak	_ZN5daisy25OneBitGraphicsDisplayImplINS_11OledDisplayINS_13SSD130xDriverILj128ELj64ENS_24SSD
 4502              		.syntax unified
 4503              		.thumb
 4504              		.thumb_func
 4506              	_ZN5daisy25OneBitGraphicsDisplayImplINS_11OledDisplayINS_13SSD130xDriverILj128ELj64ENS_24SSD130x4Wi
 4507              	.LVL359:
 4508              	.LFB5449:
 257:libDaisy//src/hid/disp/display.h ****                   uint_fast8_t y1,
 4509              		.loc 3 257 10 is_stmt 1 view -0
 4510              		.cfi_startproc
 4511              		@ args = 12, pretend = 0, frame = 24
 4512              		@ frame_needed = 0, uses_anonymous_args = 0
 257:libDaisy//src/hid/disp/display.h ****                   uint_fast8_t y1,
 4513              		.loc 3 257 10 is_stmt 0 view .LVU1052
 4514 0000 2DE9F04F 		push	{r4, r5, r6, r7, r8, r9, r10, fp, lr}
 4515              		.cfi_def_cfa_offset 36
 4516              		.cfi_offset 4, -36
 4517              		.cfi_offset 5, -32
 4518              		.cfi_offset 6, -28
 4519              		.cfi_offset 7, -24
 4520              		.cfi_offset 8, -20
 4521              		.cfi_offset 9, -16
 4522              		.cfi_offset 10, -12
 4523              		.cfi_offset 11, -8
 4524              		.cfi_offset 14, -4
 4525 0004 87B0     		sub	sp, sp, #28
 4526              		.cfi_def_cfa_offset 64
 257:libDaisy//src/hid/disp/display.h ****                   uint_fast8_t y1,
 4527              		.loc 3 257 10 view .LVU1053
 4528 0006 9DF84850 		ldrb	r5, [sp, #72]	@ zero_extendqisi2
 4529 000a 109C     		ldr	r4, [sp, #64]
 4530 000c 2E46     		mov	r6, r5
 4531 000e 0195     		str	r5, [sp, #4]
 4532 0010 9DF84450 		ldrb	r5, [sp, #68]	@ zero_extendqisi2
 4533              	.LBB1287:
 264:libDaisy//src/hid/disp/display.h ****         {
 4534              		.loc 3 264 9 view .LVU1054
 4535 0014 9EB3     		cbz	r6, .L312
 4536              	.LVL360:
 264:libDaisy//src/hid/disp/display.h ****         {
 4537              		.loc 3 264 9 view .LVU1055
 4538              	.LBE1287:
ARM GAS  /var/folders/z2/7_lhr9dn53s9tj4s0rwtyswm0000gn/T//ccRFfwbB.s 			page 135


 4539              	.LBB1409:
 4540              	.LBB1410:
 266:libDaisy//src/hid/disp/display.h ****             {
 4541              		.loc 3 266 40 is_stmt 1 view .LVU1056
 4542 0016 9942     		cmp	r1, r3
 4543 0018 2ED8     		bhi	.L311
 4544 001a 9946     		mov	r9, r3
 4545              	.LVL361:
 4546              	.L315:
 4547              	.LBB1411:
 268:libDaisy//src/hid/disp/display.h ****                 {
 4548              		.loc 3 268 44 view .LVU1057
 4549 001c A242     		cmp	r2, r4
 4550 001e 28D8     		bhi	.L318
 4551              	.LBB1412:
 4552              	.LBB1413:
 4553              	.LBB1414:
 354:libDaisy//src/dev/oled_ssd130x.h ****             return;
 4554              		.loc 12 354 14 is_stmt 0 view .LVU1058
 4555 0020 7F29     		cmp	r1, #127
 4556 0022 1646     		mov	r6, r2
 4557 0024 94BF     		ite	ls
 4558 0026 0023     		movls	r3, #0
 4559 0028 0123     		movhi	r3, #1
 4560 002a 08E0     		b	.L319
 4561              	.LVL362:
 4562              	.L402:
 357:libDaisy//src/dev/oled_ssd130x.h ****         else
 4563              		.loc 12 357 42 view .LVU1059
 4564 002c 9CF81480 		ldrb	r8, [ip, #20]	@ zero_extendqisi2
 4565 0030 4EEA080E 		orr	lr, lr, r8
 4566 0034 8CF814E0 		strb	lr, [ip, #20]
 4567              	.LVL363:
 4568              	.L316:
 357:libDaisy//src/dev/oled_ssd130x.h ****         else
 4569              		.loc 12 357 42 view .LVU1060
 4570              	.LBE1414:
 4571              	.LBE1413:
 4572              	.LBE1412:
 268:libDaisy//src/hid/disp/display.h ****                 {
 4573              		.loc 3 268 17 is_stmt 1 view .LVU1061
 4574 0038 0136     		adds	r6, r6, #1
 4575              	.LVL364:
 268:libDaisy//src/hid/disp/display.h ****                 {
 4576              		.loc 3 268 44 view .LVU1062
 4577 003a B442     		cmp	r4, r6
 4578 003c 19D3     		bcc	.L318
 4579              	.L319:
 4580              	.LVL365:
 4581              	.LBB1428:
 4582              	.LBI1412:
  42:libDaisy//src/hid/disp/oled_display.h ****     {
 4583              		.loc 2 42 10 view .LVU1063
 4584              	.LBB1425:
 4585              	.LBI1413:
 352:libDaisy//src/dev/oled_ssd130x.h ****     {
 4586              		.loc 12 352 10 view .LVU1064
ARM GAS  /var/folders/z2/7_lhr9dn53s9tj4s0rwtyswm0000gn/T//ccRFfwbB.s 			page 136


 4587              	.LBB1422:
 354:libDaisy//src/dev/oled_ssd130x.h ****             return;
 4588              		.loc 12 354 9 is_stmt 0 view .LVU1065
 4589 003e 3F2E     		cmp	r6, #63
 4590 0040 FAD8     		bhi	.L316
 354:libDaisy//src/dev/oled_ssd130x.h ****             return;
 4591              		.loc 12 354 9 view .LVU1066
 4592 0042 002B     		cmp	r3, #0
 4593 0044 F8D1     		bne	.L316
 4594              	.LVL366:
 4595              	.LBB1415:
 4596              	.LBI1415:
 352:libDaisy//src/dev/oled_ssd130x.h ****     {
 4597              		.loc 12 352 10 is_stmt 1 view .LVU1067
 352:libDaisy//src/dev/oled_ssd130x.h ****     {
 4598              		.loc 12 352 10 is_stmt 0 view .LVU1068
 4599              	.LBE1415:
 357:libDaisy//src/dev/oled_ssd130x.h ****         else
 4600              		.loc 12 357 28 view .LVU1069
 4601 0046 4FEAD60C 		lsr	ip, r6, #3
 357:libDaisy//src/dev/oled_ssd130x.h ****         else
 4602              		.loc 12 357 54 view .LVU1070
 4603 004a 06F0070E 		and	lr, r6, #7
 357:libDaisy//src/dev/oled_ssd130x.h ****         else
 4604              		.loc 12 357 48 view .LVU1071
 4605 004e 4FF00108 		mov	r8, #1
 357:libDaisy//src/dev/oled_ssd130x.h ****         else
 4606              		.loc 12 357 42 view .LVU1072
 4607 0052 01EBCC1C 		add	ip, r1, ip, lsl #7
 357:libDaisy//src/dev/oled_ssd130x.h ****         else
 4608              		.loc 12 357 48 view .LVU1073
 4609 0056 08FA0EFE 		lsl	lr, r8, lr
 357:libDaisy//src/dev/oled_ssd130x.h ****         else
 4610              		.loc 12 357 42 view .LVU1074
 4611 005a 8444     		add	ip, ip, r0
 356:libDaisy//src/dev/oled_ssd130x.h ****             buffer_[x + (y / 8) * width] |= (1 << (y % 8));
 4612              		.loc 12 356 9 view .LVU1075
 4613 005c 002D     		cmp	r5, #0
 4614 005e E5D1     		bne	.L402
 4615              	.LBB1419:
 4616              	.LBB1416:
 359:libDaisy//src/dev/oled_ssd130x.h ****     }
 4617              		.loc 12 359 42 view .LVU1076
 4618 0060 9CF814B0 		ldrb	fp, [ip, #20]	@ zero_extendqisi2
 4619              	.LBE1416:
 4620              	.LBE1419:
 4621              	.LBE1422:
 4622              	.LBE1425:
 4623              	.LBE1428:
 268:libDaisy//src/hid/disp/display.h ****                 {
 4624              		.loc 3 268 17 view .LVU1077
 4625 0064 0136     		adds	r6, r6, #1
 4626              	.LVL367:
 4627              	.LBB1429:
 4628              	.LBB1426:
 4629              	.LBB1423:
 4630              	.LBB1420:
ARM GAS  /var/folders/z2/7_lhr9dn53s9tj4s0rwtyswm0000gn/T//ccRFfwbB.s 			page 137


 4631              	.LBB1417:
 359:libDaisy//src/dev/oled_ssd130x.h ****     }
 4632              		.loc 12 359 42 view .LVU1078
 4633 0066 2BEA0E0A 		bic	r10, fp, lr
 4634              	.LBE1417:
 4635              	.LBE1420:
 4636              	.LBE1423:
 4637              	.LBE1426:
 4638              	.LBE1429:
 268:libDaisy//src/hid/disp/display.h ****                 {
 4639              		.loc 3 268 44 view .LVU1079
 4640 006a B442     		cmp	r4, r6
 4641              	.LBB1430:
 4642              	.LBB1427:
 4643              	.LBB1424:
 4644              	.LBB1421:
 4645              	.LBB1418:
 359:libDaisy//src/dev/oled_ssd130x.h ****     }
 4646              		.loc 12 359 42 view .LVU1080
 4647 006c 8CF814A0 		strb	r10, [ip, #20]
 4648              	.LVL368:
 359:libDaisy//src/dev/oled_ssd130x.h ****     }
 4649              		.loc 12 359 42 view .LVU1081
 4650              	.LBE1418:
 4651              	.LBE1421:
 4652              	.LBE1424:
 4653              	.LBE1427:
 4654              	.LBE1430:
 268:libDaisy//src/hid/disp/display.h ****                 {
 4655              		.loc 3 268 17 is_stmt 1 view .LVU1082
 268:libDaisy//src/hid/disp/display.h ****                 {
 4656              		.loc 3 268 44 view .LVU1083
 4657 0070 E5D2     		bcs	.L319
 4658              	.LVL369:
 4659              	.L318:
 268:libDaisy//src/hid/disp/display.h ****                 {
 4660              		.loc 3 268 44 is_stmt 0 view .LVU1084
 4661              	.LBE1411:
 266:libDaisy//src/hid/disp/display.h ****             {
 4662              		.loc 3 266 13 is_stmt 1 view .LVU1085
 4663 0072 0131     		adds	r1, r1, #1
 4664              	.LVL370:
 266:libDaisy//src/hid/disp/display.h ****             {
 4665              		.loc 3 266 40 view .LVU1086
 4666 0074 8945     		cmp	r9, r1
 4667 0076 D1D2     		bcs	.L315
 4668              	.LVL371:
 4669              	.L311:
 266:libDaisy//src/hid/disp/display.h ****             {
 4670              		.loc 3 266 40 is_stmt 0 view .LVU1087
 4671              	.LBE1410:
 4672              	.LBE1409:
 281:libDaisy//src/hid/disp/display.h **** 
 4673              		.loc 3 281 5 view .LVU1088
 4674 0078 07B0     		add	sp, sp, #28
 4675              		.cfi_remember_state
 4676              		.cfi_def_cfa_offset 36
ARM GAS  /var/folders/z2/7_lhr9dn53s9tj4s0rwtyswm0000gn/T//ccRFfwbB.s 			page 138


 4677              		@ sp needed
 4678 007a BDE8F08F 		pop	{r4, r5, r6, r7, r8, r9, r10, fp, pc}
 4679              	.LVL372:
 4680              	.L312:
 4681              		.cfi_restore_state
 4682              	.LBB1431:
 4683              	.LBB1288:
 4684              	.LBI1288:
 221:libDaisy//src/hid/disp/display.h ****                   uint_fast8_t y1,
 4685              		.loc 3 221 10 is_stmt 1 view .LVU1089
 4686              	.LBB1289:
 227:libDaisy//src/hid/disp/display.h ****         int_fast16_t deltaY = abs((int_fast16_t)y2 - (int_fast16_t)y1);
 4687              		.loc 3 227 52 is_stmt 0 view .LVU1090
 4688 007e A3EB0108 		sub	r8, r3, r1
 227:libDaisy//src/hid/disp/display.h ****         int_fast16_t deltaY = abs((int_fast16_t)y2 - (int_fast16_t)y1);
 4689              		.loc 3 227 22 view .LVU1091
 4690 0082 B8F1000F 		cmp	r8, #0
 4691 0086 B8BF     		it	lt
 4692 0088 C8F10008 		rsblt	r8, r8, #0
 4693              	.LVL373:
 229:libDaisy//src/hid/disp/display.h ****         int_fast16_t signY  = ((y1 < y2) ? 1 : -1);
 4694              		.loc 3 229 42 view .LVU1092
 4695 008c 9942     		cmp	r1, r3
 4696 008e C0F04E81 		bcc	.L320
 4697              	.LVL374:
 4698              	.LBB1290:
 4699              	.LBI1290:
  42:libDaisy//src/hid/disp/oled_display.h ****     {
 4700              		.loc 2 42 10 is_stmt 1 view .LVU1093
 4701              	.LBB1291:
 4702              	.LBI1291:
 352:libDaisy//src/dev/oled_ssd130x.h ****     {
 4703              		.loc 12 352 10 view .LVU1094
 4704              	.LBB1292:
 354:libDaisy//src/dev/oled_ssd130x.h ****             return;
 4705              		.loc 12 354 14 is_stmt 0 view .LVU1095
 4706 0092 7F2B     		cmp	r3, #127
 4707              	.LBE1292:
 4708              	.LBE1291:
 4709              	.LBE1290:
 229:libDaisy//src/hid/disp/display.h ****         int_fast16_t signY  = ((y1 < y2) ? 1 : -1);
 4710              		.loc 3 229 42 view .LVU1096
 4711 0094 4FF0FF3A 		mov	r10, #-1
 4712              	.LBB1303:
 4713              	.LBB1299:
 4714              	.LBB1295:
 354:libDaisy//src/dev/oled_ssd130x.h ****             return;
 4715              		.loc 12 354 14 view .LVU1097
 4716 0098 94BF     		ite	ls
 4717 009a 0026     		movls	r6, #0
 4718 009c 0126     		movhi	r6, #1
 354:libDaisy//src/dev/oled_ssd130x.h ****             return;
 4719              		.loc 12 354 28 view .LVU1098
 4720 009e 3F2A     		cmp	r2, #63
 354:libDaisy//src/dev/oled_ssd130x.h ****             return;
 4721              		.loc 12 354 14 view .LVU1099
 4722 00a0 0096     		str	r6, [sp]
ARM GAS  /var/folders/z2/7_lhr9dn53s9tj4s0rwtyswm0000gn/T//ccRFfwbB.s 			page 139


 354:libDaisy//src/dev/oled_ssd130x.h ****             return;
 4723              		.loc 12 354 28 view .LVU1100
 4724 00a2 94BF     		ite	ls
 4725 00a4 0027     		movls	r7, #0
 4726 00a6 0127     		movhi	r7, #1
 4727 00a8 0297     		str	r7, [sp, #8]
 354:libDaisy//src/dev/oled_ssd130x.h ****             return;
 4728              		.loc 12 354 9 view .LVU1101
 4729 00aa A6B9     		cbnz	r6, .L321
 4730 00ac 9FB9     		cbnz	r7, .L321
 4731              	.LVL375:
 4732              	.L362:
 357:libDaisy//src/dev/oled_ssd130x.h ****         else
 4733              		.loc 12 357 28 view .LVU1102
 4734 00ae D608     		lsrs	r6, r2, #3
 357:libDaisy//src/dev/oled_ssd130x.h ****         else
 4735              		.loc 12 357 54 view .LVU1103
 4736 00b0 02F0070C 		and	ip, r2, #7
 357:libDaisy//src/dev/oled_ssd130x.h ****         else
 4737              		.loc 12 357 48 view .LVU1104
 4738 00b4 0127     		movs	r7, #1
 357:libDaisy//src/dev/oled_ssd130x.h ****         else
 4739              		.loc 12 357 42 view .LVU1105
 4740 00b6 03EBC616 		add	r6, r3, r6, lsl #7
 4741 00ba 0644     		add	r6, r6, r0
 356:libDaisy//src/dev/oled_ssd130x.h ****             buffer_[x + (y / 8) * width] |= (1 << (y % 8));
 4742              		.loc 12 356 9 view .LVU1106
 4743 00bc 002D     		cmp	r5, #0
 4744 00be 00F09481 		beq	.L322
 357:libDaisy//src/dev/oled_ssd130x.h ****         else
 4745              		.loc 12 357 48 view .LVU1107
 4746 00c2 07FA0CF7 		lsl	r7, r7, ip
 357:libDaisy//src/dev/oled_ssd130x.h ****         else
 4747              		.loc 12 357 42 view .LVU1108
 4748 00c6 96F814C0 		ldrb	ip, [r6, #20]	@ zero_extendqisi2
 4749 00ca 47EA0C07 		orr	r7, r7, ip
 4750 00ce 3775     		strb	r7, [r6, #20]
 4751 00d0 0026     		movs	r6, #0
 4752 00d2 0296     		str	r6, [sp, #8]
 4753 00d4 0096     		str	r6, [sp]
 4754              	.L321:
 4755              	.LVL376:
 357:libDaisy//src/dev/oled_ssd130x.h ****         else
 4756              		.loc 12 357 42 view .LVU1109
 4757              	.LBE1295:
 4758              	.LBE1299:
 4759              	.LBE1303:
 239:libDaisy//src/hid/disp/display.h ****         {
 4760              		.loc 3 239 26 is_stmt 1 view .LVU1110
 4761 00d6 9942     		cmp	r1, r3
 4762 00d8 00F09781 		beq	.L403
 4763              	.L324:
 4764              	.LVL377:
 227:libDaisy//src/hid/disp/display.h ****         int_fast16_t deltaY = abs((int_fast16_t)y2 - (int_fast16_t)y1);
 4765              		.loc 3 227 22 is_stmt 0 view .LVU1111
 4766 00dc 4646     		mov	r6, r8
 4767 00de 9446     		mov	ip, r2
ARM GAS  /var/folders/z2/7_lhr9dn53s9tj4s0rwtyswm0000gn/T//ccRFfwbB.s 			page 140


 4768 00e0 8E46     		mov	lr, r1
 4769              	.LVL378:
 4770              	.L326:
 4771              	.LBB1304:
 4772              	.LBI1304:
  42:libDaisy//src/hid/disp/oled_display.h ****     {
 4773              		.loc 2 42 10 is_stmt 1 view .LVU1112
 4774              	.LBB1305:
 4775              	.LBI1305:
 352:libDaisy//src/dev/oled_ssd130x.h ****     {
 4776              		.loc 12 352 10 view .LVU1113
 4777              	.LBB1306:
 354:libDaisy//src/dev/oled_ssd130x.h ****             return;
 4778              		.loc 12 354 9 is_stmt 0 view .LVU1114
 4779 00e2 BEF17F0F 		cmp	lr, #127
 4780 00e6 16D8     		bhi	.L327
 4781 00e8 BCF13F0F 		cmp	ip, #63
 4782 00ec 13D8     		bhi	.L327
 357:libDaisy//src/dev/oled_ssd130x.h ****         else
 4783              		.loc 12 357 28 view .LVU1115
 4784 00ee 4FEADC07 		lsr	r7, ip, #3
 357:libDaisy//src/dev/oled_ssd130x.h ****         else
 4785              		.loc 12 357 54 view .LVU1116
 4786 00f2 0CF0070B 		and	fp, ip, #7
 357:libDaisy//src/dev/oled_ssd130x.h ****         else
 4787              		.loc 12 357 48 view .LVU1117
 4788 00f6 4FF00109 		mov	r9, #1
 357:libDaisy//src/dev/oled_ssd130x.h ****         else
 4789              		.loc 12 357 42 view .LVU1118
 4790 00fa 0EEBC717 		add	r7, lr, r7, lsl #7
 4791 00fe 0744     		add	r7, r7, r0
 356:libDaisy//src/dev/oled_ssd130x.h ****             buffer_[x + (y / 8) * width] |= (1 << (y % 8));
 4792              		.loc 12 356 9 view .LVU1119
 4793 0100 002D     		cmp	r5, #0
 4794 0102 00F03981 		beq	.L328
 357:libDaisy//src/dev/oled_ssd130x.h ****         else
 4795              		.loc 12 357 48 view .LVU1120
 4796 0106 09FA0BF9 		lsl	r9, r9, fp
 357:libDaisy//src/dev/oled_ssd130x.h ****         else
 4797              		.loc 12 357 42 view .LVU1121
 4798 010a 97F814B0 		ldrb	fp, [r7, #20]	@ zero_extendqisi2
 4799 010e 49EA0B09 		orr	r9, r9, fp
 4800 0112 87F81490 		strb	r9, [r7, #20]
 4801              	.L327:
 4802              	.LVL379:
 357:libDaisy//src/dev/oled_ssd130x.h ****         else
 4803              		.loc 12 357 42 view .LVU1122
 4804              	.LBE1306:
 4805              	.LBE1305:
 4806              	.LBE1304:
 243:libDaisy//src/hid/disp/display.h ****             {
 4807              		.loc 3 243 13 view .LVU1123
 4808 0116 7700     		lsls	r7, r6, #1
 4809              	.LVL380:
 246:libDaisy//src/hid/disp/display.h ****             }
 4810              		.loc 3 246 20 view .LVU1124
 4811 0118 18BF     		it	ne
ARM GAS  /var/folders/z2/7_lhr9dn53s9tj4s0rwtyswm0000gn/T//ccRFfwbB.s 			page 141


 4812 011a D644     		addne	lr, lr, r10
 4813              	.LVL381:
 249:libDaisy//src/hid/disp/display.h ****             {
 4814              		.loc 3 249 13 view .LVU1125
 4815 011c B845     		cmp	r8, r7
 4816 011e 02DD     		ble	.L330
 251:libDaisy//src/hid/disp/display.h ****                 y1 += signY;
 4817              		.loc 3 251 23 view .LVU1126
 4818 0120 4644     		add	r6, r6, r8
 4819              	.LVL382:
 252:libDaisy//src/hid/disp/display.h ****             }
 4820              		.loc 3 252 20 view .LVU1127
 4821 0122 0CF1FF3C 		add	ip, ip, #-1
 4822              	.LVL383:
 4823              	.L330:
 239:libDaisy//src/hid/disp/display.h ****         {
 4824              		.loc 3 239 26 is_stmt 1 view .LVU1128
 4825 0126 7345     		cmp	r3, lr
 4826 0128 DBD1     		bne	.L326
 239:libDaisy//src/hid/disp/display.h ****         {
 4827              		.loc 3 239 26 is_stmt 0 view .LVU1129
 4828 012a 6245     		cmp	r2, ip
 4829 012c D9D1     		bne	.L326
 4830 012e 0026     		movs	r6, #0
 4831              	.LVL384:
 239:libDaisy//src/hid/disp/display.h ****         {
 4832              		.loc 3 239 26 view .LVU1130
 4833 0130 0496     		str	r6, [sp, #16]
 4834              	.LVL385:
 4835              	.L323:
 239:libDaisy//src/hid/disp/display.h ****         {
 4836              		.loc 3 239 26 view .LVU1131
 4837              	.LBE1289:
 4838              	.LBE1288:
 4839              	.LBB1319:
 4840              	.LBI1319:
 221:libDaisy//src/hid/disp/display.h ****                   uint_fast8_t y1,
 4841              		.loc 3 221 10 is_stmt 1 view .LVU1132
 4842              	.LBB1320:
 228:libDaisy//src/hid/disp/display.h ****         int_fast16_t signX  = ((x1 < x2) ? 1 : -1);
 4843              		.loc 3 228 52 is_stmt 0 view .LVU1133
 4844 0132 A4EB0209 		sub	r9, r4, r2
 4845              	.LBB1321:
 4846              	.LBB1322:
 4847              	.LBB1323:
 354:libDaisy//src/dev/oled_ssd130x.h ****             return;
 4848              		.loc 12 354 9 view .LVU1134
 4849 0136 009F     		ldr	r7, [sp]
 4850              	.LBE1323:
 4851              	.LBE1322:
 4852              	.LBE1321:
 228:libDaisy//src/hid/disp/display.h ****         int_fast16_t signX  = ((x1 < x2) ? 1 : -1);
 4853              		.loc 3 228 22 view .LVU1135
 4854 0138 B9F1000F 		cmp	r9, #0
 4855 013c B8BF     		it	lt
 4856 013e C9F10009 		rsblt	r9, r9, #0
 4857              	.LVL386:
ARM GAS  /var/folders/z2/7_lhr9dn53s9tj4s0rwtyswm0000gn/T//ccRFfwbB.s 			page 142


 4858              	.LBB1338:
 4859              	.LBB1332:
 4860              	.LBB1326:
 354:libDaisy//src/dev/oled_ssd130x.h ****             return;
 4861              		.loc 12 354 28 view .LVU1136
 4862 0142 3F2C     		cmp	r4, #63
 4863 0144 94BF     		ite	ls
 4864 0146 0026     		movls	r6, #0
 4865 0148 0126     		movhi	r6, #1
 4866              	.LBE1326:
 4867              	.LBE1332:
 4868              	.LBE1338:
 230:libDaisy//src/hid/disp/display.h ****         int_fast16_t error  = deltaX - deltaY;
 4869              		.loc 3 230 42 view .LVU1137
 4870 014a A242     		cmp	r2, r4
 231:libDaisy//src/hid/disp/display.h ****         int_fast16_t error2;
 4871              		.loc 3 231 22 view .LVU1138
 4872 014c C9F10008 		rsb	r8, r9, #0
 4873              	.LVL387:
 4874              	.LBB1339:
 4875              	.LBI1321:
  42:libDaisy//src/hid/disp/oled_display.h ****     {
 4876              		.loc 2 42 10 is_stmt 1 view .LVU1139
 4877              	.LBB1333:
 4878              	.LBI1322:
 352:libDaisy//src/dev/oled_ssd130x.h ****     {
 4879              		.loc 12 352 10 view .LVU1140
 4880              	.LBB1327:
 354:libDaisy//src/dev/oled_ssd130x.h ****             return;
 4881              		.loc 12 354 28 is_stmt 0 view .LVU1141
 4882 0150 0396     		str	r6, [sp, #12]
 4883              	.LBE1327:
 4884              	.LBE1333:
 4885              	.LBE1339:
 230:libDaisy//src/hid/disp/display.h ****         int_fast16_t error  = deltaX - deltaY;
 4886              		.loc 3 230 42 view .LVU1142
 4887 0152 C0F02381 		bcc	.L331
 4888              	.LVL388:
 4889              	.LBB1340:
 4890              	.LBB1334:
 4891              	.LBB1328:
 354:libDaisy//src/dev/oled_ssd130x.h ****             return;
 4892              		.loc 12 354 9 view .LVU1143
 4893 0156 002F     		cmp	r7, #0
 4894 0158 40F05081 		bne	.L366
 4895 015c 002E     		cmp	r6, #0
 4896 015e 40F04D81 		bne	.L366
 4897              	.LBE1328:
 4898              	.LBE1334:
 4899              	.LBE1340:
 230:libDaisy//src/hid/disp/display.h ****         int_fast16_t error  = deltaX - deltaY;
 4900              		.loc 3 230 42 view .LVU1144
 4901 0162 4FF0FF36 		mov	r6, #-1
 4902 0166 0096     		str	r6, [sp]
 4903              	.LBB1341:
 4904              	.LBB1335:
 4905              	.LBB1329:
ARM GAS  /var/folders/z2/7_lhr9dn53s9tj4s0rwtyswm0000gn/T//ccRFfwbB.s 			page 143


 357:libDaisy//src/dev/oled_ssd130x.h ****         else
 4906              		.loc 12 357 28 view .LVU1145
 4907 0168 E608     		lsrs	r6, r4, #3
 357:libDaisy//src/dev/oled_ssd130x.h ****         else
 4908              		.loc 12 357 42 view .LVU1146
 4909 016a 03EBC616 		add	r6, r3, r6, lsl #7
 4910 016e 0644     		add	r6, r6, r0
 356:libDaisy//src/dev/oled_ssd130x.h ****             buffer_[x + (y / 8) * width] |= (1 << (y % 8));
 4911              		.loc 12 356 9 view .LVU1147
 4912 0170 002D     		cmp	r5, #0
 4913 0172 00F01E81 		beq	.L333
 4914              	.LVL389:
 4915              	.L405:
 357:libDaisy//src/dev/oled_ssd130x.h ****         else
 4916              		.loc 12 357 48 view .LVU1148
 4917 0176 4FF0010C 		mov	ip, #1
 357:libDaisy//src/dev/oled_ssd130x.h ****         else
 4918              		.loc 12 357 54 view .LVU1149
 4919 017a 04F00707 		and	r7, r4, #7
 357:libDaisy//src/dev/oled_ssd130x.h ****         else
 4920              		.loc 12 357 48 view .LVU1150
 4921 017e 0CFA07F7 		lsl	r7, ip, r7
 357:libDaisy//src/dev/oled_ssd130x.h ****         else
 4922              		.loc 12 357 42 view .LVU1151
 4923 0182 96F814C0 		ldrb	ip, [r6, #20]	@ zero_extendqisi2
 4924 0186 47EA0C07 		orr	r7, r7, ip
 4925 018a 3775     		strb	r7, [r6, #20]
 4926 018c 0026     		movs	r6, #0
 4927 018e 0396     		str	r6, [sp, #12]
 4928              	.L332:
 4929              	.LVL390:
 357:libDaisy//src/dev/oled_ssd130x.h ****         else
 4930              		.loc 12 357 42 view .LVU1152
 4931              	.LBE1329:
 4932              	.LBE1335:
 4933              	.LBE1341:
 239:libDaisy//src/hid/disp/display.h ****         {
 4934              		.loc 3 239 26 is_stmt 1 view .LVU1153
 4935 0190 A242     		cmp	r2, r4
 4936 0192 00F03D81 		beq	.L404
 4937              	.L335:
 4938              	.LVL391:
 230:libDaisy//src/hid/disp/display.h ****         int_fast16_t error  = deltaX - deltaY;
 4939              		.loc 3 230 42 is_stmt 0 view .LVU1154
 4940 0196 C446     		mov	ip, r8
 4941 0198 1646     		mov	r6, r2
 4942 019a 1F46     		mov	r7, r3
 4943 019c 0592     		str	r2, [sp, #20]
 4944              	.LVL392:
 4945              	.L337:
 4946              	.LBB1342:
 4947              	.LBI1342:
  42:libDaisy//src/hid/disp/oled_display.h ****     {
 4948              		.loc 2 42 10 is_stmt 1 view .LVU1155
 4949              	.LBB1343:
 4950              	.LBI1343:
 352:libDaisy//src/dev/oled_ssd130x.h ****     {
ARM GAS  /var/folders/z2/7_lhr9dn53s9tj4s0rwtyswm0000gn/T//ccRFfwbB.s 			page 144


 4951              		.loc 12 352 10 view .LVU1156
 4952              	.LBB1344:
 354:libDaisy//src/dev/oled_ssd130x.h ****             return;
 4953              		.loc 12 354 9 is_stmt 0 view .LVU1157
 4954 019e 7F2F     		cmp	r7, #127
 4955 01a0 15D8     		bhi	.L338
 4956 01a2 3F2E     		cmp	r6, #63
 4957 01a4 13D8     		bhi	.L338
 357:libDaisy//src/dev/oled_ssd130x.h ****         else
 4958              		.loc 12 357 28 view .LVU1158
 4959 01a6 4FEAD60E 		lsr	lr, r6, #3
 357:libDaisy//src/dev/oled_ssd130x.h ****         else
 4960              		.loc 12 357 54 view .LVU1159
 4961 01aa 06F0070B 		and	fp, r6, #7
 357:libDaisy//src/dev/oled_ssd130x.h ****         else
 4962              		.loc 12 357 48 view .LVU1160
 4963 01ae 4FF0010A 		mov	r10, #1
 357:libDaisy//src/dev/oled_ssd130x.h ****         else
 4964              		.loc 12 357 42 view .LVU1161
 4965 01b2 07EBCE1E 		add	lr, r7, lr, lsl #7
 4966 01b6 8644     		add	lr, lr, r0
 356:libDaisy//src/dev/oled_ssd130x.h ****             buffer_[x + (y / 8) * width] |= (1 << (y % 8));
 4967              		.loc 12 356 9 view .LVU1162
 4968 01b8 002D     		cmp	r5, #0
 4969 01ba 00F0E680 		beq	.L339
 357:libDaisy//src/dev/oled_ssd130x.h ****         else
 4970              		.loc 12 357 48 view .LVU1163
 4971 01be 0AFA0BFA 		lsl	r10, r10, fp
 357:libDaisy//src/dev/oled_ssd130x.h ****         else
 4972              		.loc 12 357 42 view .LVU1164
 4973 01c2 9EF814B0 		ldrb	fp, [lr, #20]	@ zero_extendqisi2
 4974 01c6 4AEA0B0A 		orr	r10, r10, fp
 4975 01ca 8EF814A0 		strb	r10, [lr, #20]
 4976              	.L338:
 4977              	.LVL393:
 357:libDaisy//src/dev/oled_ssd130x.h ****         else
 4978              		.loc 12 357 42 view .LVU1165
 4979              	.LBE1344:
 4980              	.LBE1343:
 4981              	.LBE1342:
 243:libDaisy//src/hid/disp/display.h ****             {
 4982              		.loc 3 243 13 view .LVU1166
 4983 01ce B8EB4C0F 		cmp	r8, ip, lsl #1
 242:libDaisy//src/hid/disp/display.h ****             if(error2 > -deltaY)
 4984              		.loc 3 242 20 view .LVU1167
 4985 01d2 4FEA4C0E 		lsl	lr, ip, #1
 4986              	.LVL394:
 243:libDaisy//src/hid/disp/display.h ****             {
 4987              		.loc 3 243 13 view .LVU1168
 4988 01d6 02DA     		bge	.L340
 245:libDaisy//src/hid/disp/display.h ****                 x1 += signX;
 4989              		.loc 3 245 23 view .LVU1169
 4990 01d8 ACEB090C 		sub	ip, ip, r9
 4991              	.LVL395:
 246:libDaisy//src/hid/disp/display.h ****             }
 4992              		.loc 3 246 20 view .LVU1170
 4993 01dc 013F     		subs	r7, r7, #1
ARM GAS  /var/folders/z2/7_lhr9dn53s9tj4s0rwtyswm0000gn/T//ccRFfwbB.s 			page 145


 4994              	.LVL396:
 4995              	.L340:
 249:libDaisy//src/hid/disp/display.h ****             {
 4996              		.loc 3 249 13 view .LVU1171
 4997 01de BEF1000F 		cmp	lr, #0
 4998 01e2 01D0     		beq	.L341
 252:libDaisy//src/hid/disp/display.h ****             }
 4999              		.loc 3 252 20 view .LVU1172
 5000 01e4 009A     		ldr	r2, [sp]
 5001 01e6 1644     		add	r6, r6, r2
 5002              	.LVL397:
 5003              	.L341:
 239:libDaisy//src/hid/disp/display.h ****         {
 5004              		.loc 3 239 26 is_stmt 1 view .LVU1173
 5005 01e8 BB42     		cmp	r3, r7
 5006 01ea D8D1     		bne	.L337
 239:libDaisy//src/hid/disp/display.h ****         {
 5007              		.loc 3 239 26 is_stmt 0 view .LVU1174
 5008 01ec B442     		cmp	r4, r6
 5009 01ee D6D1     		bne	.L337
 5010 01f0 059A     		ldr	r2, [sp, #20]
 5011              	.LVL398:
 5012              	.L334:
 239:libDaisy//src/hid/disp/display.h ****         {
 5013              		.loc 3 239 26 view .LVU1175
 5014              	.LBE1320:
 5015              	.LBE1319:
 5016              	.LBB1355:
 5017              	.LBI1355:
 221:libDaisy//src/hid/disp/display.h ****                   uint_fast8_t y1,
 5018              		.loc 3 221 10 is_stmt 1 view .LVU1176
 5019              	.LBB1356:
 227:libDaisy//src/hid/disp/display.h ****         int_fast16_t deltaY = abs((int_fast16_t)y2 - (int_fast16_t)y1);
 5020              		.loc 3 227 52 is_stmt 0 view .LVU1177
 5021 01f2 A1EB030E 		sub	lr, r1, r3
 227:libDaisy//src/hid/disp/display.h ****         int_fast16_t deltaY = abs((int_fast16_t)y2 - (int_fast16_t)y1);
 5022              		.loc 3 227 22 view .LVU1178
 5023 01f6 BEF1000F 		cmp	lr, #0
 5024 01fa B8BF     		it	lt
 5025 01fc CEF1000E 		rsblt	lr, lr, #0
 5026              	.LVL399:
 5027              	.LBB1357:
 5028              	.LBB1358:
 5029              	.LBB1359:
 354:libDaisy//src/dev/oled_ssd130x.h ****             return;
 5030              		.loc 12 354 14 view .LVU1179
 5031 0200 7F29     		cmp	r1, #127
 5032 0202 94BF     		ite	ls
 5033 0204 4FF0000A 		movls	r10, #0
 5034 0208 4FF0010A 		movhi	r10, #1
 5035              	.LBE1359:
 5036              	.LBE1358:
 5037              	.LBE1357:
 229:libDaisy//src/hid/disp/display.h ****         int_fast16_t signY  = ((y1 < y2) ? 1 : -1);
 5038              		.loc 3 229 42 view .LVU1180
 5039 020c 9942     		cmp	r1, r3
 5040 020e 8CBF     		ite	hi
ARM GAS  /var/folders/z2/7_lhr9dn53s9tj4s0rwtyswm0000gn/T//ccRFfwbB.s 			page 146


 5041 0210 4FF00109 		movhi	r9, #1
 5042 0214 4FF0FF39 		movls	r9, #-1
 5043              	.LVL400:
 5044              	.LBB1366:
 5045              	.LBI1357:
  42:libDaisy//src/hid/disp/oled_display.h ****     {
 5046              		.loc 2 42 10 is_stmt 1 view .LVU1181
 5047              	.LBB1364:
 5048              	.LBI1358:
 352:libDaisy//src/dev/oled_ssd130x.h ****     {
 5049              		.loc 12 352 10 view .LVU1182
 5050              	.LBB1362:
 354:libDaisy//src/dev/oled_ssd130x.h ****             return;
 5051              		.loc 12 354 9 is_stmt 0 view .LVU1183
 5052 0218 BAF1000F 		cmp	r10, #0
 5053 021c 13D1     		bne	.L343
 5054 021e 039E     		ldr	r6, [sp, #12]
 5055 0220 8EB9     		cbnz	r6, .L343
 357:libDaisy//src/dev/oled_ssd130x.h ****         else
 5056              		.loc 12 357 28 view .LVU1184
 5057 0222 E608     		lsrs	r6, r4, #3
 357:libDaisy//src/dev/oled_ssd130x.h ****         else
 5058              		.loc 12 357 42 view .LVU1185
 5059 0224 01EBC616 		add	r6, r1, r6, lsl #7
 5060 0228 0644     		add	r6, r6, r0
 356:libDaisy//src/dev/oled_ssd130x.h ****             buffer_[x + (y / 8) * width] |= (1 << (y % 8));
 5061              		.loc 12 356 9 view .LVU1186
 5062 022a 002D     		cmp	r5, #0
 5063 022c 00F0D380 		beq	.L344
 357:libDaisy//src/dev/oled_ssd130x.h ****         else
 5064              		.loc 12 357 48 view .LVU1187
 5065 0230 4FF0010C 		mov	ip, #1
 357:libDaisy//src/dev/oled_ssd130x.h ****         else
 5066              		.loc 12 357 54 view .LVU1188
 5067 0234 04F00707 		and	r7, r4, #7
 357:libDaisy//src/dev/oled_ssd130x.h ****         else
 5068              		.loc 12 357 48 view .LVU1189
 5069 0238 0CFA07F7 		lsl	r7, ip, r7
 357:libDaisy//src/dev/oled_ssd130x.h ****         else
 5070              		.loc 12 357 42 view .LVU1190
 5071 023c 96F814C0 		ldrb	ip, [r6, #20]	@ zero_extendqisi2
 5072 0240 47EA0C07 		orr	r7, r7, ip
 5073 0244 3775     		strb	r7, [r6, #20]
 5074              	.L343:
 5075              	.LVL401:
 357:libDaisy//src/dev/oled_ssd130x.h ****         else
 5076              		.loc 12 357 42 view .LVU1191
 5077              	.LBE1362:
 5078              	.LBE1364:
 5079              	.LBE1366:
 239:libDaisy//src/hid/disp/display.h ****         {
 5080              		.loc 3 239 26 is_stmt 1 view .LVU1192
 5081 0246 049E     		ldr	r6, [sp, #16]
 5082 0248 26BB     		cbnz	r6, .L345
 227:libDaisy//src/hid/disp/display.h ****         int_fast16_t deltaY = abs((int_fast16_t)y2 - (int_fast16_t)y1);
 5083              		.loc 3 227 22 is_stmt 0 view .LVU1193
 5084 024a 7746     		mov	r7, lr
ARM GAS  /var/folders/z2/7_lhr9dn53s9tj4s0rwtyswm0000gn/T//ccRFfwbB.s 			page 147


 239:libDaisy//src/hid/disp/display.h ****         {
 5085              		.loc 3 239 26 view .LVU1194
 5086 024c 2646     		mov	r6, r4
 5087              	.LVL402:
 5088              	.L346:
 5089              	.LBB1367:
 5090              	.LBI1367:
  42:libDaisy//src/hid/disp/oled_display.h ****     {
 5091              		.loc 2 42 10 is_stmt 1 view .LVU1195
 5092              	.LBB1368:
 5093              	.LBI1368:
 352:libDaisy//src/dev/oled_ssd130x.h ****     {
 5094              		.loc 12 352 10 view .LVU1196
 5095              	.LBB1369:
 354:libDaisy//src/dev/oled_ssd130x.h ****             return;
 5096              		.loc 12 354 9 is_stmt 0 view .LVU1197
 5097 024e 7F2B     		cmp	r3, #127
 5098 0250 14D8     		bhi	.L348
 354:libDaisy//src/dev/oled_ssd130x.h ****             return;
 5099              		.loc 12 354 9 view .LVU1198
 5100 0252 3F2E     		cmp	r6, #63
 5101 0254 12D8     		bhi	.L348
 357:libDaisy//src/dev/oled_ssd130x.h ****         else
 5102              		.loc 12 357 28 view .LVU1199
 5103 0256 4FEAD60C 		lsr	ip, r6, #3
 357:libDaisy//src/dev/oled_ssd130x.h ****         else
 5104              		.loc 12 357 54 view .LVU1200
 5105 025a 06F0070B 		and	fp, r6, #7
 357:libDaisy//src/dev/oled_ssd130x.h ****         else
 5106              		.loc 12 357 48 view .LVU1201
 5107 025e 4FF00108 		mov	r8, #1
 357:libDaisy//src/dev/oled_ssd130x.h ****         else
 5108              		.loc 12 357 42 view .LVU1202
 5109 0262 03EBCC1C 		add	ip, r3, ip, lsl #7
 5110 0266 8444     		add	ip, ip, r0
 356:libDaisy//src/dev/oled_ssd130x.h ****             buffer_[x + (y / 8) * width] |= (1 << (y % 8));
 5111              		.loc 12 356 9 view .LVU1203
 5112 0268 002D     		cmp	r5, #0
 5113 026a 73D0     		beq	.L349
 357:libDaisy//src/dev/oled_ssd130x.h ****         else
 5114              		.loc 12 357 48 view .LVU1204
 5115 026c 08FA0BF8 		lsl	r8, r8, fp
 357:libDaisy//src/dev/oled_ssd130x.h ****         else
 5116              		.loc 12 357 42 view .LVU1205
 5117 0270 9CF814B0 		ldrb	fp, [ip, #20]	@ zero_extendqisi2
 5118 0274 48EA0B08 		orr	r8, r8, fp
 5119 0278 8CF81480 		strb	r8, [ip, #20]
 5120              	.L348:
 5121              	.LVL403:
 357:libDaisy//src/dev/oled_ssd130x.h ****         else
 5122              		.loc 12 357 42 view .LVU1206
 5123              	.LBE1369:
 5124              	.LBE1368:
 5125              	.LBE1367:
 243:libDaisy//src/hid/disp/display.h ****             {
 5126              		.loc 3 243 13 view .LVU1207
 5127 027c 5FEA470C 		lsls	ip, r7, #1
ARM GAS  /var/folders/z2/7_lhr9dn53s9tj4s0rwtyswm0000gn/T//ccRFfwbB.s 			page 148


 5128              	.LVL404:
 246:libDaisy//src/hid/disp/display.h ****             }
 5129              		.loc 3 246 20 view .LVU1208
 5130 0280 18BF     		it	ne
 5131 0282 4B44     		addne	r3, r3, r9
 5132              	.LVL405:
 249:libDaisy//src/hid/disp/display.h ****             {
 5133              		.loc 3 249 13 view .LVU1209
 5134 0284 E645     		cmp	lr, ip
 5135 0286 01DD     		ble	.L351
 251:libDaisy//src/hid/disp/display.h ****                 y1 += signY;
 5136              		.loc 3 251 23 view .LVU1210
 5137 0288 7744     		add	r7, r7, lr
 5138              	.LVL406:
 252:libDaisy//src/hid/disp/display.h ****             }
 5139              		.loc 3 252 20 view .LVU1211
 5140 028a 013E     		subs	r6, r6, #1
 5141              	.LVL407:
 5142              	.L351:
 239:libDaisy//src/hid/disp/display.h ****         {
 5143              		.loc 3 239 26 is_stmt 1 view .LVU1212
 5144 028c 9942     		cmp	r1, r3
 5145 028e DED1     		bne	.L346
 239:libDaisy//src/hid/disp/display.h ****         {
 5146              		.loc 3 239 26 is_stmt 0 view .LVU1213
 5147 0290 B442     		cmp	r4, r6
 5148 0292 DCD1     		bne	.L346
 5149              	.LVL408:
 5150              	.L345:
 239:libDaisy//src/hid/disp/display.h ****         {
 5151              		.loc 3 239 26 view .LVU1214
 5152              	.LBE1356:
 5153              	.LBE1355:
 5154              	.LBB1378:
 5155              	.LBI1378:
 221:libDaisy//src/hid/disp/display.h ****                   uint_fast8_t y1,
 5156              		.loc 3 221 10 is_stmt 1 view .LVU1215
 5157              	.LBB1379:
 228:libDaisy//src/hid/disp/display.h ****         int_fast16_t signX  = ((x1 < x2) ? 1 : -1);
 5158              		.loc 3 228 52 is_stmt 0 view .LVU1216
 5159 0294 A2EB040E 		sub	lr, r2, r4
 228:libDaisy//src/hid/disp/display.h ****         int_fast16_t signX  = ((x1 < x2) ? 1 : -1);
 5160              		.loc 3 228 22 view .LVU1217
 5161 0298 BEF1000F 		cmp	lr, #0
 5162 029c B8BF     		it	lt
 5163 029e CEF1000E 		rsblt	lr, lr, #0
 5164              	.LVL409:
 230:libDaisy//src/hid/disp/display.h ****         int_fast16_t error  = deltaX - deltaY;
 5165              		.loc 3 230 42 view .LVU1218
 5166 02a2 A242     		cmp	r2, r4
 5167 02a4 8CBF     		ite	hi
 5168 02a6 4FF00108 		movhi	r8, #1
 5169 02aa 4FF0FF38 		movls	r8, #-1
 5170              	.LVL410:
 231:libDaisy//src/hid/disp/display.h ****         int_fast16_t error2;
 5171              		.loc 3 231 22 view .LVU1219
 5172 02ae CEF1000C 		rsb	ip, lr, #0
ARM GAS  /var/folders/z2/7_lhr9dn53s9tj4s0rwtyswm0000gn/T//ccRFfwbB.s 			page 149


 5173              	.LVL411:
 5174              	.LBB1380:
 5175              	.LBI1380:
  42:libDaisy//src/hid/disp/oled_display.h ****     {
 5176              		.loc 2 42 10 is_stmt 1 view .LVU1220
 5177              	.LBB1381:
 5178              	.LBI1381:
 352:libDaisy//src/dev/oled_ssd130x.h ****     {
 5179              		.loc 12 352 10 view .LVU1221
 5180              	.LBB1382:
 354:libDaisy//src/dev/oled_ssd130x.h ****             return;
 5181              		.loc 12 354 9 is_stmt 0 view .LVU1222
 5182 02b2 BAF1000F 		cmp	r10, #0
 5183 02b6 0ED1     		bne	.L353
 5184 02b8 029B     		ldr	r3, [sp, #8]
 5185 02ba 63B9     		cbnz	r3, .L353
 357:libDaisy//src/dev/oled_ssd130x.h ****         else
 5186              		.loc 12 357 28 view .LVU1223
 5187 02bc D308     		lsrs	r3, r2, #3
 357:libDaisy//src/dev/oled_ssd130x.h ****         else
 5188              		.loc 12 357 54 view .LVU1224
 5189 02be 02F00707 		and	r7, r2, #7
 357:libDaisy//src/dev/oled_ssd130x.h ****         else
 5190              		.loc 12 357 48 view .LVU1225
 5191 02c2 0126     		movs	r6, #1
 357:libDaisy//src/dev/oled_ssd130x.h ****         else
 5192              		.loc 12 357 42 view .LVU1226
 5193 02c4 01EBC313 		add	r3, r1, r3, lsl #7
 5194 02c8 0344     		add	r3, r3, r0
 356:libDaisy//src/dev/oled_ssd130x.h ****             buffer_[x + (y / 8) * width] |= (1 << (y % 8));
 5195              		.loc 12 356 9 view .LVU1227
 5196 02ca 002D     		cmp	r5, #0
 5197 02cc 7CD0     		beq	.L354
 357:libDaisy//src/dev/oled_ssd130x.h ****         else
 5198              		.loc 12 357 48 view .LVU1228
 5199 02ce BE40     		lsls	r6, r6, r7
 357:libDaisy//src/dev/oled_ssd130x.h ****         else
 5200              		.loc 12 357 42 view .LVU1229
 5201 02d0 1F7D     		ldrb	r7, [r3, #20]	@ zero_extendqisi2
 5202 02d2 3E43     		orrs	r6, r6, r7
 5203 02d4 1E75     		strb	r6, [r3, #20]
 5204              	.L353:
 5205              	.LVL412:
 357:libDaisy//src/dev/oled_ssd130x.h ****         else
 5206              		.loc 12 357 42 view .LVU1230
 5207              	.LBE1382:
 5208              	.LBE1381:
 5209              	.LBE1380:
 239:libDaisy//src/hid/disp/display.h ****         {
 5210              		.loc 3 239 26 is_stmt 1 view .LVU1231
 5211 02d6 019B     		ldr	r3, [sp, #4]
 5212 02d8 002B     		cmp	r3, #0
 5213 02da 7FF4CDAE 		bne	.L311
 5214 02de 6646     		mov	r6, ip
 5215 02e0 0B46     		mov	r3, r1
 5216              	.LVL413:
 5217              	.L355:
ARM GAS  /var/folders/z2/7_lhr9dn53s9tj4s0rwtyswm0000gn/T//ccRFfwbB.s 			page 150


 5218              	.LBB1387:
 5219              	.LBI1387:
  42:libDaisy//src/hid/disp/oled_display.h ****     {
 5220              		.loc 2 42 10 view .LVU1232
 5221              	.LBB1388:
 5222              	.LBI1388:
 352:libDaisy//src/dev/oled_ssd130x.h ****     {
 5223              		.loc 12 352 10 view .LVU1233
 5224              	.LBB1389:
 354:libDaisy//src/dev/oled_ssd130x.h ****             return;
 5225              		.loc 12 354 9 is_stmt 0 view .LVU1234
 5226 02e2 7F2B     		cmp	r3, #127
 5227 02e4 12D8     		bhi	.L357
 354:libDaisy//src/dev/oled_ssd130x.h ****             return;
 5228              		.loc 12 354 9 view .LVU1235
 5229 02e6 3F2C     		cmp	r4, #63
 5230 02e8 10D8     		bhi	.L357
 357:libDaisy//src/dev/oled_ssd130x.h ****         else
 5231              		.loc 12 357 28 view .LVU1236
 5232 02ea E708     		lsrs	r7, r4, #3
 357:libDaisy//src/dev/oled_ssd130x.h ****         else
 5233              		.loc 12 357 54 view .LVU1237
 5234 02ec 04F0070A 		and	r10, r4, #7
 357:libDaisy//src/dev/oled_ssd130x.h ****         else
 5235              		.loc 12 357 48 view .LVU1238
 5236 02f0 4FF00109 		mov	r9, #1
 357:libDaisy//src/dev/oled_ssd130x.h ****         else
 5237              		.loc 12 357 42 view .LVU1239
 5238 02f4 03EBC717 		add	r7, r3, r7, lsl #7
 5239 02f8 0744     		add	r7, r7, r0
 356:libDaisy//src/dev/oled_ssd130x.h ****             buffer_[x + (y / 8) * width] |= (1 << (y % 8));
 5240              		.loc 12 356 9 view .LVU1240
 5241 02fa A5B3     		cbz	r5, .L358
 357:libDaisy//src/dev/oled_ssd130x.h ****         else
 5242              		.loc 12 357 48 view .LVU1241
 5243 02fc 09FA0AF9 		lsl	r9, r9, r10
 357:libDaisy//src/dev/oled_ssd130x.h ****         else
 5244              		.loc 12 357 42 view .LVU1242
 5245 0300 97F814A0 		ldrb	r10, [r7, #20]	@ zero_extendqisi2
 5246 0304 49EA0A09 		orr	r9, r9, r10
 5247 0308 87F81490 		strb	r9, [r7, #20]
 5248              	.L357:
 5249              	.LVL414:
 357:libDaisy//src/dev/oled_ssd130x.h ****         else
 5250              		.loc 12 357 42 view .LVU1243
 5251              	.LBE1389:
 5252              	.LBE1388:
 5253              	.LBE1387:
 243:libDaisy//src/hid/disp/display.h ****             {
 5254              		.loc 3 243 13 view .LVU1244
 5255 030c BCEB460F 		cmp	ip, r6, lsl #1
 242:libDaisy//src/hid/disp/display.h ****             if(error2 > -deltaY)
 5256              		.loc 3 242 20 view .LVU1245
 5257 0310 4FEA4607 		lsl	r7, r6, #1
 5258              	.LVL415:
 243:libDaisy//src/hid/disp/display.h ****             {
 5259              		.loc 3 243 13 view .LVU1246
ARM GAS  /var/folders/z2/7_lhr9dn53s9tj4s0rwtyswm0000gn/T//ccRFfwbB.s 			page 151


 5260 0314 02DA     		bge	.L359
 245:libDaisy//src/hid/disp/display.h ****                 x1 += signX;
 5261              		.loc 3 245 23 view .LVU1247
 5262 0316 A6EB0E06 		sub	r6, r6, lr
 5263              	.LVL416:
 246:libDaisy//src/hid/disp/display.h ****             }
 5264              		.loc 3 246 20 view .LVU1248
 5265 031a 013B     		subs	r3, r3, #1
 5266              	.LVL417:
 5267              	.L359:
 249:libDaisy//src/hid/disp/display.h ****             {
 5268              		.loc 3 249 13 view .LVU1249
 5269 031c 07B1     		cbz	r7, .L360
 252:libDaisy//src/hid/disp/display.h ****             }
 5270              		.loc 3 252 20 view .LVU1250
 5271 031e 4444     		add	r4, r4, r8
 5272              	.LVL418:
 5273              	.L360:
 239:libDaisy//src/hid/disp/display.h ****         {
 5274              		.loc 3 239 26 is_stmt 1 view .LVU1251
 5275 0320 9942     		cmp	r1, r3
 5276 0322 DED1     		bne	.L355
 239:libDaisy//src/hid/disp/display.h ****         {
 5277              		.loc 3 239 26 is_stmt 0 view .LVU1252
 5278 0324 A242     		cmp	r2, r4
 5279 0326 DCD1     		bne	.L355
 5280              	.LBE1379:
 5281              	.LBE1378:
 5282              	.LBE1431:
 281:libDaisy//src/hid/disp/display.h **** 
 5283              		.loc 3 281 5 view .LVU1253
 5284 0328 07B0     		add	sp, sp, #28
 5285              		.cfi_remember_state
 5286              		.cfi_def_cfa_offset 36
 5287              		@ sp needed
 5288 032a BDE8F08F 		pop	{r4, r5, r6, r7, r8, r9, r10, fp, pc}
 5289              	.LVL419:
 5290              	.L320:
 5291              		.cfi_restore_state
 5292              	.LBB1432:
 5293              	.LBB1398:
 5294              	.LBB1315:
 5295              	.LBB1311:
  42:libDaisy//src/hid/disp/oled_display.h ****     {
 5296              		.loc 2 42 10 is_stmt 1 view .LVU1254
 5297              	.LBB1300:
 352:libDaisy//src/dev/oled_ssd130x.h ****     {
 5298              		.loc 12 352 10 view .LVU1255
 5299              	.LBB1296:
 354:libDaisy//src/dev/oled_ssd130x.h ****             return;
 5300              		.loc 12 354 28 is_stmt 0 view .LVU1256
 5301 032e 3F2A     		cmp	r2, #63
 5302              	.LBE1296:
 5303              	.LBE1300:
 5304              	.LBE1311:
 229:libDaisy//src/hid/disp/display.h ****         int_fast16_t signY  = ((y1 < y2) ? 1 : -1);
 5305              		.loc 3 229 42 view .LVU1257
ARM GAS  /var/folders/z2/7_lhr9dn53s9tj4s0rwtyswm0000gn/T//ccRFfwbB.s 			page 152


 5306 0330 4FF0010A 		mov	r10, #1
 5307              	.LBB1312:
 5308              	.LBB1301:
 5309              	.LBB1297:
 354:libDaisy//src/dev/oled_ssd130x.h ****             return;
 5310              		.loc 12 354 28 view .LVU1258
 5311 0334 94BF     		ite	ls
 5312 0336 0026     		movls	r6, #0
 5313 0338 0126     		movhi	r6, #1
 354:libDaisy//src/dev/oled_ssd130x.h ****             return;
 5314              		.loc 12 354 14 view .LVU1259
 5315 033a 7F2B     		cmp	r3, #127
 354:libDaisy//src/dev/oled_ssd130x.h ****             return;
 5316              		.loc 12 354 28 view .LVU1260
 5317 033c 0296     		str	r6, [sp, #8]
 354:libDaisy//src/dev/oled_ssd130x.h ****             return;
 5318              		.loc 12 354 14 view .LVU1261
 5319 033e 94BF     		ite	ls
 5320 0340 0027     		movls	r7, #0
 5321 0342 0127     		movhi	r7, #1
 5322 0344 0097     		str	r7, [sp]
 354:libDaisy//src/dev/oled_ssd130x.h ****             return;
 5323              		.loc 12 354 9 view .LVU1262
 5324 0346 002E     		cmp	r6, #0
 5325 0348 7FF4C8AE 		bne	.L324
 5326 034c 002F     		cmp	r7, #0
 5327 034e 3FF4AEAE 		beq	.L362
 5328 0352 C3E6     		b	.L324
 5329              	.LVL420:
 5330              	.L349:
 354:libDaisy//src/dev/oled_ssd130x.h ****             return;
 5331              		.loc 12 354 9 view .LVU1263
 5332              	.LBE1297:
 5333              	.LBE1301:
 5334              	.LBE1312:
 5335              	.LBE1315:
 5336              	.LBE1398:
 5337              	.LBB1399:
 5338              	.LBB1376:
 5339              	.LBB1374:
 5340              	.LBB1373:
 5341              	.LBB1372:
 5342              	.LBB1370:
 5343              	.LBI1370:
 352:libDaisy//src/dev/oled_ssd130x.h ****     {
 5344              		.loc 12 352 10 is_stmt 1 view .LVU1264
 5345              	.LBB1371:
 359:libDaisy//src/dev/oled_ssd130x.h ****     }
 5346              		.loc 12 359 49 is_stmt 0 view .LVU1265
 5347 0354 08FA0BFB 		lsl	fp, r8, fp
 359:libDaisy//src/dev/oled_ssd130x.h ****     }
 5348              		.loc 12 359 42 view .LVU1266
 5349 0358 9CF81480 		ldrb	r8, [ip, #20]	@ zero_extendqisi2
 5350 035c 28EA0B08 		bic	r8, r8, fp
 5351 0360 8CF81480 		strb	r8, [ip, #20]
 5352 0364 8AE7     		b	.L348
 5353              	.LVL421:
ARM GAS  /var/folders/z2/7_lhr9dn53s9tj4s0rwtyswm0000gn/T//ccRFfwbB.s 			page 153


 5354              	.L358:
 359:libDaisy//src/dev/oled_ssd130x.h ****     }
 5355              		.loc 12 359 42 view .LVU1267
 5356              	.LBE1371:
 5357              	.LBE1370:
 5358              	.LBE1372:
 5359              	.LBE1373:
 5360              	.LBE1374:
 5361              	.LBE1376:
 5362              	.LBE1399:
 5363              	.LBB1400:
 5364              	.LBB1396:
 5365              	.LBB1394:
 5366              	.LBB1393:
 5367              	.LBB1392:
 5368              	.LBB1390:
 5369              	.LBI1390:
 352:libDaisy//src/dev/oled_ssd130x.h ****     {
 5370              		.loc 12 352 10 is_stmt 1 view .LVU1268
 5371              	.LBB1391:
 359:libDaisy//src/dev/oled_ssd130x.h ****     }
 5372              		.loc 12 359 49 is_stmt 0 view .LVU1269
 5373 0366 09FA0AFA 		lsl	r10, r9, r10
 359:libDaisy//src/dev/oled_ssd130x.h ****     }
 5374              		.loc 12 359 42 view .LVU1270
 5375 036a 97F81490 		ldrb	r9, [r7, #20]	@ zero_extendqisi2
 5376 036e 29EA0A09 		bic	r9, r9, r10
 5377 0372 87F81490 		strb	r9, [r7, #20]
 5378 0376 C9E7     		b	.L357
 5379              	.LVL422:
 5380              	.L328:
 359:libDaisy//src/dev/oled_ssd130x.h ****     }
 5381              		.loc 12 359 42 view .LVU1271
 5382              	.LBE1391:
 5383              	.LBE1390:
 5384              	.LBE1392:
 5385              	.LBE1393:
 5386              	.LBE1394:
 5387              	.LBE1396:
 5388              	.LBE1400:
 5389              	.LBB1401:
 5390              	.LBB1316:
 5391              	.LBB1313:
 5392              	.LBB1310:
 5393              	.LBB1309:
 5394              	.LBB1307:
 5395              	.LBI1307:
 352:libDaisy//src/dev/oled_ssd130x.h ****     {
 5396              		.loc 12 352 10 is_stmt 1 view .LVU1272
 5397              	.LBB1308:
 359:libDaisy//src/dev/oled_ssd130x.h ****     }
 5398              		.loc 12 359 49 is_stmt 0 view .LVU1273
 5399 0378 09FA0BFB 		lsl	fp, r9, fp
 359:libDaisy//src/dev/oled_ssd130x.h ****     }
 5400              		.loc 12 359 42 view .LVU1274
 5401 037c 97F81490 		ldrb	r9, [r7, #20]	@ zero_extendqisi2
 5402 0380 29EA0B09 		bic	r9, r9, fp
ARM GAS  /var/folders/z2/7_lhr9dn53s9tj4s0rwtyswm0000gn/T//ccRFfwbB.s 			page 154


 5403 0384 87F81490 		strb	r9, [r7, #20]
 5404 0388 C5E6     		b	.L327
 5405              	.LVL423:
 5406              	.L339:
 359:libDaisy//src/dev/oled_ssd130x.h ****     }
 5407              		.loc 12 359 42 view .LVU1275
 5408              	.LBE1308:
 5409              	.LBE1307:
 5410              	.LBE1309:
 5411              	.LBE1310:
 5412              	.LBE1313:
 5413              	.LBE1316:
 5414              	.LBE1401:
 5415              	.LBB1402:
 5416              	.LBB1352:
 5417              	.LBB1349:
 5418              	.LBB1348:
 5419              	.LBB1347:
 5420              	.LBB1345:
 5421              	.LBI1345:
 352:libDaisy//src/dev/oled_ssd130x.h ****     {
 5422              		.loc 12 352 10 is_stmt 1 view .LVU1276
 5423              	.LBB1346:
 359:libDaisy//src/dev/oled_ssd130x.h ****     }
 5424              		.loc 12 359 49 is_stmt 0 view .LVU1277
 5425 038a 0AFA0BFB 		lsl	fp, r10, fp
 359:libDaisy//src/dev/oled_ssd130x.h ****     }
 5426              		.loc 12 359 42 view .LVU1278
 5427 038e 9EF814A0 		ldrb	r10, [lr, #20]	@ zero_extendqisi2
 5428 0392 2AEA0B0A 		bic	r10, r10, fp
 5429 0396 8EF814A0 		strb	r10, [lr, #20]
 5430 039a 18E7     		b	.L338
 5431              	.LVL424:
 5432              	.L331:
 359:libDaisy//src/dev/oled_ssd130x.h ****     }
 5433              		.loc 12 359 42 view .LVU1279
 5434              	.LBE1346:
 5435              	.LBE1345:
 5436              	.LBE1347:
 5437              	.LBE1348:
 5438              	.LBE1349:
 5439              	.LBB1350:
 5440              	.LBB1336:
 5441              	.LBB1330:
 354:libDaisy//src/dev/oled_ssd130x.h ****             return;
 5442              		.loc 12 354 9 view .LVU1280
 5443 039c 97BB     		cbnz	r7, .L370
 5444 039e 8EBB     		cbnz	r6, .L370
 5445              	.LBE1330:
 5446              	.LBE1336:
 5447              	.LBE1350:
 230:libDaisy//src/hid/disp/display.h ****         int_fast16_t error  = deltaX - deltaY;
 5448              		.loc 3 230 42 view .LVU1281
 5449 03a0 0126     		movs	r6, #1
 5450 03a2 0096     		str	r6, [sp]
 5451              	.LBB1351:
 5452              	.LBB1337:
ARM GAS  /var/folders/z2/7_lhr9dn53s9tj4s0rwtyswm0000gn/T//ccRFfwbB.s 			page 155


 5453              	.LBB1331:
 357:libDaisy//src/dev/oled_ssd130x.h ****         else
 5454              		.loc 12 357 28 view .LVU1282
 5455 03a4 E608     		lsrs	r6, r4, #3
 357:libDaisy//src/dev/oled_ssd130x.h ****         else
 5456              		.loc 12 357 42 view .LVU1283
 5457 03a6 03EBC616 		add	r6, r3, r6, lsl #7
 5458 03aa 0644     		add	r6, r6, r0
 356:libDaisy//src/dev/oled_ssd130x.h ****             buffer_[x + (y / 8) * width] |= (1 << (y % 8));
 5459              		.loc 12 356 9 view .LVU1284
 5460 03ac 002D     		cmp	r5, #0
 5461 03ae 7FF4E2AE 		bne	.L405
 5462              	.LVL425:
 5463              	.L333:
 5464              	.LBB1324:
 5465              	.LBI1324:
 352:libDaisy//src/dev/oled_ssd130x.h ****     {
 5466              		.loc 12 352 10 is_stmt 1 view .LVU1285
 5467              	.LBB1325:
 359:libDaisy//src/dev/oled_ssd130x.h ****     }
 5468              		.loc 12 359 49 is_stmt 0 view .LVU1286
 5469 03b2 0127     		movs	r7, #1
 359:libDaisy//src/dev/oled_ssd130x.h ****     }
 5470              		.loc 12 359 55 view .LVU1287
 5471 03b4 04F0070C 		and	ip, r4, #7
 359:libDaisy//src/dev/oled_ssd130x.h ****     }
 5472              		.loc 12 359 42 view .LVU1288
 5473 03b8 0395     		str	r5, [sp, #12]
 359:libDaisy//src/dev/oled_ssd130x.h ****     }
 5474              		.loc 12 359 49 view .LVU1289
 5475 03ba 07FA0CFC 		lsl	ip, r7, ip
 359:libDaisy//src/dev/oled_ssd130x.h ****     }
 5476              		.loc 12 359 42 view .LVU1290
 5477 03be 377D     		ldrb	r7, [r6, #20]	@ zero_extendqisi2
 5478 03c0 27EA0C07 		bic	r7, r7, ip
 5479 03c4 3775     		strb	r7, [r6, #20]
 5480 03c6 E3E6     		b	.L332
 5481              	.LVL426:
 5482              	.L354:
 359:libDaisy//src/dev/oled_ssd130x.h ****     }
 5483              		.loc 12 359 42 view .LVU1291
 5484              	.LBE1325:
 5485              	.LBE1324:
 5486              	.LBE1331:
 5487              	.LBE1337:
 5488              	.LBE1351:
 5489              	.LBE1352:
 5490              	.LBE1402:
 5491              	.LBB1403:
 5492              	.LBB1397:
 5493              	.LBB1395:
 5494              	.LBB1386:
 5495              	.LBB1385:
 5496              	.LBB1383:
 5497              	.LBI1383:
 352:libDaisy//src/dev/oled_ssd130x.h ****     {
 5498              		.loc 12 352 10 is_stmt 1 view .LVU1292
ARM GAS  /var/folders/z2/7_lhr9dn53s9tj4s0rwtyswm0000gn/T//ccRFfwbB.s 			page 156


 5499              	.LBB1384:
 359:libDaisy//src/dev/oled_ssd130x.h ****     }
 5500              		.loc 12 359 49 is_stmt 0 view .LVU1293
 5501 03c8 06FA07F7 		lsl	r7, r6, r7
 359:libDaisy//src/dev/oled_ssd130x.h ****     }
 5502              		.loc 12 359 42 view .LVU1294
 5503 03cc 1E7D     		ldrb	r6, [r3, #20]	@ zero_extendqisi2
 5504 03ce 26EA0706 		bic	r6, r6, r7
 5505 03d2 1E75     		strb	r6, [r3, #20]
 5506 03d4 7FE7     		b	.L353
 5507              	.LVL427:
 5508              	.L344:
 359:libDaisy//src/dev/oled_ssd130x.h ****     }
 5509              		.loc 12 359 42 view .LVU1295
 5510              	.LBE1384:
 5511              	.LBE1383:
 5512              	.LBE1385:
 5513              	.LBE1386:
 5514              	.LBE1395:
 5515              	.LBE1397:
 5516              	.LBE1403:
 5517              	.LBB1404:
 5518              	.LBB1377:
 5519              	.LBB1375:
 5520              	.LBB1365:
 5521              	.LBB1363:
 5522              	.LBB1360:
 5523              	.LBI1360:
 352:libDaisy//src/dev/oled_ssd130x.h ****     {
 5524              		.loc 12 352 10 is_stmt 1 view .LVU1296
 5525              	.LBB1361:
 359:libDaisy//src/dev/oled_ssd130x.h ****     }
 5526              		.loc 12 359 49 is_stmt 0 view .LVU1297
 5527 03d6 0127     		movs	r7, #1
 359:libDaisy//src/dev/oled_ssd130x.h ****     }
 5528              		.loc 12 359 55 view .LVU1298
 5529 03d8 04F0070C 		and	ip, r4, #7
 359:libDaisy//src/dev/oled_ssd130x.h ****     }
 5530              		.loc 12 359 49 view .LVU1299
 5531 03dc 07FA0CFC 		lsl	ip, r7, ip
 359:libDaisy//src/dev/oled_ssd130x.h ****     }
 5532              		.loc 12 359 42 view .LVU1300
 5533 03e0 377D     		ldrb	r7, [r6, #20]	@ zero_extendqisi2
 5534 03e2 27EA0C07 		bic	r7, r7, ip
 5535 03e6 3775     		strb	r7, [r6, #20]
 5536 03e8 2DE7     		b	.L343
 5537              	.LVL428:
 5538              	.L322:
 359:libDaisy//src/dev/oled_ssd130x.h ****     }
 5539              		.loc 12 359 42 view .LVU1301
 5540              	.LBE1361:
 5541              	.LBE1360:
 5542              	.LBE1363:
 5543              	.LBE1365:
 5544              	.LBE1375:
 5545              	.LBE1377:
 5546              	.LBE1404:
ARM GAS  /var/folders/z2/7_lhr9dn53s9tj4s0rwtyswm0000gn/T//ccRFfwbB.s 			page 157


 5547              	.LBB1405:
 5548              	.LBB1317:
 5549              	.LBB1314:
 5550              	.LBB1302:
 5551              	.LBB1298:
 5552              	.LBB1293:
 5553              	.LBI1293:
 352:libDaisy//src/dev/oled_ssd130x.h ****     {
 5554              		.loc 12 352 10 is_stmt 1 view .LVU1302
 5555              	.LBB1294:
 359:libDaisy//src/dev/oled_ssd130x.h ****     }
 5556              		.loc 12 359 49 is_stmt 0 view .LVU1303
 5557 03ea 07FA0CFC 		lsl	ip, r7, ip
 359:libDaisy//src/dev/oled_ssd130x.h ****     }
 5558              		.loc 12 359 42 view .LVU1304
 5559 03ee 377D     		ldrb	r7, [r6, #20]	@ zero_extendqisi2
 5560 03f0 0295     		str	r5, [sp, #8]
 5561 03f2 27EA0C07 		bic	r7, r7, ip
 5562 03f6 0095     		str	r5, [sp]
 5563 03f8 3775     		strb	r7, [r6, #20]
 5564 03fa 6CE6     		b	.L321
 5565              	.LVL429:
 5566              	.L366:
 359:libDaisy//src/dev/oled_ssd130x.h ****     }
 5567              		.loc 12 359 42 view .LVU1305
 5568              	.LBE1294:
 5569              	.LBE1293:
 5570              	.LBE1298:
 5571              	.LBE1302:
 5572              	.LBE1314:
 5573              	.LBE1317:
 5574              	.LBE1405:
 5575              	.LBB1406:
 5576              	.LBB1353:
 230:libDaisy//src/hid/disp/display.h ****         int_fast16_t error  = deltaX - deltaY;
 5577              		.loc 3 230 42 view .LVU1306
 5578 03fc 4FF0FF36 		mov	r6, #-1
 5579 0400 0096     		str	r6, [sp]
 5580 0402 C5E6     		b	.L332
 5581              	.LVL430:
 5582              	.L370:
 230:libDaisy//src/hid/disp/display.h ****         int_fast16_t error  = deltaX - deltaY;
 5583              		.loc 3 230 42 view .LVU1307
 5584 0404 0126     		movs	r6, #1
 5585 0406 0096     		str	r6, [sp]
 5586 0408 C5E6     		b	.L335
 5587              	.LVL431:
 5588              	.L403:
 230:libDaisy//src/hid/disp/display.h ****         int_fast16_t error  = deltaX - deltaY;
 5589              		.loc 3 230 42 view .LVU1308
 5590              	.LBE1353:
 5591              	.LBE1406:
 5592              	.LBB1407:
 5593              	.LBB1318:
 239:libDaisy//src/hid/disp/display.h ****         {
 5594              		.loc 3 239 19 view .LVU1309
 5595 040a 0126     		movs	r6, #1
ARM GAS  /var/folders/z2/7_lhr9dn53s9tj4s0rwtyswm0000gn/T//ccRFfwbB.s 			page 158


 5596 040c 0496     		str	r6, [sp, #16]
 5597 040e 90E6     		b	.L323
 5598              	.LVL432:
 5599              	.L404:
 239:libDaisy//src/hid/disp/display.h ****         {
 5600              		.loc 3 239 19 view .LVU1310
 5601              	.LBE1318:
 5602              	.LBE1407:
 5603              	.LBB1408:
 5604              	.LBB1354:
 239:libDaisy//src/hid/disp/display.h ****         {
 5605              		.loc 3 239 33 view .LVU1311
 5606 0410 0126     		movs	r6, #1
 5607 0412 0196     		str	r6, [sp, #4]
 5608 0414 EDE6     		b	.L334
 5609              	.LBE1354:
 5610              	.LBE1408:
 5611              	.LBE1432:
 5612              		.cfi_endproc
 5613              	.LFE5449:
 5615 0416 00BF     		.section	.text.startup.main,"ax",%progbits
 5616              		.align	1
 5617              		.p2align 2,,3
 5618              		.global	main
 5619              		.syntax unified
 5620              		.thumb
 5621              		.thumb_func
 5623              	main:
 5624              	.LFB4852:
  20:daisyfs.cpp   **** 
  21:daisyfs.cpp   **** int main(void)
  22:daisyfs.cpp   **** {
 5625              		.loc 13 22 1 is_stmt 1 view -0
 5626              		.cfi_startproc
 5627              		@ Volatile: function does not return.
 5628              		@ args = 0, pretend = 0, frame = 0
 5629              		@ frame_needed = 0, uses_anonymous_args = 0
  23:daisyfs.cpp   **** 	hw.Init();
 5630              		.loc 13 23 2 view .LVU1313
  22:daisyfs.cpp   **** 	hw.Init();
 5631              		.loc 13 22 1 is_stmt 0 view .LVU1314
 5632 0000 08B5     		push	{r3, lr}
 5633              		.cfi_def_cfa_offset 8
 5634              		.cfi_offset 3, -8
 5635              		.cfi_offset 14, -4
 5636              		.loc 13 23 9 view .LVU1315
 5637 0002 0021     		movs	r1, #0
 5638 0004 0948     		ldr	r0, .L409
 5639 0006 FFF7FEFF 		bl	_ZN5daisy10DaisyPatch4InitEb
 5640              	.LVL433:
  24:daisyfs.cpp   **** 	hw.SetAudioBlockSize(4); // number of samples handled per callback
 5641              		.loc 13 24 2 is_stmt 1 view .LVU1316
 5642              		.loc 13 24 22 is_stmt 0 view .LVU1317
 5643 000a 0421     		movs	r1, #4
 5644 000c 0748     		ldr	r0, .L409
 5645 000e FFF7FEFF 		bl	_ZN5daisy10DaisyPatch17SetAudioBlockSizeEj
 5646              	.LVL434:
ARM GAS  /var/folders/z2/7_lhr9dn53s9tj4s0rwtyswm0000gn/T//ccRFfwbB.s 			page 159


  25:daisyfs.cpp   **** 	hw.SetAudioSampleRate(SaiHandle::Config::SampleRate::SAI_48KHZ);
 5647              		.loc 13 25 2 is_stmt 1 view .LVU1318
 5648              		.loc 13 25 23 is_stmt 0 view .LVU1319
 5649 0012 0321     		movs	r1, #3
 5650 0014 0548     		ldr	r0, .L409
 5651 0016 FFF7FEFF 		bl	_ZN5daisy10DaisyPatch18SetAudioSampleRateENS_9SaiHandle6Config10SampleRateE
 5652              	.LVL435:
  26:daisyfs.cpp   **** 	hw.StartAdc();
 5653              		.loc 13 26 2 is_stmt 1 view .LVU1320
 5654              		.loc 13 26 13 is_stmt 0 view .LVU1321
 5655 001a 0448     		ldr	r0, .L409
 5656 001c FFF7FEFF 		bl	_ZN5daisy10DaisyPatch8StartAdcEv
 5657              	.LVL436:
  27:daisyfs.cpp   **** 	hw.StartAudio(AudioCallback);
 5658              		.loc 13 27 2 is_stmt 1 view .LVU1322
 5659              		.loc 13 27 15 is_stmt 0 view .LVU1323
 5660 0020 0349     		ldr	r1, .L409+4
 5661 0022 0248     		ldr	r0, .L409
 5662 0024 FFF7FEFF 		bl	_ZN5daisy10DaisyPatch10StartAudioEPFvPKPKfPPfjE
 5663              	.LVL437:
 5664              	.L407:
  28:daisyfs.cpp   **** 	while(1) {}
 5665              		.loc 13 28 2 is_stmt 1 discriminator 1 view .LVU1324
 5666              		.loc 13 28 2 discriminator 1 view .LVU1325
 5667              		.loc 13 28 2 discriminator 1 view .LVU1326
 5668              		.loc 13 28 2 discriminator 1 view .LVU1327
 5669 0028 FEE7     		b	.L407
 5670              	.L410:
 5671 002a 00BF     		.align	2
 5672              	.L409:
 5673 002c 00000000 		.word	hw
 5674 0030 00000000 		.word	_Z13AudioCallbackPKPKfPPfj
 5675              		.cfi_endproc
 5676              	.LFE4852:
 5678              		.section	.text.startup._GLOBAL__sub_I_hw,"ax",%progbits
 5679              		.align	1
 5680              		.p2align 2,,3
 5681              		.syntax unified
 5682              		.thumb
 5683              		.thumb_func
 5685              	_GLOBAL__sub_I_hw:
 5686              	.LFB5462:
  29:daisyfs.cpp   **** }
 5687              		.loc 13 29 1 view -0
 5688              		.cfi_startproc
 5689              		@ args = 0, pretend = 0, frame = 0
 5690              		@ frame_needed = 0, uses_anonymous_args = 0
 5691              		@ link register save eliminated.
 5692              	.LBB1487:
 5693              	.LBI1487:
 5694              		.loc 13 29 1 view .LVU1329
 5695              	.LVL438:
 5696              	.LBB1488:
 5697              	.LBB1489:
 5698              	.LBI1489:
  39:libDaisy//src/daisy_patch.h ****     /** Destructor */
 5699              		.loc 1 39 5 view .LVU1330
ARM GAS  /var/folders/z2/7_lhr9dn53s9tj4s0rwtyswm0000gn/T//ccRFfwbB.s 			page 160


 5700              	.LBB1490:
 5701              	.LBB1491:
 5702              	.LBI1491:
  21:libDaisy//src/daisy_seed.h ****     ~DaisySeed() {}
 5703              		.loc 7 21 5 view .LVU1331
 5704              	.LBB1492:
 5705              	.LBB1493:
 5706              	.LBI1493:
 5707              		.file 16 "libDaisy//src/per/qspi.h"
   1:libDaisy//src/per/qspi.h **** #ifndef DSY_QSPI
   2:libDaisy//src/per/qspi.h **** #define DSY_QSPI /**< Macro */
   3:libDaisy//src/per/qspi.h **** 
   4:libDaisy//src/per/qspi.h **** #ifndef UNIT_TEST // for unit tests, a dummy implementation
   5:libDaisy//src/per/qspi.h **** 
   6:libDaisy//src/per/qspi.h **** #include <cstdint>
   7:libDaisy//src/per/qspi.h **** #include "daisy_core.h" // Added for dsy_gpio_pin typedef
   8:libDaisy//src/per/qspi.h **** 
   9:libDaisy//src/per/qspi.h **** #define DSY_QSPI_TEXT       \
  10:libDaisy//src/per/qspi.h ****     __attribute__((section( \
  11:libDaisy//src/per/qspi.h ****         ".qspiflash_text"))) /**< used for reading memory in memory_mapped mode. */
  12:libDaisy//src/per/qspi.h **** #define DSY_QSPI_DATA       \
  13:libDaisy//src/per/qspi.h ****     __attribute__((section( \
  14:libDaisy//src/per/qspi.h ****         ".qspiflash_data"))) /**< used for reading memory in memory_mapped mode. */
  15:libDaisy//src/per/qspi.h **** #define DSY_QSPI_BSS        \
  16:libDaisy//src/per/qspi.h ****     __attribute__((section( \
  17:libDaisy//src/per/qspi.h ****         ".qspiflash_bss"))) /**< used for reading memory in memory_mapped mode. */
  18:libDaisy//src/per/qspi.h **** 
  19:libDaisy//src/per/qspi.h **** namespace daisy
  20:libDaisy//src/per/qspi.h **** {
  21:libDaisy//src/per/qspi.h **** /** @addtogroup serial
  22:libDaisy//src/per/qspi.h **** @{
  23:libDaisy//src/per/qspi.h **** */
  24:libDaisy//src/per/qspi.h **** 
  25:libDaisy//src/per/qspi.h **** /** 
  26:libDaisy//src/per/qspi.h ****  Driver for QSPI peripheral to interface with external flash memory. \n 
  27:libDaisy//src/per/qspi.h ****     Currently supported QSPI Devices: \n 
  28:libDaisy//src/per/qspi.h ****     * IS25LP080D
  29:libDaisy//src/per/qspi.h **** */
  30:libDaisy//src/per/qspi.h **** class QSPIHandle
  31:libDaisy//src/per/qspi.h **** {
  32:libDaisy//src/per/qspi.h ****   public:
  33:libDaisy//src/per/qspi.h ****     enum Result
  34:libDaisy//src/per/qspi.h ****     {
  35:libDaisy//src/per/qspi.h ****         OK = 0,
  36:libDaisy//src/per/qspi.h ****         ERR
  37:libDaisy//src/per/qspi.h ****     };
  38:libDaisy//src/per/qspi.h **** 
  39:libDaisy//src/per/qspi.h ****     /** Indicates the current status of the module. 
  40:libDaisy//src/per/qspi.h ****          *  Warnings are indicated by a leading W.
  41:libDaisy//src/per/qspi.h ****          *  Errors are indicated by a leading E and cause an immediate exit.
  42:libDaisy//src/per/qspi.h ****          * 
  43:libDaisy//src/per/qspi.h ****          *  \param GOOD - No errors have been reported.
  44:libDaisy//src/per/qspi.h ****          *  \param E_HAL_ERROR - HAL code did not return HAL_OK.
  45:libDaisy//src/per/qspi.h ****          *  \param E_SWITCHING_MODES - An error was encountered while switching QSPI peripheral mod
  46:libDaisy//src/per/qspi.h ****          *  \param E_INVALID_MODE - QSPI should not be written to while the program is executing fr
  47:libDaisy//src/per/qspi.h ****          */
  48:libDaisy//src/per/qspi.h ****     enum Status
ARM GAS  /var/folders/z2/7_lhr9dn53s9tj4s0rwtyswm0000gn/T//ccRFfwbB.s 			page 161


  49:libDaisy//src/per/qspi.h ****     {
  50:libDaisy//src/per/qspi.h ****         GOOD = 0,
  51:libDaisy//src/per/qspi.h ****         E_HAL_ERROR,
  52:libDaisy//src/per/qspi.h ****         E_SWITCHING_MODES,
  53:libDaisy//src/per/qspi.h ****         E_INVALID_MODE,
  54:libDaisy//src/per/qspi.h ****     };
  55:libDaisy//src/per/qspi.h **** 
  56:libDaisy//src/per/qspi.h ****     /** Configuration structure for interfacing with QSPI Driver */
  57:libDaisy//src/per/qspi.h ****     struct Config
  58:libDaisy//src/per/qspi.h ****     {
  59:libDaisy//src/per/qspi.h ****         /** Flash Devices supported. (Both of these are more-or-less the same, just different sizes
  60:libDaisy//src/per/qspi.h ****         enum Device
  61:libDaisy//src/per/qspi.h ****         {
  62:libDaisy//src/per/qspi.h ****             IS25LP080D,  /**< & */
  63:libDaisy//src/per/qspi.h ****             IS25LP064A,  /**< & */
  64:libDaisy//src/per/qspi.h ****             DEVICE_LAST, /**< & */
  65:libDaisy//src/per/qspi.h ****         };
  66:libDaisy//src/per/qspi.h **** 
  67:libDaisy//src/per/qspi.h ****         /** 
  68:libDaisy//src/per/qspi.h ****         Modes of operation.
  69:libDaisy//src/per/qspi.h ****         Memory Mapped mode: QSPI configured so that the QSPI can be
  70:libDaisy//src/per/qspi.h ****         read from starting address 0x90000000. Writing is not
  71:libDaisy//src/per/qspi.h ****         possible in this mode. \n 
  72:libDaisy//src/per/qspi.h ****         Indirect Polling mode: Device driver enabled. 
  73:libDaisy//src/per/qspi.h ****         */
  74:libDaisy//src/per/qspi.h ****         enum Mode
  75:libDaisy//src/per/qspi.h ****         {
  76:libDaisy//src/per/qspi.h ****             MEMORY_MAPPED,    /**< & */
  77:libDaisy//src/per/qspi.h ****             INDIRECT_POLLING, /**< & */
  78:libDaisy//src/per/qspi.h ****             MODE_LAST,
  79:libDaisy//src/per/qspi.h ****         };
  80:libDaisy//src/per/qspi.h **** 
  81:libDaisy//src/per/qspi.h ****         //SCK,  CE# (active low)
  82:libDaisy//src/per/qspi.h ****         struct
  83:libDaisy//src/per/qspi.h ****         {
  84:libDaisy//src/per/qspi.h ****             dsy_gpio_pin io0; /**< & */
  85:libDaisy//src/per/qspi.h ****             dsy_gpio_pin io1; /**< & */
  86:libDaisy//src/per/qspi.h ****             dsy_gpio_pin io2; /**< & */
  87:libDaisy//src/per/qspi.h ****             dsy_gpio_pin io3; /**< & */
  88:libDaisy//src/per/qspi.h ****             dsy_gpio_pin clk; /**< & */
  89:libDaisy//src/per/qspi.h ****             dsy_gpio_pin ncs; /**< & */
  90:libDaisy//src/per/qspi.h ****         } pin_config;
  91:libDaisy//src/per/qspi.h **** 
  92:libDaisy//src/per/qspi.h ****         Device device;
  93:libDaisy//src/per/qspi.h ****         Mode   mode;
  94:libDaisy//src/per/qspi.h ****     };
  95:libDaisy//src/per/qspi.h **** 
  96:libDaisy//src/per/qspi.h ****     /** 
  97:libDaisy//src/per/qspi.h ****         Initializes QSPI peripheral, and Resets, and prepares memory for access.
  98:libDaisy//src/per/qspi.h ****         \param config should be populated with the mode, device and pin_config before calling this 
  99:libDaisy//src/per/qspi.h ****         \return Result::OK or Result::ERR
 100:libDaisy//src/per/qspi.h ****         */
 101:libDaisy//src/per/qspi.h ****     Result Init(const Config& config);
 102:libDaisy//src/per/qspi.h **** 
 103:libDaisy//src/per/qspi.h ****     /** Returns the current config. */
 104:libDaisy//src/per/qspi.h ****     const Config& GetConfig() const;
 105:libDaisy//src/per/qspi.h **** 
ARM GAS  /var/folders/z2/7_lhr9dn53s9tj4s0rwtyswm0000gn/T//ccRFfwbB.s 			page 162


 106:libDaisy//src/per/qspi.h ****     // Couldn't this just be called before anything else in init? That
 107:libDaisy//src/per/qspi.h ****     // would make manually calling it unnecessary.
 108:libDaisy//src/per/qspi.h ****     /** 
 109:libDaisy//src/per/qspi.h ****         Deinitializes the peripheral
 110:libDaisy//src/per/qspi.h ****         This should be called before reinitializing QSPI in a different mode.
 111:libDaisy//src/per/qspi.h ****         \return Result::OK or Result::ERR
 112:libDaisy//src/per/qspi.h ****         */
 113:libDaisy//src/per/qspi.h ****     Result DeInit();
 114:libDaisy//src/per/qspi.h **** 
 115:libDaisy//src/per/qspi.h ****     /** 
 116:libDaisy//src/per/qspi.h ****         Writes a single page to to the specified address on the QSPI chip.
 117:libDaisy//src/per/qspi.h ****         For IS25LP*, page size is 256 bytes.
 118:libDaisy//src/per/qspi.h ****         \param address Address to write to
 119:libDaisy//src/per/qspi.h ****         \param size Buffer size
 120:libDaisy//src/per/qspi.h ****         \param buffer Buffer to write
 121:libDaisy//src/per/qspi.h ****         \return Result::OK or Result::ERR
 122:libDaisy//src/per/qspi.h ****         */
 123:libDaisy//src/per/qspi.h ****     Result WritePage(uint32_t address, uint32_t size, uint8_t* buffer);
 124:libDaisy//src/per/qspi.h **** 
 125:libDaisy//src/per/qspi.h ****     /** 
 126:libDaisy//src/per/qspi.h ****         Writes data in buffer to to the QSPI. Starting at address to address+size 
 127:libDaisy//src/per/qspi.h ****         \param address Address to write to
 128:libDaisy//src/per/qspi.h ****         \param size Buffer size
 129:libDaisy//src/per/qspi.h ****         \param buffer Buffer to write
 130:libDaisy//src/per/qspi.h ****         \return Result::OK or Result::ERR
 131:libDaisy//src/per/qspi.h ****         */
 132:libDaisy//src/per/qspi.h ****     Result Write(uint32_t address, uint32_t size, uint8_t* buffer);
 133:libDaisy//src/per/qspi.h **** 
 134:libDaisy//src/per/qspi.h ****     /** 
 135:libDaisy//src/per/qspi.h ****         Erases the area specified on the chip.
 136:libDaisy//src/per/qspi.h ****         Erasures will happen by 4K, 32K or 64K increments.
 137:libDaisy//src/per/qspi.h ****         Smallest erase possible is 4kB at a time. (on IS25LP*)
 138:libDaisy//src/per/qspi.h ****         \param start_addr Address to begin erasing from
 139:libDaisy//src/per/qspi.h ****         \param end_addr  Address to stop erasing at
 140:libDaisy//src/per/qspi.h ****         \return Result::OK or Result::ERR
 141:libDaisy//src/per/qspi.h ****         */
 142:libDaisy//src/per/qspi.h ****     Result Erase(uint32_t start_addr, uint32_t end_addr);
 143:libDaisy//src/per/qspi.h **** 
 144:libDaisy//src/per/qspi.h ****     /**  
 145:libDaisy//src/per/qspi.h ****          Erases a single sector of the chip.  
 146:libDaisy//src/per/qspi.h ****         TODO: Document the size of this function. 
 147:libDaisy//src/per/qspi.h ****         \param address Address of sector to erase
 148:libDaisy//src/per/qspi.h ****         \return Result::OK or Result::ERR
 149:libDaisy//src/per/qspi.h ****         */
 150:libDaisy//src/per/qspi.h ****     Result EraseSector(uint32_t address);
 151:libDaisy//src/per/qspi.h **** 
 152:libDaisy//src/per/qspi.h ****     /** Returns the current class status. Useful for debugging.
 153:libDaisy//src/per/qspi.h ****      *  \returns Status
 154:libDaisy//src/per/qspi.h ****      */
 155:libDaisy//src/per/qspi.h ****     Status GetStatus();
 156:libDaisy//src/per/qspi.h **** 
 157:libDaisy//src/per/qspi.h ****     /** Returns a pointer to the actual memory used 
 158:libDaisy//src/per/qspi.h ****      *  The memory at this address is read-only
 159:libDaisy//src/per/qspi.h ****      *  to write to it use the Write function.
 160:libDaisy//src/per/qspi.h ****      * 
 161:libDaisy//src/per/qspi.h ****      *  \param offset returns the pointer starting this 
 162:libDaisy//src/per/qspi.h ****      *                many bytes into the memory
ARM GAS  /var/folders/z2/7_lhr9dn53s9tj4s0rwtyswm0000gn/T//ccRFfwbB.s 			page 163


 163:libDaisy//src/per/qspi.h ****     */
 164:libDaisy//src/per/qspi.h ****     void* GetData(uint32_t offset = 0);
 165:libDaisy//src/per/qspi.h **** 
 166:libDaisy//src/per/qspi.h ****     QSPIHandle() : pimpl_(nullptr) {}
 5708              		.loc 16 166 5 view .LVU1332
 5709              	.LBB1494:
 5710              	.LBB1495:
 5711              		.loc 16 166 34 is_stmt 0 view .LVU1333
 5712 0000 1448     		ldr	r0, .L413
 5713 0002 0022     		movs	r2, #0
 5714              	.LBE1495:
 5715              	.LBE1494:
 5716              	.LBE1493:
 5717              	.LBE1492:
 5718              	.LBE1491:
 5719              	.LBB1513:
 5720              	.LBB1514:
 5721              	.LBB1515:
 5722              	.LBB1516:
 5723              	.LBB1517:
 5724              	.LBB1518:
 5725              	.LBB1519:
  37:libDaisy//src/hid/midi.h ****             tx     = {DSY_GPIOB, 6};
 5726              		.loc 4 37 20 view .LVU1334
 5727 0004 1449     		ldr	r1, .L413+4
  36:libDaisy//src/hid/midi.h ****             rx     = {DSY_GPIOB, 7};
 5728              		.loc 4 36 20 view .LVU1335
 5729 0006 00F51043 		add	r3, r0, #36864
 5730              	.LBE1519:
 5731              	.LBE1518:
 5732              	.LBE1517:
 5733              	.LBE1516:
 5734              	.LBE1515:
 5735              	.LBE1514:
 5736              	.LBE1513:
 5737              	.LBE1490:
 5738              	.LBE1489:
 5739              	.LBE1488:
 5740              	.LBE1487:
 5741              		.loc 13 29 1 view .LVU1336
 5742 000a 10B4     		push	{r4}
 5743              		.cfi_def_cfa_offset 4
 5744              		.cfi_offset 4, -4
 5745              	.LBB1589:
 5746              	.LBB1586:
 5747              	.LBB1584:
 5748              	.LBB1582:
 5749              	.LBB1551:
 5750              	.LBB1545:
 5751              	.LBB1539:
 5752              	.LBB1526:
 5753              	.LBB1524:
 5754              	.LBB1522:
 5755              	.LBB1520:
  37:libDaisy//src/hid/midi.h ****             tx     = {DSY_GPIOB, 6};
 5756              		.loc 4 37 20 view .LVU1337
 5757 000c 0C88     		ldrh	r4, [r1]
ARM GAS  /var/folders/z2/7_lhr9dn53s9tj4s0rwtyswm0000gn/T//ccRFfwbB.s 			page 164


  38:libDaisy//src/hid/midi.h ****         }
 5758              		.loc 4 38 20 view .LVU1338
 5759 000e 8988     		ldrh	r1, [r1, #4]
  37:libDaisy//src/hid/midi.h ****             tx     = {DSY_GPIOB, 6};
 5760              		.loc 4 37 20 view .LVU1339
 5761 0010 A3F8A041 		strh	r4, [r3, #416]	@ movhi
 5762              	.LBE1520:
 5763              	.LBE1522:
 5764              	.LBE1524:
 5765              	.LBE1526:
  84:libDaisy//src/hid/midi.h ****     ~MidiHandler() {}
 5766              		.loc 4 84 19 view .LVU1340
 5767 0014 114C     		ldr	r4, .L413+8
 5768              	.LBE1539:
 5769              	.LBE1545:
 5770              	.LBE1551:
 5771              	.LBB1552:
 5772              	.LBB1510:
 5773              	.LBB1498:
 5774              	.LBB1497:
 5775              	.LBB1496:
 5776              		.loc 16 166 34 view .LVU1341
 5777 0016 0260     		str	r2, [r0]
 5778              	.LVL439:
 5779              		.loc 16 166 34 view .LVU1342
 5780              	.LBE1496:
 5781              	.LBE1497:
 5782              	.LBE1498:
 5783              	.LBB1499:
 5784              	.LBI1499:
  95:libDaisy//src/hid/audio.h ****     ~AudioHandle() {}
 5785              		.loc 11 95 5 is_stmt 1 view .LVU1343
 5786              	.LBE1499:
 5787              	.LBE1510:
 5788              	.LBE1552:
 5789              	.LBB1553:
 5790              	.LBB1546:
 5791              	.LBB1540:
  84:libDaisy//src/hid/midi.h ****     ~MidiHandler() {}
 5792              		.loc 4 84 19 is_stmt 0 view .LVU1344
 5793 0018 C3F8A841 		str	r4, [r3, #424]
 5794 001c 4FF60F04 		movw	r4, #63503
 5795              	.LBE1540:
 5796              	.LBE1546:
 5797              	.LBE1553:
 5798              	.LBB1554:
 5799              	.LBB1511:
 5800              	.LBB1502:
 5801              	.LBB1500:
 5802              	.LBB1501:
  95:libDaisy//src/hid/audio.h ****     ~AudioHandle() {}
 5803              		.loc 11 95 35 view .LVU1345
 5804 0020 4261     		str	r2, [r0, #20]
 5805              	.LVL440:
  95:libDaisy//src/hid/audio.h ****     ~AudioHandle() {}
 5806              		.loc 11 95 35 view .LVU1346
 5807              	.LBE1501:
ARM GAS  /var/folders/z2/7_lhr9dn53s9tj4s0rwtyswm0000gn/T//ccRFfwbB.s 			page 165


 5808              	.LBE1500:
 5809              	.LBE1502:
 5810              	.LBB1503:
 5811              	.LBI1503:
  92:libDaisy//src/per/adc.h ****     ~AdcHandle() {}
 5812              		.loc 10 92 5 is_stmt 1 view .LVU1347
  92:libDaisy//src/per/adc.h ****     ~AdcHandle() {}
 5813              		.loc 10 92 5 is_stmt 0 view .LVU1348
 5814              	.LBE1503:
 5815              	.LBB1504:
 5816              	.LBI1504:
 5817              		.file 17 "libDaisy//src/per/dac.h"
   1:libDaisy//src/per/dac.h **** #pragma once
   2:libDaisy//src/per/dac.h **** #ifndef DSY_DAC_H
   3:libDaisy//src/per/dac.h **** #define DSY_DAC_H
   4:libDaisy//src/per/dac.h **** 
   5:libDaisy//src/per/dac.h **** #include "daisy_core.h"
   6:libDaisy//src/per/dac.h **** 
   7:libDaisy//src/per/dac.h **** namespace daisy
   8:libDaisy//src/per/dac.h **** {
   9:libDaisy//src/per/dac.h **** /** @brief DAC handle for Built-in DAC Peripheral 
  10:libDaisy//src/per/dac.h ****  *  @ingroup per_analog
  11:libDaisy//src/per/dac.h ****  ** 
  12:libDaisy//src/per/dac.h ****  ** For now only Normal Mode is supported,
  13:libDaisy//src/per/dac.h ****  ** Sample and hold mode provides reduced power consumption, but requires a bit more setup.
  14:libDaisy//src/per/dac.h ****  **
  15:libDaisy//src/per/dac.h ****  ** For now connecting the DAC through other internal peripherals is also not supported.
  16:libDaisy//src/per/dac.h ****  **
  17:libDaisy//src/per/dac.h ****  ** Since the DAC channels have dedicated pins we don't need to pass in a pin config like with
  18:libDaisy//src/per/dac.h ****  ** other modules. However, it is still important to not try to use the DAC pins for anything else.
  19:libDaisy//src/per/dac.h ****  ** DAC Channel 1 is on PA4, and DAC Channel 2 is on PA5
  20:libDaisy//src/per/dac.h ****  ***/
  21:libDaisy//src/per/dac.h **** class DacHandle
  22:libDaisy//src/per/dac.h **** {
  23:libDaisy//src/per/dac.h ****   public:
  24:libDaisy//src/per/dac.h ****     /** Return Values for the DacHandle class */
  25:libDaisy//src/per/dac.h ****     enum class Result
  26:libDaisy//src/per/dac.h ****     {
  27:libDaisy//src/per/dac.h ****         OK,
  28:libDaisy//src/per/dac.h ****         ERR,
  29:libDaisy//src/per/dac.h ****     };
  30:libDaisy//src/per/dac.h **** 
  31:libDaisy//src/per/dac.h ****     /** Selects which channel(s) will be configured for use. */
  32:libDaisy//src/per/dac.h ****     enum class Channel
  33:libDaisy//src/per/dac.h ****     {
  34:libDaisy//src/per/dac.h ****         ONE,
  35:libDaisy//src/per/dac.h ****         TWO,
  36:libDaisy//src/per/dac.h ****         BOTH,
  37:libDaisy//src/per/dac.h ****     };
  38:libDaisy//src/per/dac.h **** 
  39:libDaisy//src/per/dac.h ****     /** Sets the Mode for the DAC channels.
  40:libDaisy//src/per/dac.h ****      **
  41:libDaisy//src/per/dac.h ****      ** Polling mode uses the blocking mode to transmit a single value at a time.
  42:libDaisy//src/per/dac.h ****      **
  43:libDaisy//src/per/dac.h ****      ** DMA mode uses a buffer, and periodically transmits it triggering a 
  44:libDaisy//src/per/dac.h ****      ** callback to fill the buffer when it is ready for more samples.
  45:libDaisy//src/per/dac.h ****      ***/
ARM GAS  /var/folders/z2/7_lhr9dn53s9tj4s0rwtyswm0000gn/T//ccRFfwbB.s 			page 166


  46:libDaisy//src/per/dac.h ****     enum class Mode
  47:libDaisy//src/per/dac.h ****     {
  48:libDaisy//src/per/dac.h ****         POLLING,
  49:libDaisy//src/per/dac.h ****         DMA,
  50:libDaisy//src/per/dac.h ****     };
  51:libDaisy//src/per/dac.h **** 
  52:libDaisy//src/per/dac.h ****     /** Sets the number of bits per sample transmitted out of the DAC.
  53:libDaisy//src/per/dac.h ****      ** The output range will be: 0V - VDDA
  54:libDaisy//src/per/dac.h ****      ** The resolution will be roughly: bitdepth / (VDDA - 0V) 
  55:libDaisy//src/per/dac.h ****      ***/
  56:libDaisy//src/per/dac.h ****     enum class BitDepth
  57:libDaisy//src/per/dac.h ****     {
  58:libDaisy//src/per/dac.h ****         BITS_8,
  59:libDaisy//src/per/dac.h ****         BITS_12
  60:libDaisy//src/per/dac.h ****     };
  61:libDaisy//src/per/dac.h **** 
  62:libDaisy//src/per/dac.h ****     /** Sets whether the DAC output is buffered for higher drive ability. */
  63:libDaisy//src/per/dac.h ****     enum class BufferState
  64:libDaisy//src/per/dac.h ****     {
  65:libDaisy//src/per/dac.h ****         ENABLED,
  66:libDaisy//src/per/dac.h ****         DISABLED,
  67:libDaisy//src/per/dac.h ****     };
  68:libDaisy//src/per/dac.h **** 
  69:libDaisy//src/per/dac.h ****     /** Configuration structure for initializing the DAC structure. */
  70:libDaisy//src/per/dac.h ****     struct Config
  71:libDaisy//src/per/dac.h ****     {
  72:libDaisy//src/per/dac.h ****         /** Target Samplerate in Hz used to configure the internal 
  73:libDaisy//src/per/dac.h ****          ** timebase for DMA mode. Does nothing in POLLING mode.
  74:libDaisy//src/per/dac.h ****          ** If the value is 0 at Init time this will default to 48000Hz 
  75:libDaisy//src/per/dac.h ****          ** otherwise the driver will attempt meet the target.*/
  76:libDaisy//src/per/dac.h ****         uint32_t target_samplerate;
  77:libDaisy//src/per/dac.h **** 
  78:libDaisy//src/per/dac.h ****         Channel     chn;
  79:libDaisy//src/per/dac.h ****         Mode        mode;
  80:libDaisy//src/per/dac.h ****         BitDepth    bitdepth;
  81:libDaisy//src/per/dac.h ****         BufferState buff_state;
  82:libDaisy//src/per/dac.h ****     };
  83:libDaisy//src/per/dac.h **** 
  84:libDaisy//src/per/dac.h ****     DacHandle() : pimpl_(nullptr) {}
 5818              		.loc 17 84 5 is_stmt 1 view .LVU1349
 5819              	.LBE1504:
 5820              	.LBE1511:
 5821              	.LBE1554:
 5822              	.LBB1555:
 5823              	.LBB1547:
 5824              	.LBB1541:
  84:libDaisy//src/hid/midi.h ****     ~MidiHandler() {}
 5825              		.loc 4 84 19 is_stmt 0 view .LVU1350
 5826 0022 A3F8AC41 		strh	r4, [r3, #428]	@ movhi
 5827 0026 0724     		movs	r4, #7
 5828              	.LBE1541:
 5829              	.LBE1547:
 5830              	.LBE1555:
 5831              	.LBB1556:
 5832              	.LBB1512:
 5833              	.LBB1507:
 5834              	.LBB1505:
ARM GAS  /var/folders/z2/7_lhr9dn53s9tj4s0rwtyswm0000gn/T//ccRFfwbB.s 			page 167


 5835              	.LBB1506:
 5836              		.loc 17 84 33 view .LVU1351
 5837 0028 0262     		str	r2, [r0, #32]
 5838              	.LVL441:
 5839              		.loc 17 84 33 view .LVU1352
 5840              	.LBE1506:
 5841              	.LBE1505:
 5842              	.LBE1507:
 5843              	.LBB1508:
 5844              	.LBI1508:
  40:libDaisy//src/hid/usb.h **** 
 5845              		.loc 9 40 5 is_stmt 1 view .LVU1353
  40:libDaisy//src/hid/usb.h **** 
 5846              		.loc 9 40 5 is_stmt 0 view .LVU1354
 5847              	.LBE1508:
 5848              	.LBB1509:
 5849              	.LBI1509:
  77:libDaisy//src/sys/system.h ****     ~System() {}
 5850              		.loc 8 77 5 is_stmt 1 view .LVU1355
  77:libDaisy//src/sys/system.h ****     ~System() {}
 5851              		.loc 8 77 5 is_stmt 0 view .LVU1356
 5852              	.LBE1509:
 5853              	.LBE1512:
 5854              	.LBE1556:
 5855              	.LBB1557:
 5856              	.LBI1557:
  20:libDaisy//src/hid/encoder.h ****     ~Encoder() {}
 5857              		.loc 5 20 5 is_stmt 1 view .LVU1357
 5858              	.LBB1558:
 5859              	.LBB1559:
 5860              	.LBI1559:
  41:libDaisy//src/hid/switch.h ****     ~Switch() {}
 5861              		.loc 6 41 5 view .LVU1358
  41:libDaisy//src/hid/switch.h ****     ~Switch() {}
 5862              		.loc 6 41 5 is_stmt 0 view .LVU1359
 5863              	.LBE1559:
 5864              	.LBE1558:
 5865              	.LBE1557:
 5866              	.LBE1582:
 5867              	.LBE1584:
 5868              	.LBE1586:
 5869              	.LBE1589:
  39:libDaisy//src/daisy_patch.h ****     /** Destructor */
 5870              		.loc 1 39 18 is_stmt 1 view .LVU1360
  39:libDaisy//src/daisy_patch.h ****     /** Destructor */
 5871              		.loc 1 39 18 view .LVU1361
 5872              	.LBB1590:
 5873              	.LBB1587:
 5874              	.LBB1585:
 5875              	.LBB1583:
 5876              	.LBB1560:
 5877              	.LBI1513:
  84:libDaisy//src/hid/midi.h ****     ~MidiHandler() {}
 5878              		.loc 4 84 5 view .LVU1362
 5879              	.LBB1548:
 5880              	.LBB1542:
 5881              	.LBB1527:
ARM GAS  /var/folders/z2/7_lhr9dn53s9tj4s0rwtyswm0000gn/T//ccRFfwbB.s 			page 168


 5882              	.LBI1527:
 5883              		.file 18 "libDaisy//src/per/uart.h"
   1:libDaisy//src/per/uart.h **** /* 
   2:libDaisy//src/per/uart.h **** TODO
   3:libDaisy//src/per/uart.h **** - UART1 defaults to DMA, add flexible config for DMA on all periphs
   4:libDaisy//src/per/uart.h **** - Transmit function improvements.
   5:libDaisy//src/per/uart.h **** - Overflow handling, etc. for Rx Queue.
   6:libDaisy//src/per/uart.h **** */
   7:libDaisy//src/per/uart.h **** 
   8:libDaisy//src/per/uart.h **** #pragma once
   9:libDaisy//src/per/uart.h **** #ifndef DSY_UART_H
  10:libDaisy//src/per/uart.h **** #define DSY_UART_H /**< macro */
  11:libDaisy//src/per/uart.h **** #include "daisy_core.h"
  12:libDaisy//src/per/uart.h **** 
  13:libDaisy//src/per/uart.h **** 
  14:libDaisy//src/per/uart.h **** namespace daisy
  15:libDaisy//src/per/uart.h **** {
  16:libDaisy//src/per/uart.h **** /** @addtogroup serial
  17:libDaisy//src/per/uart.h ****     @{
  18:libDaisy//src/per/uart.h ****     */
  19:libDaisy//src/per/uart.h **** 
  20:libDaisy//src/per/uart.h **** /** 
  21:libDaisy//src/per/uart.h ****     Uart Peripheral
  22:libDaisy//src/per/uart.h ****     @author shensley
  23:libDaisy//src/per/uart.h ****     @date March 2020
  24:libDaisy//src/per/uart.h ****     */
  25:libDaisy//src/per/uart.h **** class UartHandler
  26:libDaisy//src/per/uart.h **** {
  27:libDaisy//src/per/uart.h ****   public:
  28:libDaisy//src/per/uart.h ****     struct Config
  29:libDaisy//src/per/uart.h ****     {
  30:libDaisy//src/per/uart.h ****         enum class Peripheral
  31:libDaisy//src/per/uart.h ****         {
  32:libDaisy//src/per/uart.h ****             USART_1,
  33:libDaisy//src/per/uart.h ****             USART_2,
  34:libDaisy//src/per/uart.h ****             USART_3,
  35:libDaisy//src/per/uart.h ****             UART_4,
  36:libDaisy//src/per/uart.h ****             UART_5,
  37:libDaisy//src/per/uart.h ****             USART_6,
  38:libDaisy//src/per/uart.h ****             UART_7,
  39:libDaisy//src/per/uart.h ****             UART_8,
  40:libDaisy//src/per/uart.h ****             LPUART_1,
  41:libDaisy//src/per/uart.h ****         };
  42:libDaisy//src/per/uart.h **** 
  43:libDaisy//src/per/uart.h ****         enum class StopBits
  44:libDaisy//src/per/uart.h ****         {
  45:libDaisy//src/per/uart.h ****             BITS_0_5,
  46:libDaisy//src/per/uart.h ****             BITS_1,
  47:libDaisy//src/per/uart.h ****             BITS_1_5,
  48:libDaisy//src/per/uart.h ****             BITS_2,
  49:libDaisy//src/per/uart.h ****         };
  50:libDaisy//src/per/uart.h **** 
  51:libDaisy//src/per/uart.h ****         enum class Parity
  52:libDaisy//src/per/uart.h ****         {
  53:libDaisy//src/per/uart.h ****             NONE,
  54:libDaisy//src/per/uart.h ****             EVEN,
  55:libDaisy//src/per/uart.h ****             ODD,
ARM GAS  /var/folders/z2/7_lhr9dn53s9tj4s0rwtyswm0000gn/T//ccRFfwbB.s 			page 169


  56:libDaisy//src/per/uart.h ****         };
  57:libDaisy//src/per/uart.h **** 
  58:libDaisy//src/per/uart.h ****         enum class Mode
  59:libDaisy//src/per/uart.h ****         {
  60:libDaisy//src/per/uart.h ****             RX,
  61:libDaisy//src/per/uart.h ****             TX,
  62:libDaisy//src/per/uart.h ****             TX_RX,
  63:libDaisy//src/per/uart.h ****         };
  64:libDaisy//src/per/uart.h **** 
  65:libDaisy//src/per/uart.h ****         enum class WordLength
  66:libDaisy//src/per/uart.h ****         {
  67:libDaisy//src/per/uart.h ****             BITS_7,
  68:libDaisy//src/per/uart.h ****             BITS_8,
  69:libDaisy//src/per/uart.h ****             BITS_9,
  70:libDaisy//src/per/uart.h ****         };
  71:libDaisy//src/per/uart.h **** 
  72:libDaisy//src/per/uart.h ****         struct
  73:libDaisy//src/per/uart.h ****         {
  74:libDaisy//src/per/uart.h ****             dsy_gpio_pin tx; /**< & */
  75:libDaisy//src/per/uart.h ****             dsy_gpio_pin rx; /**< & */
  76:libDaisy//src/per/uart.h ****         } pin_config;        /**< & */
  77:libDaisy//src/per/uart.h **** 
  78:libDaisy//src/per/uart.h ****         Config()
  79:libDaisy//src/per/uart.h ****         {
  80:libDaisy//src/per/uart.h ****             // user must init periph, pin_config, and mode
  81:libDaisy//src/per/uart.h ****             stopbits   = StopBits::BITS_1;
  82:libDaisy//src/per/uart.h ****             parity     = Parity::NONE;
  83:libDaisy//src/per/uart.h ****             wordlength = WordLength::BITS_8;
  84:libDaisy//src/per/uart.h ****             baudrate   = 4800;
  85:libDaisy//src/per/uart.h ****             // baudrate   = 31250;
  86:libDaisy//src/per/uart.h ****         }
  87:libDaisy//src/per/uart.h **** 
  88:libDaisy//src/per/uart.h ****         Peripheral periph;
  89:libDaisy//src/per/uart.h ****         StopBits   stopbits;
  90:libDaisy//src/per/uart.h ****         Parity     parity;
  91:libDaisy//src/per/uart.h ****         Mode       mode;
  92:libDaisy//src/per/uart.h ****         WordLength wordlength;
  93:libDaisy//src/per/uart.h ****         uint32_t   baudrate;
  94:libDaisy//src/per/uart.h ****     };
  95:libDaisy//src/per/uart.h **** 
  96:libDaisy//src/per/uart.h **** 
  97:libDaisy//src/per/uart.h ****     UartHandler() : pimpl_(nullptr) {}
 5884              		.loc 18 97 5 view .LVU1363
 5885              	.LBE1527:
  84:libDaisy//src/hid/midi.h ****     ~MidiHandler() {}
 5886              		.loc 4 84 19 is_stmt 0 view .LVU1364
 5887 002a 83F8AE41 		strb	r4, [r3, #430]
 5888              	.LBE1542:
 5889              	.LBE1548:
 5890              	.LBE1560:
 5891              	.LBB1561:
 5892              	.LBB1562:
 5893              	.LBB1563:
  17:libDaisy//src/hid/disp/oled_display.h ****     virtual ~OledDisplay() {}
 5894              		.loc 2 17 19 view .LVU1365
 5895 002e 0C4C     		ldr	r4, .L413+12
 5896              	.LBE1563:
ARM GAS  /var/folders/z2/7_lhr9dn53s9tj4s0rwtyswm0000gn/T//ccRFfwbB.s 			page 170


 5897              	.LBE1562:
 5898              	.LBE1561:
 5899              	.LBB1578:
 5900              	.LBB1549:
 5901              	.LBB1543:
 5902              	.LBB1530:
 5903              	.LBB1528:
 5904              	.LBB1529:
 5905              		.loc 18 97 35 view .LVU1366
 5906 0030 C0F8F420 		str	r2, [r0, #244]
 5907              	.LVL442:
 5908              		.loc 18 97 35 view .LVU1367
 5909              	.LBE1529:
 5910              	.LBE1528:
 5911              	.LBE1530:
 5912              	.LBB1531:
 5913              	.LBI1531:
 5914              		.file 19 "libDaisy//src/util/ringbuffer.h"
   1:libDaisy//src/util/ringbuffer.h **** #pragma once
   2:libDaisy//src/util/ringbuffer.h **** #ifndef DSY_RINGBUFFER_H
   3:libDaisy//src/util/ringbuffer.h **** #define DSY_RINGBUFFER_H
   4:libDaisy//src/util/ringbuffer.h **** 
   5:libDaisy//src/util/ringbuffer.h **** #include <algorithm>
   6:libDaisy//src/util/ringbuffer.h **** 
   7:libDaisy//src/util/ringbuffer.h **** namespace daisy
   8:libDaisy//src/util/ringbuffer.h **** {
   9:libDaisy//src/util/ringbuffer.h **** /** @addtogroup utility
  10:libDaisy//src/util/ringbuffer.h ****     @{
  11:libDaisy//src/util/ringbuffer.h **** */
  12:libDaisy//src/util/ringbuffer.h **** 
  13:libDaisy//src/util/ringbuffer.h **** /**
  14:libDaisy//src/util/ringbuffer.h **** Utility Ring Buffer \n 
  15:libDaisy//src/util/ringbuffer.h **** imported from pichenettes/stmlib
  16:libDaisy//src/util/ringbuffer.h **** */
  17:libDaisy//src/util/ringbuffer.h **** template <typename T, size_t size>
  18:libDaisy//src/util/ringbuffer.h **** class RingBuffer
  19:libDaisy//src/util/ringbuffer.h **** {
  20:libDaisy//src/util/ringbuffer.h ****   public:
  21:libDaisy//src/util/ringbuffer.h ****     RingBuffer() {}
 5915              		.loc 19 21 5 is_stmt 1 view .LVU1368
 5916              		.loc 19 21 5 is_stmt 0 view .LVU1369
 5917              	.LBE1531:
 5918              	.LBB1532:
 5919              	.LBI1516:
  86:libDaisy//src/hid/midi.h **** 
  87:libDaisy//src/hid/midi.h ****     struct Config
 5920              		.loc 4 87 12 is_stmt 1 view .LVU1370
 5921              	.LBB1525:
 5922              	.LBI1517:
  34:libDaisy//src/hid/midi.h ****         {
 5923              		.loc 4 34 9 view .LVU1371
 5924              	.LBB1523:
 5925              	.LBB1521:
  36:libDaisy//src/hid/midi.h ****             rx     = {DSY_GPIOB, 7};
 5926              		.loc 4 36 13 view .LVU1372
  36:libDaisy//src/hid/midi.h ****             rx     = {DSY_GPIOB, 7};
 5927              		.loc 4 36 20 is_stmt 0 view .LVU1373
ARM GAS  /var/folders/z2/7_lhr9dn53s9tj4s0rwtyswm0000gn/T//ccRFfwbB.s 			page 171


 5928 0034 C3F89C21 		str	r2, [r3, #412]
  37:libDaisy//src/hid/midi.h ****             tx     = {DSY_GPIOB, 6};
 5929              		.loc 4 37 13 is_stmt 1 view .LVU1374
  38:libDaisy//src/hid/midi.h ****         }
 5930              		.loc 4 38 13 view .LVU1375
  38:libDaisy//src/hid/midi.h ****         }
 5931              		.loc 4 38 20 is_stmt 0 view .LVU1376
 5932 0038 A3F8A211 		strh	r1, [r3, #418]	@ movhi
 5933              	.LVL443:
  38:libDaisy//src/hid/midi.h ****         }
 5934              		.loc 4 38 20 view .LVU1377
 5935              	.LBE1521:
 5936              	.LBE1523:
 5937              	.LBE1525:
 5938              	.LBE1532:
 5939              	.LBB1533:
 5940              	.LBI1533:
  25:libDaisy//src/hid/midi.h ****     ~MidiUartTransport() {}
 5941              		.loc 4 25 5 is_stmt 1 view .LVU1378
 5942              	.LBB1534:
 5943              	.LBI1534:
 5944              		.loc 18 97 5 view .LVU1379
 5945              		.loc 18 97 5 is_stmt 0 view .LVU1380
 5946              	.LBE1534:
 5947              	.LBE1533:
 5948              	.LBE1543:
 5949              	.LBE1549:
 5950              	.LBE1578:
 5951              	.LBB1579:
 5952              	.LBI1561:
  17:libDaisy//src/hid/disp/oled_display.h ****     virtual ~OledDisplay() {}
 5953              		.loc 2 17 5 is_stmt 1 view .LVU1381
 5954              	.LBB1576:
 5955              	.LBB1574:
 5956              	.LBB1564:
 5957              	.LBI1564:
 218:libDaisy//src/hid/disp/display.h ****     virtual ~OneBitGraphicsDisplayImpl() {}
 5958              		.loc 3 218 5 view .LVU1382
 5959              	.LBB1565:
 5960              	.LBI1565:
  22:libDaisy//src/hid/disp/display.h ****     virtual ~OneBitGraphicsDisplay() {}
 5961              		.loc 3 22 5 view .LVU1383
  22:libDaisy//src/hid/disp/display.h ****     virtual ~OneBitGraphicsDisplay() {}
 5962              		.loc 3 22 5 is_stmt 0 view .LVU1384
 5963              	.LBE1565:
 5964              	.LBE1564:
 5965              	.LBE1574:
 5966              	.LBE1576:
 5967              	.LBE1579:
 5968              	.LBB1580:
 5969              	.LBB1550:
 5970              	.LBB1544:
 5971              	.LBB1538:
 5972              	.LBB1537:
 5973              	.LBB1535:
 5974              	.LBB1536:
 5975              		.loc 18 97 35 view .LVU1385
ARM GAS  /var/folders/z2/7_lhr9dn53s9tj4s0rwtyswm0000gn/T//ccRFfwbB.s 			page 172


 5976 003c C3F8A421 		str	r2, [r3, #420]
 5977              	.LBE1536:
 5978              	.LBE1535:
 5979              	.LBE1537:
 5980              	.LBE1538:
 5981              	.LBE1544:
 5982              	.LBE1550:
 5983              	.LBE1580:
 5984              	.LBB1581:
 5985              	.LBB1577:
 5986              	.LBB1575:
 5987              	.LBB1566:
 5988              	.LBB1567:
 5989              	.LBB1568:
 5990              	.LBB1569:
 5991              	.LBB1570:
 5992              		.file 20 "libDaisy//src/per/spi.h"
   1:libDaisy//src/per/spi.h **** #pragma once
   2:libDaisy//src/per/spi.h **** #ifndef DSY_SPI_H
   3:libDaisy//src/per/spi.h **** #define DSY_SPI_H
   4:libDaisy//src/per/spi.h **** 
   5:libDaisy//src/per/spi.h **** #include "daisy_core.h"
   6:libDaisy//src/per/spi.h **** 
   7:libDaisy//src/per/spi.h **** /* TODO:
   8:libDaisy//src/per/spi.h **** - Add documentation
   9:libDaisy//src/per/spi.h **** - Add IT
  10:libDaisy//src/per/spi.h **** */
  11:libDaisy//src/per/spi.h **** 
  12:libDaisy//src/per/spi.h **** namespace daisy
  13:libDaisy//src/per/spi.h **** {
  14:libDaisy//src/per/spi.h **** /** @addtogroup serial
  15:libDaisy//src/per/spi.h **** @{
  16:libDaisy//src/per/spi.h **** */
  17:libDaisy//src/per/spi.h **** 
  18:libDaisy//src/per/spi.h **** /**  Handler for serial peripheral interface */
  19:libDaisy//src/per/spi.h **** class SpiHandle
  20:libDaisy//src/per/spi.h **** {
  21:libDaisy//src/per/spi.h ****   public:
  22:libDaisy//src/per/spi.h ****     struct Config
  23:libDaisy//src/per/spi.h ****     {
  24:libDaisy//src/per/spi.h ****         enum class Peripheral
  25:libDaisy//src/per/spi.h ****         {
  26:libDaisy//src/per/spi.h ****             SPI_1,
  27:libDaisy//src/per/spi.h ****             SPI_2,
  28:libDaisy//src/per/spi.h ****             SPI_3,
  29:libDaisy//src/per/spi.h ****             SPI_4,
  30:libDaisy//src/per/spi.h ****             SPI_5,
  31:libDaisy//src/per/spi.h ****             SPI_6,
  32:libDaisy//src/per/spi.h ****         };
  33:libDaisy//src/per/spi.h **** 
  34:libDaisy//src/per/spi.h ****         enum class Mode
  35:libDaisy//src/per/spi.h ****         {
  36:libDaisy//src/per/spi.h ****             MASTER,
  37:libDaisy//src/per/spi.h ****             SLAVE,
  38:libDaisy//src/per/spi.h ****         };
  39:libDaisy//src/per/spi.h **** 
  40:libDaisy//src/per/spi.h ****         enum class Direction
ARM GAS  /var/folders/z2/7_lhr9dn53s9tj4s0rwtyswm0000gn/T//ccRFfwbB.s 			page 173


  41:libDaisy//src/per/spi.h ****         {
  42:libDaisy//src/per/spi.h ****             TWO_LINES,
  43:libDaisy//src/per/spi.h ****             TWO_LINES_TX_ONLY,
  44:libDaisy//src/per/spi.h ****             TWO_LINES_RX_ONLY,
  45:libDaisy//src/per/spi.h ****             ONE_LINE,
  46:libDaisy//src/per/spi.h ****         };
  47:libDaisy//src/per/spi.h **** 
  48:libDaisy//src/per/spi.h ****         enum class ClockPolarity
  49:libDaisy//src/per/spi.h ****         {
  50:libDaisy//src/per/spi.h ****             LOW,
  51:libDaisy//src/per/spi.h ****             HIGH,
  52:libDaisy//src/per/spi.h ****         };
  53:libDaisy//src/per/spi.h **** 
  54:libDaisy//src/per/spi.h ****         enum class ClockPhase
  55:libDaisy//src/per/spi.h ****         {
  56:libDaisy//src/per/spi.h ****             ONE_EDGE,
  57:libDaisy//src/per/spi.h ****             TWO_EDGE,
  58:libDaisy//src/per/spi.h ****         };
  59:libDaisy//src/per/spi.h **** 
  60:libDaisy//src/per/spi.h ****         enum class NSS
  61:libDaisy//src/per/spi.h ****         {
  62:libDaisy//src/per/spi.h ****             SOFT,
  63:libDaisy//src/per/spi.h ****             HARD_INPUT,
  64:libDaisy//src/per/spi.h ****             HARD_OUTPUT,
  65:libDaisy//src/per/spi.h ****         };
  66:libDaisy//src/per/spi.h **** 
  67:libDaisy//src/per/spi.h ****         enum class BaudPrescaler
  68:libDaisy//src/per/spi.h ****         {
  69:libDaisy//src/per/spi.h ****             PS_2,
  70:libDaisy//src/per/spi.h ****             PS_4,
  71:libDaisy//src/per/spi.h ****             PS_8,
  72:libDaisy//src/per/spi.h ****             PS_16,
  73:libDaisy//src/per/spi.h ****             PS_32,
  74:libDaisy//src/per/spi.h ****             PS_64,
  75:libDaisy//src/per/spi.h ****             PS_128,
  76:libDaisy//src/per/spi.h ****             PS_256,
  77:libDaisy//src/per/spi.h ****         };
  78:libDaisy//src/per/spi.h **** 
  79:libDaisy//src/per/spi.h ****         struct
  80:libDaisy//src/per/spi.h ****         {
  81:libDaisy//src/per/spi.h ****             dsy_gpio_pin sclk; /**< & */
  82:libDaisy//src/per/spi.h ****             dsy_gpio_pin miso; /**< & */
  83:libDaisy//src/per/spi.h ****             dsy_gpio_pin mosi; /**< & */
  84:libDaisy//src/per/spi.h ****             dsy_gpio_pin nss;  /**< & */
  85:libDaisy//src/per/spi.h ****         } pin_config;
  86:libDaisy//src/per/spi.h **** 
  87:libDaisy//src/per/spi.h ****         Config()
  88:libDaisy//src/per/spi.h ****         {
  89:libDaisy//src/per/spi.h ****             // user must specify periph, mode, direction, nss, and pin_config
  90:libDaisy//src/per/spi.h ****             datasize       = 8;
  91:libDaisy//src/per/spi.h ****             clock_polarity = ClockPolarity::LOW;
  92:libDaisy//src/per/spi.h ****             clock_phase    = ClockPhase::ONE_EDGE;
  93:libDaisy//src/per/spi.h ****             baud_prescaler = BaudPrescaler::PS_8;
  94:libDaisy//src/per/spi.h ****         }
  95:libDaisy//src/per/spi.h **** 
  96:libDaisy//src/per/spi.h ****         Peripheral    periph;
  97:libDaisy//src/per/spi.h ****         Mode          mode;
ARM GAS  /var/folders/z2/7_lhr9dn53s9tj4s0rwtyswm0000gn/T//ccRFfwbB.s 			page 174


  98:libDaisy//src/per/spi.h ****         Direction     direction;
  99:libDaisy//src/per/spi.h ****         unsigned long datasize;
 100:libDaisy//src/per/spi.h ****         ClockPolarity clock_polarity;
 101:libDaisy//src/per/spi.h ****         ClockPhase    clock_phase;
 102:libDaisy//src/per/spi.h ****         NSS           nss;
 103:libDaisy//src/per/spi.h ****         BaudPrescaler baud_prescaler;
 104:libDaisy//src/per/spi.h ****     };
 105:libDaisy//src/per/spi.h **** 
 106:libDaisy//src/per/spi.h ****     SpiHandle() : pimpl_(nullptr) {}
 5993              		.loc 20 106 33 view .LVU1386
 5994 0040 C3F8B821 		str	r2, [r3, #440]
 5995              	.LBE1570:
 5996              	.LBE1569:
 5997              	.LBE1568:
 5998              	.LBE1567:
 5999              	.LBE1566:
  17:libDaisy//src/hid/disp/oled_display.h ****     virtual ~OledDisplay() {}
 6000              		.loc 2 17 19 view .LVU1387
 6001 0044 C3F8B041 		str	r4, [r3, #432]
 6002              	.LVL444:
 6003              	.LBB1573:
 6004              	.LBI1566:
 245:libDaisy//src/dev/oled_ssd130x.h **** {
 6005              		.loc 12 245 7 is_stmt 1 view .LVU1388
 6006              	.LBB1572:
 6007              	.LBI1567:
  65:libDaisy//src/dev/oled_ssd130x.h **** {
 6008              		.loc 12 65 7 view .LVU1389
 6009              	.LBB1571:
 6010              	.LBI1568:
 6011              		.loc 20 106 5 view .LVU1390
 6012              		.loc 20 106 5 is_stmt 0 view .LVU1391
 6013              	.LBE1571:
 6014              	.LBE1572:
 6015              	.LBE1573:
 6016              	.LBE1575:
 6017              	.LBE1577:
 6018              	.LBE1581:
 6019              	.LBE1583:
 6020              	.LBE1585:
   7:daisyfs.cpp   **** 
 6021              		.loc 13 7 12 view .LVU1392
 6022 0048 064A     		ldr	r2, .L413+16
 6023 004a 0749     		ldr	r1, .L413+20
 6024              	.LBE1587:
 6025              	.LBE1590:
 6026              		.loc 13 29 1 view .LVU1393
 6027 004c 5DF8044B 		ldr	r4, [sp], #4
 6028              		.cfi_restore 4
 6029              		.cfi_def_cfa_offset 0
 6030              	.LBB1591:
 6031              	.LBB1588:
   7:daisyfs.cpp   **** 
 6032              		.loc 13 7 12 view .LVU1394
 6033 0050 FFF7FEBF 		b	__aeabi_atexit
 6034              	.LVL445:
 6035              	.L414:
ARM GAS  /var/folders/z2/7_lhr9dn53s9tj4s0rwtyswm0000gn/T//ccRFfwbB.s 			page 175


 6036              		.align	2
 6037              	.L413:
 6038 0054 00000000 		.word	hw
 6039 0058 00000000 		.word	.LANCHOR0
 6040 005c 80707FF0 		.word	-260083584
 6041 0060 08000000 		.word	_ZTVN5daisy11OledDisplayINS_13SSD130xDriverILj128ELj64ENS_24SSD130x4WireSpiTransportEEEEE+8
 6042 0064 00000000 		.word	__dso_handle
 6043 0068 00000000 		.word	_ZN5daisy10DaisyPatchD1Ev
 6044              	.LBE1588:
 6045              	.LBE1591:
 6046              		.cfi_endproc
 6047              	.LFE5462:
 6049              		.section	.init_array,"aw",%init_array
 6050              		.align	2
 6051 0000 00000000 		.word	_GLOBAL__sub_I_hw(target1)
 6052              		.weak	_ZTVN5daisy11OledDisplayINS_13SSD130xDriverILj128ELj64ENS_24SSD130x4WireSpiTransportEEEEE
 6053              		.section	.rodata._ZTVN5daisy11OledDisplayINS_13SSD130xDriverILj128ELj64ENS_24SSD130x4WireSpiTransp
 6054              		.align	2
 6057              	_ZTVN5daisy11OledDisplayINS_13SSD130xDriverILj128ELj64ENS_24SSD130x4WireSpiTransportEEEEE:
 6058 0000 00000000 		.word	0
 6059 0004 00000000 		.word	0
 6060 0008 00000000 		.word	_ZN5daisy11OledDisplayINS_13SSD130xDriverILj128ELj64ENS_24SSD130x4WireSpiTransportEEEED1Ev
 6061 000c 00000000 		.word	_ZN5daisy11OledDisplayINS_13SSD130xDriverILj128ELj64ENS_24SSD130x4WireSpiTransportEEEED0Ev
 6062 0010 00000000 		.word	_ZNK5daisy11OledDisplayINS_13SSD130xDriverILj128ELj64ENS_24SSD130x4WireSpiTransportEEEE6Heig
 6063 0014 00000000 		.word	_ZNK5daisy11OledDisplayINS_13SSD130xDriverILj128ELj64ENS_24SSD130x4WireSpiTransportEEEE5Widt
 6064 0018 00000000 		.word	_ZN5daisy11OledDisplayINS_13SSD130xDriverILj128ELj64ENS_24SSD130x4WireSpiTransportEEEE4FillE
 6065 001c 00000000 		.word	_ZN5daisy11OledDisplayINS_13SSD130xDriverILj128ELj64ENS_24SSD130x4WireSpiTransportEEEE9DrawP
 6066 0020 00000000 		.word	_ZN5daisy25OneBitGraphicsDisplayImplINS_11OledDisplayINS_13SSD130xDriverILj128ELj64ENS_24SSD
 6067 0024 00000000 		.word	_ZN5daisy25OneBitGraphicsDisplayImplINS_11OledDisplayINS_13SSD130xDriverILj128ELj64ENS_24SSD
 6068 0028 00000000 		.word	_ZN5daisy25OneBitGraphicsDisplayImplINS_11OledDisplayINS_13SSD130xDriverILj128ELj64ENS_24SSD
 6069 002c 00000000 		.word	_ZN5daisy25OneBitGraphicsDisplayImplINS_11OledDisplayINS_13SSD130xDriverILj128ELj64ENS_24SSD
 6070 0030 00000000 		.word	_ZN5daisy25OneBitGraphicsDisplayImplINS_11OledDisplayINS_13SSD130xDriverILj128ELj64ENS_24SSD
 6071 0034 00000000 		.word	_ZN5daisy25OneBitGraphicsDisplayImplINS_11OledDisplayINS_13SSD130xDriverILj128ELj64ENS_24SSD
 6072 0038 00000000 		.word	_ZN5daisy11OledDisplayINS_13SSD130xDriverILj128ELj64ENS_24SSD130x4WireSpiTransportEEEE6Updat
 6073              		.global	hw
 6074              		.section	.rodata
 6075              		.align	2
 6076              		.set	.LANCHOR0,. + 0
 6077              	.LC0:
 6078 0000 01       		.byte	1
 6079 0001 07       		.byte	7
 6080 0002 0000     		.space	2
 6081              	.LC1:
 6082 0004 01       		.byte	1
 6083 0005 06       		.byte	6
 6084              		.section	.bss.hw,"aw",%nobits
 6085              		.align	2
 6088              	hw:
 6089 0000 00000000 		.space	38352
 6089      00000000 
 6089      00000000 
 6089      00000000 
 6089      00000000 
 6090              		.text
 6091              	.Letext0:
 6092              		.file 21 "/Applications/ARM/arm-none-eabi/include/machine/_default_types.h"
 6093              		.file 22 "/Applications/ARM/arm-none-eabi/include/sys/_stdint.h"
ARM GAS  /var/folders/z2/7_lhr9dn53s9tj4s0rwtyswm0000gn/T//ccRFfwbB.s 			page 176


 6094              		.file 23 "/Applications/ARM/arm-none-eabi/include/stdint.h"
 6095              		.file 24 "/Applications/ARM/lib/gcc/arm-none-eabi/10.3.1/include/stddef.h"
 6096              		.file 25 "/Applications/ARM/arm-none-eabi/include/c++/10.3.1/bits/std_abs.h"
 6097              		.file 26 "/Applications/ARM/arm-none-eabi/include/c++/10.3.1/cstdlib"
 6098              		.file 27 "/Applications/ARM/arm-none-eabi/include/c++/10.3.1/cstdint"
 6099              		.file 28 "/Applications/ARM/arm-none-eabi/include/c++/10.3.1/type_traits"
 6100              		.file 29 "/Applications/ARM/arm-none-eabi/include/c++/10.3.1/debug/debug.h"
 6101              		.file 30 "/Applications/ARM/arm-none-eabi/include/c++/10.3.1/arm-none-eabi/thumb/v7e-m+dp/hard/bit
 6102              		.file 31 "/Applications/ARM/arm-none-eabi/include/c++/10.3.1/bits/algorithmfwd.h"
 6103              		.file 32 "/Applications/ARM/arm-none-eabi/include/c++/10.3.1/bits/stl_pair.h"
 6104              		.file 33 "/Applications/ARM/arm-none-eabi/include/c++/10.3.1/bits/exception_ptr.h"
 6105              		.file 34 "/Applications/ARM/arm-none-eabi/include/c++/10.3.1/cstdarg"
 6106              		.file 35 "/Applications/ARM/arm-none-eabi/include/c++/10.3.1/cstdio"
 6107              		.file 36 "/Applications/ARM/arm-none-eabi/include/c++/10.3.1/cstring"
 6108              		.file 37 "/Applications/ARM/arm-none-eabi/include/c++/10.3.1/cwchar"
 6109              		.file 38 "/Applications/ARM/arm-none-eabi/include/c++/10.3.1/clocale"
 6110              		.file 39 "/Applications/ARM/arm-none-eabi/include/c++/10.3.1/bits/basic_string.h"
 6111              		.file 40 "/Applications/ARM/arm-none-eabi/include/c++/10.3.1/bits/stl_iterator.h"
 6112              		.file 41 "/Applications/ARM/arm-none-eabi/include/c++/10.3.1/bits/predefined_ops.h"
 6113              		.file 42 "/Applications/ARM/arm-none-eabi/include/sys/_types.h"
 6114              		.file 43 "/Applications/ARM/arm-none-eabi/include/sys/reent.h"
 6115              		.file 44 "/Applications/ARM/arm-none-eabi/include/sys/lock.h"
 6116              		.file 45 "/Applications/ARM/arm-none-eabi/include/math.h"
 6117              		.file 46 "/Applications/ARM/arm-none-eabi/include/stdlib.h"
 6118              		.file 47 "/Applications/ARM/arm-none-eabi/include/c++/10.3.1/math.h"
 6119              		.file 48 "/Applications/ARM/arm-none-eabi/include/c++/10.3.1/stdlib.h"
 6120              		.file 49 "libDaisy//src/daisy_core.h"
 6121              		.file 50 "libDaisy//src/per/tim.h"
 6122              		.file 51 "libDaisy//src/per/sai.h"
 6123              		.file 52 "libDaisy//src/hid/MidiEvent.h"
 6124              		.file 53 "libDaisy//src/hid/ctrl.h"
 6125              		.file 54 "libDaisy//src/hid/gatein.h"
 6126              		.file 55 "libDaisy//src/util/wav_format.h"
 6127              		.file 56 "libDaisy//src/dev/max11300.h"
 6128              		.file 57 "libDaisy//src/per/gpio.h"
 6129              		.file 58 "libDaisy//src/dev/sdram.h"
 6130              		.file 59 "/Applications/ARM/lib/gcc/arm-none-eabi/10.3.1/include/stdarg.h"
 6131              		.file 60 "/Applications/ARM/arm-none-eabi/include/stdio.h"
 6132              		.file 61 "libDaisy//src/util/oled_fonts.h"
 6133              		.file 62 "/Applications/ARM/arm-none-eabi/include/string.h"
 6134              		.file 63 "DaisySP//Source/Control/adenv.h"
 6135              		.file 64 "DaisySP//Source/Utility/dsp.h"
 6136              		.file 65 "/Applications/ARM/arm-none-eabi/include/wchar.h"
 6137              		.file 66 "/Applications/ARM/arm-none-eabi/include/locale.h"
 6138              		.file 67 "/Applications/ARM/arm-none-eabi/include/c++/10.3.1/new"
 6139              		.file 68 "<built-in>"
 6140              		.file 69 "libDaisy//src/dev/sr_595.h"
ARM GAS  /var/folders/z2/7_lhr9dn53s9tj4s0rwtyswm0000gn/T//ccRFfwbB.s 			page 177


DEFINED SYMBOLS
                            *ABS*:0000000000000000 daisyfs.cpp
/var/folders/z2/7_lhr9dn53s9tj4s0rwtyswm0000gn/T//ccRFfwbB.s:19     .text._ZN5daisy10DaisyPatchD2Ev:0000000000000000 $t
/var/folders/z2/7_lhr9dn53s9tj4s0rwtyswm0000gn/T//ccRFfwbB.s:26     .text._ZN5daisy10DaisyPatchD2Ev:0000000000000000 _ZN5daisy10DaisyPatchD2Ev
/var/folders/z2/7_lhr9dn53s9tj4s0rwtyswm0000gn/T//ccRFfwbB.s:26     .text._ZN5daisy10DaisyPatchD2Ev:0000000000000000 _ZN5daisy10DaisyPatchD1Ev
/var/folders/z2/7_lhr9dn53s9tj4s0rwtyswm0000gn/T//ccRFfwbB.s:108    .text._ZN5daisy11OledDisplayINS_13SSD130xDriverILj128ELj64ENS_24SSD130x4WireSpiTransportEEEED2Ev:0000000000000000 $t
/var/folders/z2/7_lhr9dn53s9tj4s0rwtyswm0000gn/T//ccRFfwbB.s:115    .text._ZN5daisy11OledDisplayINS_13SSD130xDriverILj128ELj64ENS_24SSD130x4WireSpiTransportEEEED2Ev:0000000000000000 _ZN5daisy11OledDisplayINS_13SSD130xDriverILj128ELj64ENS_24SSD130x4WireSpiTransportEEEED2Ev
/var/folders/z2/7_lhr9dn53s9tj4s0rwtyswm0000gn/T//ccRFfwbB.s:115    .text._ZN5daisy11OledDisplayINS_13SSD130xDriverILj128ELj64ENS_24SSD130x4WireSpiTransportEEEED2Ev:0000000000000000 _ZN5daisy11OledDisplayINS_13SSD130xDriverILj128ELj64ENS_24SSD130x4WireSpiTransportEEEED1Ev
/var/folders/z2/7_lhr9dn53s9tj4s0rwtyswm0000gn/T//ccRFfwbB.s:140    .text._ZNK5daisy11OledDisplayINS_13SSD130xDriverILj128ELj64ENS_24SSD130x4WireSpiTransportEEEE6HeightEv:0000000000000000 $t
/var/folders/z2/7_lhr9dn53s9tj4s0rwtyswm0000gn/T//ccRFfwbB.s:147    .text._ZNK5daisy11OledDisplayINS_13SSD130xDriverILj128ELj64ENS_24SSD130x4WireSpiTransportEEEE6HeightEv:0000000000000000 _ZNK5daisy11OledDisplayINS_13SSD130xDriverILj128ELj64ENS_24SSD130x4WireSpiTransportEEEE6HeightEv
/var/folders/z2/7_lhr9dn53s9tj4s0rwtyswm0000gn/T//ccRFfwbB.s:164    .text._ZNK5daisy11OledDisplayINS_13SSD130xDriverILj128ELj64ENS_24SSD130x4WireSpiTransportEEEE5WidthEv:0000000000000000 $t
/var/folders/z2/7_lhr9dn53s9tj4s0rwtyswm0000gn/T//ccRFfwbB.s:171    .text._ZNK5daisy11OledDisplayINS_13SSD130xDriverILj128ELj64ENS_24SSD130x4WireSpiTransportEEEE5WidthEv:0000000000000000 _ZNK5daisy11OledDisplayINS_13SSD130xDriverILj128ELj64ENS_24SSD130x4WireSpiTransportEEEE5WidthEv
/var/folders/z2/7_lhr9dn53s9tj4s0rwtyswm0000gn/T//ccRFfwbB.s:188    .text._ZN5daisy11OledDisplayINS_13SSD130xDriverILj128ELj64ENS_24SSD130x4WireSpiTransportEEEE4FillEb:0000000000000000 $t
/var/folders/z2/7_lhr9dn53s9tj4s0rwtyswm0000gn/T//ccRFfwbB.s:195    .text._ZN5daisy11OledDisplayINS_13SSD130xDriverILj128ELj64ENS_24SSD130x4WireSpiTransportEEEE4FillEb:0000000000000000 _ZN5daisy11OledDisplayINS_13SSD130xDriverILj128ELj64ENS_24SSD130x4WireSpiTransportEEEE4FillEb
/var/folders/z2/7_lhr9dn53s9tj4s0rwtyswm0000gn/T//ccRFfwbB.s:227    .text._Z13AudioCallbackPKPKfPPfj:0000000000000000 $t
/var/folders/z2/7_lhr9dn53s9tj4s0rwtyswm0000gn/T//ccRFfwbB.s:234    .text._Z13AudioCallbackPKPKfPPfj:0000000000000000 _Z13AudioCallbackPKPKfPPfj
/var/folders/z2/7_lhr9dn53s9tj4s0rwtyswm0000gn/T//ccRFfwbB.s:334    .text._Z13AudioCallbackPKPKfPPfj:0000000000000058 $d
/var/folders/z2/7_lhr9dn53s9tj4s0rwtyswm0000gn/T//ccRFfwbB.s:6088   .bss.hw:0000000000000000 hw
/var/folders/z2/7_lhr9dn53s9tj4s0rwtyswm0000gn/T//ccRFfwbB.s:339    .text._ZN5daisy11OledDisplayINS_13SSD130xDriverILj128ELj64ENS_24SSD130x4WireSpiTransportEEEED0Ev:0000000000000000 $t
/var/folders/z2/7_lhr9dn53s9tj4s0rwtyswm0000gn/T//ccRFfwbB.s:346    .text._ZN5daisy11OledDisplayINS_13SSD130xDriverILj128ELj64ENS_24SSD130x4WireSpiTransportEEEED0Ev:0000000000000000 _ZN5daisy11OledDisplayINS_13SSD130xDriverILj128ELj64ENS_24SSD130x4WireSpiTransportEEEED0Ev
/var/folders/z2/7_lhr9dn53s9tj4s0rwtyswm0000gn/T//ccRFfwbB.s:386    .text._ZN5daisy11OledDisplayINS_13SSD130xDriverILj128ELj64ENS_24SSD130x4WireSpiTransportEEEE6UpdateEv:0000000000000000 $t
/var/folders/z2/7_lhr9dn53s9tj4s0rwtyswm0000gn/T//ccRFfwbB.s:393    .text._ZN5daisy11OledDisplayINS_13SSD130xDriverILj128ELj64ENS_24SSD130x4WireSpiTransportEEEE6UpdateEv:0000000000000000 _ZN5daisy11OledDisplayINS_13SSD130xDriverILj128ELj64ENS_24SSD130x4WireSpiTransportEEEE6UpdateEv
/var/folders/z2/7_lhr9dn53s9tj4s0rwtyswm0000gn/T//ccRFfwbB.s:580    .text._ZN5daisy25OneBitGraphicsDisplayImplINS_11OledDisplayINS_13SSD130xDriverILj128ELj64ENS_24SSD130x4WireSpiTransportEEEEEE11WriteStringEPKc7FontDefb:0000000000000000 $t
/var/folders/z2/7_lhr9dn53s9tj4s0rwtyswm0000gn/T//ccRFfwbB.s:587    .text._ZN5daisy25OneBitGraphicsDisplayImplINS_11OledDisplayINS_13SSD130xDriverILj128ELj64ENS_24SSD130x4WireSpiTransportEEEEEE11WriteStringEPKc7FontDefb:0000000000000000 _ZN5daisy25OneBitGraphicsDisplayImplINS_11OledDisplayINS_13SSD130xDriverILj128ELj64ENS_24SSD130x4WireSpiTransportEEEEEE11WriteStringEPKc7FontDefb
/var/folders/z2/7_lhr9dn53s9tj4s0rwtyswm0000gn/T//ccRFfwbB.s:1044   .text._ZN5daisy25OneBitGraphicsDisplayImplINS_11OledDisplayINS_13SSD130xDriverILj128ELj64ENS_24SSD130x4WireSpiTransportEEEEEE11WriteStringEPKc7FontDefb:00000000000001b8 $d
/var/folders/z2/7_lhr9dn53s9tj4s0rwtyswm0000gn/T//ccRFfwbB.s:1054   .text._ZN5daisy25OneBitGraphicsDisplayImplINS_11OledDisplayINS_13SSD130xDriverILj128ELj64ENS_24SSD130x4WireSpiTransportEEEEEE9WriteCharEc7FontDefb:0000000000000000 $t
/var/folders/z2/7_lhr9dn53s9tj4s0rwtyswm0000gn/T//ccRFfwbB.s:1061   .text._ZN5daisy25OneBitGraphicsDisplayImplINS_11OledDisplayINS_13SSD130xDriverILj128ELj64ENS_24SSD130x4WireSpiTransportEEEEEE9WriteCharEc7FontDefb:0000000000000000 _ZN5daisy25OneBitGraphicsDisplayImplINS_11OledDisplayINS_13SSD130xDriverILj128ELj64ENS_24SSD130x4WireSpiTransportEEEEEE9WriteCharEc7FontDefb
/var/folders/z2/7_lhr9dn53s9tj4s0rwtyswm0000gn/T//ccRFfwbB.s:1487   .text._ZN5daisy25OneBitGraphicsDisplayImplINS_11OledDisplayINS_13SSD130xDriverILj128ELj64ENS_24SSD130x4WireSpiTransportEEEEEE9WriteCharEc7FontDefb:0000000000000198 $d
/var/folders/z2/7_lhr9dn53s9tj4s0rwtyswm0000gn/T//ccRFfwbB.s:1495   .text._ZN5daisy25OneBitGraphicsDisplayImplINS_11OledDisplayINS_13SSD130xDriverILj128ELj64ENS_24SSD130x4WireSpiTransportEEEEEE18WriteStringAlignedEPKcRK7FontDefNS_9RectangleENS_9AlignmentEb:0000000000000000 $t
/var/folders/z2/7_lhr9dn53s9tj4s0rwtyswm0000gn/T//ccRFfwbB.s:1502   .text._ZN5daisy25OneBitGraphicsDisplayImplINS_11OledDisplayINS_13SSD130xDriverILj128ELj64ENS_24SSD130x4WireSpiTransportEEEEEE18WriteStringAlignedEPKcRK7FontDefNS_9RectangleENS_9AlignmentEb:0000000000000000 _ZN5daisy25OneBitGraphicsDisplayImplINS_11OledDisplayINS_13SSD130xDriverILj128ELj64ENS_24SSD130x4WireSpiTransportEEEEEE18WriteStringAlignedEPKcRK7FontDefNS_9RectangleENS_9AlignmentEb
/var/folders/z2/7_lhr9dn53s9tj4s0rwtyswm0000gn/T//ccRFfwbB.s:1641   .text._ZN5daisy25OneBitGraphicsDisplayImplINS_11OledDisplayINS_13SSD130xDriverILj128ELj64ENS_24SSD130x4WireSpiTransportEEEEEE18WriteStringAlignedEPKcRK7FontDefNS_9RectangleENS_9AlignmentEb:0000000000000046 $d
/var/folders/z2/7_lhr9dn53s9tj4s0rwtyswm0000gn/T//ccRFfwbB.s:1650   .text._ZN5daisy25OneBitGraphicsDisplayImplINS_11OledDisplayINS_13SSD130xDriverILj128ELj64ENS_24SSD130x4WireSpiTransportEEEEEE18WriteStringAlignedEPKcRK7FontDefNS_9RectangleENS_9AlignmentEb:0000000000000058 $t
/var/folders/z2/7_lhr9dn53s9tj4s0rwtyswm0000gn/T//ccRFfwbB.s:2858   .text._ZN5daisy25OneBitGraphicsDisplayImplINS_11OledDisplayINS_13SSD130xDriverILj128ELj64ENS_24SSD130x4WireSpiTransportEEEEEE18WriteStringAlignedEPKcRK7FontDefNS_9RectangleENS_9AlignmentEb:000000000000031c $d
/var/folders/z2/7_lhr9dn53s9tj4s0rwtyswm0000gn/T//ccRFfwbB.s:2867   .text._ZN5daisy25OneBitGraphicsDisplayImplINS_11OledDisplayINS_13SSD130xDriverILj128ELj64ENS_24SSD130x4WireSpiTransportEEEEEE18WriteStringAlignedEPKcRK7FontDefNS_9RectangleENS_9AlignmentEb:0000000000000324 $t
/var/folders/z2/7_lhr9dn53s9tj4s0rwtyswm0000gn/T//ccRFfwbB.s:3183   .text._ZN5daisy25OneBitGraphicsDisplayImplINS_11OledDisplayINS_13SSD130xDriverILj128ELj64ENS_24SSD130x4WireSpiTransportEEEEEE18WriteStringAlignedEPKcRK7FontDefNS_9RectangleENS_9AlignmentEb:00000000000003e4 $d
/var/folders/z2/7_lhr9dn53s9tj4s0rwtyswm0000gn/T//ccRFfwbB.s:3191   .text._ZN5daisy11OledDisplayINS_13SSD130xDriverILj128ELj64ENS_24SSD130x4WireSpiTransportEEEE9DrawPixelEjjb:0000000000000000 $t
/var/folders/z2/7_lhr9dn53s9tj4s0rwtyswm0000gn/T//ccRFfwbB.s:3198   .text._ZN5daisy11OledDisplayINS_13SSD130xDriverILj128ELj64ENS_24SSD130x4WireSpiTransportEEEE9DrawPixelEjjb:0000000000000000 _ZN5daisy11OledDisplayINS_13SSD130xDriverILj128ELj64ENS_24SSD130x4WireSpiTransportEEEE9DrawPixelEjjb
/var/folders/z2/7_lhr9dn53s9tj4s0rwtyswm0000gn/T//ccRFfwbB.s:3275   .text._ZN5daisy25OneBitGraphicsDisplayImplINS_11OledDisplayINS_13SSD130xDriverILj128ELj64ENS_24SSD130x4WireSpiTransportEEEEEE8DrawLineEjjjjb:0000000000000000 $t
/var/folders/z2/7_lhr9dn53s9tj4s0rwtyswm0000gn/T//ccRFfwbB.s:3282   .text._ZN5daisy25OneBitGraphicsDisplayImplINS_11OledDisplayINS_13SSD130xDriverILj128ELj64ENS_24SSD130x4WireSpiTransportEEEEEE8DrawLineEjjjjb:0000000000000000 _ZN5daisy25OneBitGraphicsDisplayImplINS_11OledDisplayINS_13SSD130xDriverILj128ELj64ENS_24SSD130x4WireSpiTransportEEEEEE8DrawLineEjjjjb
/var/folders/z2/7_lhr9dn53s9tj4s0rwtyswm0000gn/T//ccRFfwbB.s:3567   .text._ZN5daisy25OneBitGraphicsDisplayImplINS_11OledDisplayINS_13SSD130xDriverILj128ELj64ENS_24SSD130x4WireSpiTransportEEEEEE7DrawArcEjjjiib:0000000000000000 $t
/var/folders/z2/7_lhr9dn53s9tj4s0rwtyswm0000gn/T//ccRFfwbB.s:3574   .text._ZN5daisy25OneBitGraphicsDisplayImplINS_11OledDisplayINS_13SSD130xDriverILj128ELj64ENS_24SSD130x4WireSpiTransportEEEEEE7DrawArcEjjjiib:0000000000000000 _ZN5daisy25OneBitGraphicsDisplayImplINS_11OledDisplayINS_13SSD130xDriverILj128ELj64ENS_24SSD130x4WireSpiTransportEEEEEE7DrawArcEjjjiib
/var/folders/z2/7_lhr9dn53s9tj4s0rwtyswm0000gn/T//ccRFfwbB.s:4259   .text._ZN5daisy25OneBitGraphicsDisplayImplINS_11OledDisplayINS_13SSD130xDriverILj128ELj64ENS_24SSD130x4WireSpiTransportEEEEEE7DrawArcEjjjiib:0000000000000368 $d
/var/folders/z2/7_lhr9dn53s9tj4s0rwtyswm0000gn/T//ccRFfwbB.s:4273   .text._ZN5daisy25OneBitGraphicsDisplayImplINS_11OledDisplayINS_13SSD130xDriverILj128ELj64ENS_24SSD130x4WireSpiTransportEEEEEE7DrawArcEjjjiib:0000000000000378 $t
/var/folders/z2/7_lhr9dn53s9tj4s0rwtyswm0000gn/T//ccRFfwbB.s:4499   .text._ZN5daisy25OneBitGraphicsDisplayImplINS_11OledDisplayINS_13SSD130xDriverILj128ELj64ENS_24SSD130x4WireSpiTransportEEEEEE8DrawRectEjjjjbb:0000000000000000 $t
/var/folders/z2/7_lhr9dn53s9tj4s0rwtyswm0000gn/T//ccRFfwbB.s:4506   .text._ZN5daisy25OneBitGraphicsDisplayImplINS_11OledDisplayINS_13SSD130xDriverILj128ELj64ENS_24SSD130x4WireSpiTransportEEEEEE8DrawRectEjjjjbb:0000000000000000 _ZN5daisy25OneBitGraphicsDisplayImplINS_11OledDisplayINS_13SSD130xDriverILj128ELj64ENS_24SSD130x4WireSpiTransportEEEEEE8DrawRectEjjjjbb
/var/folders/z2/7_lhr9dn53s9tj4s0rwtyswm0000gn/T//ccRFfwbB.s:5616   .text.startup.main:0000000000000000 $t
/var/folders/z2/7_lhr9dn53s9tj4s0rwtyswm0000gn/T//ccRFfwbB.s:5623   .text.startup.main:0000000000000000 main
/var/folders/z2/7_lhr9dn53s9tj4s0rwtyswm0000gn/T//ccRFfwbB.s:5673   .text.startup.main:000000000000002c $d
/var/folders/z2/7_lhr9dn53s9tj4s0rwtyswm0000gn/T//ccRFfwbB.s:5679   .text.startup._GLOBAL__sub_I_hw:0000000000000000 $t
/var/folders/z2/7_lhr9dn53s9tj4s0rwtyswm0000gn/T//ccRFfwbB.s:5685   .text.startup._GLOBAL__sub_I_hw:0000000000000000 _GLOBAL__sub_I_hw
/var/folders/z2/7_lhr9dn53s9tj4s0rwtyswm0000gn/T//ccRFfwbB.s:6038   .text.startup._GLOBAL__sub_I_hw:0000000000000054 $d
/var/folders/z2/7_lhr9dn53s9tj4s0rwtyswm0000gn/T//ccRFfwbB.s:6057   .rodata._ZTVN5daisy11OledDisplayINS_13SSD130xDriverILj128ELj64ENS_24SSD130x4WireSpiTransportEEEEE:0000000000000000 _ZTVN5daisy11OledDisplayINS_13SSD130xDriverILj128ELj64ENS_24SSD130x4WireSpiTransportEEEEE
/var/folders/z2/7_lhr9dn53s9tj4s0rwtyswm0000gn/T//ccRFfwbB.s:6050   .init_array:0000000000000000 $d
/var/folders/z2/7_lhr9dn53s9tj4s0rwtyswm0000gn/T//ccRFfwbB.s:6054   .rodata._ZTVN5daisy11OledDisplayINS_13SSD130xDriverILj128ELj64ENS_24SSD130x4WireSpiTransportEEEEE:0000000000000000 $d
/var/folders/z2/7_lhr9dn53s9tj4s0rwtyswm0000gn/T//ccRFfwbB.s:6075   .rodata:0000000000000000 $d
/var/folders/z2/7_lhr9dn53s9tj4s0rwtyswm0000gn/T//ccRFfwbB.s:6085   .bss.hw:0000000000000000 $d
                           .group:0000000000000000 _ZN5daisy10DaisyPatchD5Ev
ARM GAS  /var/folders/z2/7_lhr9dn53s9tj4s0rwtyswm0000gn/T//ccRFfwbB.s 			page 178


                           .group:0000000000000000 _ZN5daisy11OledDisplayINS_13SSD130xDriverILj128ELj64ENS_24SSD130x4WireSpiTransportEEEED5Ev

UNDEFINED SYMBOLS
memset
_ZN5daisy10DaisyPatch21ProcessAnalogControlsEv
_ZN5daisy10DaisyPatch22ProcessDigitalControlsEv
_ZdlPvj
dsy_gpio_write
_ZN5daisy9SpiHandle16BlockingTransmitEPhjm
cosf
sinf
_ZN5daisy10DaisyPatch4InitEb
_ZN5daisy10DaisyPatch17SetAudioBlockSizeEj
_ZN5daisy10DaisyPatch18SetAudioSampleRateENS_9SaiHandle6Config10SampleRateE
_ZN5daisy10DaisyPatch8StartAdcEv
_ZN5daisy10DaisyPatch10StartAudioEPFvPKPKfPPfjE
__aeabi_atexit
__dso_handle
